(dp1
S'TST2MUC40099'
p2
(dp3
S'PERP ORGANIZATION CONFIDENCE'
p4
S'REPORTED AS FACT ELN ARMY OF NATIONAL LIBERATION'
p5
sS'HUM TGT EFFECT OF INCIDENT'
p6
S''
sS'INCIDENT LOCATION'
p7
S'COLOMBIA'
p8
sS'PHYS TGT ID'
p9
S'CANO LIMONCOVENAS OIL TERMINAL OIL TERMINAL'
p10
sS'PERP INCIDENT CATEGORY'
p11
S'TERRORIST ACT'
p12
sS'PERP ORGANIZATION ID'
p13
S'ELN ARMY OF NATIONAL LIBERATION'
p14
sS'HUM TGT TYPE'
p15
S''
sS'HUM TGT TOTAL NUMBER'
p16
S''
sS'INCIDENT INSTRUMENT ID'
p17
S''
sS'INCIDENT INSTRUMENT TYPE'
p18
S''
sS'PHYS TGT FOREIGN NATION'
p19
S''
sS'HUM TGT NUMBER'
p20
S''
sS'PHYS TGT TYPE'
p21
S'ENERGY CANO LIMONCOVENAS OIL TERMINAL OIL TERMINAL'
p22
sS'HUM TGT NAME'
p23
S''
sS'INCIDENT TYPE'
p24
S'ATTACK'
p25
sS'PHYS TGT NUMBER'
p26
S'1 CANO LIMONCOVENAS OIL TERMINAL OIL TERMINAL'
p27
sS'PERP INDIVIDUAL ID'
p28
S''
sS'INCIDENT STAGE OF EXECUTION'
p29
S'ACCOMPLISHED'
p30
sS'HUM TGT DESCRIPTION'
p31
S''
sS'PHYS TGT EFFECT OF INCIDENT'
p32
S'DESTROYED CANO LIMONCOVENAS OIL TERMINAL OIL TERMINAL'
p33
sS'HUM TGT FOREIGN NATION'
p34
S''
sS'INCIDENT DATE'
p35
S'16 JUN 89'
p36
sS'MESSAGE TEMPLATE'
p37
S'2'
sS'PHYS TGT TOTAL NUMBER'
p38
S''
ssS'TST2MUC40098'
p39
(dp40
S'PERP ORGANIZATION CONFIDENCE'
p41
S'SUSPECTED OR ACCUSED REPORTED AS FACT GUATEMALAN ARMY ARMY'
p42
sS'HUM TGT EFFECT OF INCIDENT'
p43
S'RESIGNATION ONE OF THE EXILED EXILED'
p44
sS'INCIDENT LOCATION'
p45
S'GUATEMALA'
p46
sS'PHYS TGT ID'
p47
S''
sS'PERP INCIDENT CATEGORY'
p48
S'STATESPONSORED VIOLENCE'
p49
sS'PERP ORGANIZATION ID'
p50
S'GUATEMALAN ARMY ARMY'
p51
sS'HUM TGT TYPE'
p52
S'CIVILIAN ONE OF THE EXILED EXILED'
p53
sS'HUM TGT TOTAL NUMBER'
p54
S''
sS'INCIDENT INSTRUMENT ID'
p55
S''
sS'INCIDENT INSTRUMENT TYPE'
p56
S''
sS'PHYS TGT FOREIGN NATION'
p57
S''
sS'HUM TGT NUMBER'
p58
S'1 ONE OF THE EXILED EXILED'
p59
sS'PHYS TGT TYPE'
p60
S''
sS'HUM TGT NAME'
p61
S''
sS'INCIDENT TYPE'
p62
S'KIDNAPPING'
p63
sS'PHYS TGT NUMBER'
p64
S''
sS'PERP INDIVIDUAL ID'
p65
S''
sS'INCIDENT STAGE OF EXECUTION'
p66
S'THREATENED'
p67
sS'HUM TGT DESCRIPTION'
p68
S'ONE OF THE EXILED EXILED'
p69
sS'PHYS TGT EFFECT OF INCIDENT'
p70
S''
sS'HUM TGT FOREIGN NATION'
p71
S''
sS'INCIDENT DATE'
p72
S'21 AUG 89 04 SEP 89'
p73
sS'MESSAGE TEMPLATE'
p74
S'3 OPTIONAL'
p75
sS'PHYS TGT TOTAL NUMBER'
p76
S''
ssS'TST2MUC40095'
p77
(dp78
S'PERP ORGANIZATION CONFIDENCE'
p79
S''
sS'HUM TGT EFFECT OF INCIDENT'
p80
S''
sS'INCIDENT LOCATION'
p81
S'GUATEMALA'
p82
sS'PHYS TGT ID'
p83
S'AIR FORCE INSTALLATIONS'
p84
sS'PERP INCIDENT CATEGORY'
p85
S'TERRORIST ACT'
p86
sS'PERP ORGANIZATION ID'
p87
S''
sS'HUM TGT TYPE'
p88
S''
sS'HUM TGT TOTAL NUMBER'
p89
S''
sS'INCIDENT INSTRUMENT ID'
p90
S'EXPLOSIVE DEVICES'
p91
sS'INCIDENT INSTRUMENT TYPE'
p92
S'EXPLOSIVE EXPLOSIVE DEVICES'
p93
sS'PHYS TGT FOREIGN NATION'
p94
S''
sS'HUM TGT NUMBER'
p95
S''
sS'PHYS TGT TYPE'
p96
S'OTHER AIR FORCE INSTALLATIONS'
p97
sS'HUM TGT NAME'
p98
S''
sS'INCIDENT TYPE'
p99
S'BOMBING'
p100
sS'PHYS TGT NUMBER'
p101
S'PLURAL AIR FORCE INSTALLATIONS'
p102
sS'PERP INDIVIDUAL ID'
p103
S'TERRORIST'
p104
sS'INCIDENT STAGE OF EXECUTION'
p105
S'ACCOMPLISHED'
p106
sS'HUM TGT DESCRIPTION'
p107
S''
sS'PHYS TGT EFFECT OF INCIDENT'
p108
S'SOME DAMAGE BUILDINGS'
p109
sS'HUM TGT FOREIGN NATION'
p110
S''
sS'INCIDENT DATE'
p111
S'17 MAY 90 18 MAY 90'
p112
sS'MESSAGE TEMPLATE'
p113
S'1 OPTIONAL'
p114
sS'PHYS TGT TOTAL NUMBER'
p115
S''
ssS'TST2MUC40094'
p116
(dp117
S'PERP ORGANIZATION CONFIDENCE'
p118
S''
sS'HUM TGT EFFECT OF INCIDENT'
p119
S''
sS'INCIDENT LOCATION'
p120
S''
sS'PHYS TGT ID'
p121
S''
sS'PERP INCIDENT CATEGORY'
p122
S''
sS'PERP ORGANIZATION ID'
p123
S''
sS'HUM TGT TYPE'
p124
S''
sS'HUM TGT TOTAL NUMBER'
p125
S''
sS'INCIDENT INSTRUMENT ID'
p126
S''
sS'INCIDENT INSTRUMENT TYPE'
p127
S''
sS'PHYS TGT FOREIGN NATION'
p128
S''
sS'HUM TGT NUMBER'
p129
S''
sS'PHYS TGT TYPE'
p130
S''
sS'HUM TGT NAME'
p131
S''
sS'INCIDENT TYPE'
p132
S''
sS'PHYS TGT NUMBER'
p133
S''
sS'PERP INDIVIDUAL ID'
p134
S''
sS'INCIDENT STAGE OF EXECUTION'
p135
S''
sS'HUM TGT DESCRIPTION'
p136
S''
sS'PHYS TGT EFFECT OF INCIDENT'
p137
S''
sS'HUM TGT FOREIGN NATION'
p138
S''
sS'INCIDENT DATE'
p139
S''
sS'MESSAGE TEMPLATE'
p140
S''
sS'PHYS TGT TOTAL NUMBER'
p141
S''
ssS'TST2MUC40097'
p142
(dp143
S'PERP ORGANIZATION CONFIDENCE'
p144
S''
sS'HUM TGT EFFECT OF INCIDENT'
p145
S''
sS'INCIDENT LOCATION'
p146
S''
sS'PHYS TGT ID'
p147
S''
sS'PERP INCIDENT CATEGORY'
p148
S''
sS'PERP ORGANIZATION ID'
p149
S''
sS'HUM TGT TYPE'
p150
S''
sS'HUM TGT TOTAL NUMBER'
p151
S''
sS'INCIDENT INSTRUMENT ID'
p152
S''
sS'INCIDENT INSTRUMENT TYPE'
p153
S''
sS'PHYS TGT FOREIGN NATION'
p154
S''
sS'HUM TGT NUMBER'
p155
S''
sS'PHYS TGT TYPE'
p156
S''
sS'HUM TGT NAME'
p157
S''
sS'INCIDENT TYPE'
p158
S''
sS'PHYS TGT NUMBER'
p159
S''
sS'PERP INDIVIDUAL ID'
p160
S''
sS'INCIDENT STAGE OF EXECUTION'
p161
S''
sS'HUM TGT DESCRIPTION'
p162
S''
sS'PHYS TGT EFFECT OF INCIDENT'
p163
S''
sS'HUM TGT FOREIGN NATION'
p164
S''
sS'INCIDENT DATE'
p165
S''
sS'MESSAGE TEMPLATE'
p166
S''
sS'PHYS TGT TOTAL NUMBER'
p167
S''
ssS'TST2MUC40096'
p168
(dp169
S'PERP ORGANIZATION CONFIDENCE'
p170
S''
sS'HUM TGT EFFECT OF INCIDENT'
p171
S''
sS'INCIDENT LOCATION'
p172
S''
sS'PHYS TGT ID'
p173
S''
sS'PERP INCIDENT CATEGORY'
p174
S''
sS'PERP ORGANIZATION ID'
p175
S''
sS'HUM TGT TYPE'
p176
S''
sS'HUM TGT TOTAL NUMBER'
p177
S''
sS'INCIDENT INSTRUMENT ID'
p178
S''
sS'INCIDENT INSTRUMENT TYPE'
p179
S''
sS'PHYS TGT FOREIGN NATION'
p180
S''
sS'HUM TGT NUMBER'
p181
S''
sS'PHYS TGT TYPE'
p182
S''
sS'HUM TGT NAME'
p183
S''
sS'INCIDENT TYPE'
p184
S''
sS'PHYS TGT NUMBER'
p185
S''
sS'PERP INDIVIDUAL ID'
p186
S''
sS'INCIDENT STAGE OF EXECUTION'
p187
S''
sS'HUM TGT DESCRIPTION'
p188
S''
sS'PHYS TGT EFFECT OF INCIDENT'
p189
S''
sS'HUM TGT FOREIGN NATION'
p190
S''
sS'INCIDENT DATE'
p191
S''
sS'MESSAGE TEMPLATE'
p192
S''
sS'PHYS TGT TOTAL NUMBER'
p193
S''
ssS'TST2MUC40091'
p194
(dp195
S'PERP ORGANIZATION CONFIDENCE'
p196
S''
sS'HUM TGT EFFECT OF INCIDENT'
p197
S''
sS'INCIDENT LOCATION'
p198
S''
sS'PHYS TGT ID'
p199
S''
sS'PERP INCIDENT CATEGORY'
p200
S''
sS'PERP ORGANIZATION ID'
p201
S''
sS'HUM TGT TYPE'
p202
S''
sS'HUM TGT TOTAL NUMBER'
p203
S''
sS'INCIDENT INSTRUMENT ID'
p204
S''
sS'INCIDENT INSTRUMENT TYPE'
p205
S''
sS'PHYS TGT FOREIGN NATION'
p206
S''
sS'HUM TGT NUMBER'
p207
S''
sS'PHYS TGT TYPE'
p208
S''
sS'HUM TGT NAME'
p209
S''
sS'INCIDENT TYPE'
p210
S''
sS'PHYS TGT NUMBER'
p211
S''
sS'PERP INDIVIDUAL ID'
p212
S''
sS'INCIDENT STAGE OF EXECUTION'
p213
S''
sS'HUM TGT DESCRIPTION'
p214
S''
sS'PHYS TGT EFFECT OF INCIDENT'
p215
S''
sS'HUM TGT FOREIGN NATION'
p216
S''
sS'INCIDENT DATE'
p217
S''
sS'MESSAGE TEMPLATE'
p218
S''
sS'PHYS TGT TOTAL NUMBER'
p219
S''
ssS'TST2MUC40090'
p220
(dp221
S'PERP ORGANIZATION CONFIDENCE'
p222
S''
sS'HUM TGT EFFECT OF INCIDENT'
p223
S''
sS'INCIDENT LOCATION'
p224
S'HONDURAS EL SALVADOR'
p225
sS'PHYS TGT ID'
p226
S'BUILDING BUILDING NEXT TO THE US EMBASSY'
p227
sS'PERP INCIDENT CATEGORY'
p228
S''
sS'PERP ORGANIZATION ID'
p229
S''
sS'HUM TGT TYPE'
p230
S''
sS'HUM TGT TOTAL NUMBER'
p231
S''
sS'INCIDENT INSTRUMENT ID'
p232
S''
sS'INCIDENT INSTRUMENT TYPE'
p233
S''
sS'PHYS TGT FOREIGN NATION'
p234
S'UNITED STATES EL SALVADOR HONDURAS FACILITIES FACILITIES NEXT TO THE US EMBASSY'
p235
sS'HUM TGT NUMBER'
p236
S''
sS'PHYS TGT TYPE'
p237
S'DIPLOMAT OFFICE OR RESIDENCE OTHER BUILDING BUILDING NEXT TO THE US EMBASSY'
p238
sS'HUM TGT NAME'
p239
S''
sS'INCIDENT TYPE'
p240
S'ATTACK'
p241
sS'PHYS TGT NUMBER'
p242
S'1 BUILDING BUILDING NEXT TO THE US EMBASSY'
p243
sS'PERP INDIVIDUAL ID'
p244
S''
sS'INCIDENT STAGE OF EXECUTION'
p245
S'ACCOMPLISHED'
p246
sS'HUM TGT DESCRIPTION'
p247
S''
sS'PHYS TGT EFFECT OF INCIDENT'
p248
S'SOME DAMAGE BUILDING BUILDING NEXT TO THE US EMBASSY'
p249
sS'HUM TGT FOREIGN NATION'
p250
S''
sS'INCIDENT DATE'
p251
S'29 APR 88'
p252
sS'MESSAGE TEMPLATE'
p253
S'3 OPTIONAL'
p254
sS'PHYS TGT TOTAL NUMBER'
p255
S''
ssS'TST2MUC40093'
p256
(dp257
S'PERP ORGANIZATION CONFIDENCE'
p258
S'REPORTED AS FACT AIR FORCE'
p259
sS'HUM TGT EFFECT OF INCIDENT'
p260
S'DEATH CIVILIANS'
p261
sS'INCIDENT LOCATION'
p262
S'EL SALVADOR SAN SALVADOR CITY'
p263
sS'PHYS TGT ID'
p264
S''
sS'PERP INCIDENT CATEGORY'
p265
S'STATESPONSORED VIOLENCE'
p266
sS'PERP ORGANIZATION ID'
p267
S'AIR FORCE'
p268
sS'HUM TGT TYPE'
p269
S'CIVILIAN CIVILIANS'
p270
sS'HUM TGT TOTAL NUMBER'
p271
S''
sS'INCIDENT INSTRUMENT ID'
p272
S''
sS'INCIDENT INSTRUMENT TYPE'
p273
S'AERIAL BOMB BOMB'
p274
sS'PHYS TGT FOREIGN NATION'
p275
S''
sS'HUM TGT NUMBER'
p276
S'PLURAL CIVILIANS'
p277
sS'PHYS TGT TYPE'
p278
S''
sS'HUM TGT NAME'
p279
S''
sS'INCIDENT TYPE'
p280
S'BOMBING ATTACK'
p281
sS'PHYS TGT NUMBER'
p282
S''
sS'PERP INDIVIDUAL ID'
p283
S''
sS'INCIDENT STAGE OF EXECUTION'
p284
S'ACCOMPLISHED'
p285
sS'HUM TGT DESCRIPTION'
p286
S'CIVILIANS'
p287
sS'PHYS TGT EFFECT OF INCIDENT'
p288
S''
sS'HUM TGT FOREIGN NATION'
p289
S''
sS'INCIDENT DATE'
p290
S'14 NOV 89 14 NOV 89'
p291
sS'MESSAGE TEMPLATE'
p292
S'1 OPTIONAL'
p293
sS'PHYS TGT TOTAL NUMBER'
p294
S''
ssS'TST2MUC40092'
p295
(dp296
S'PERP ORGANIZATION CONFIDENCE'
p297
S''
sS'HUM TGT EFFECT OF INCIDENT'
p298
S''
sS'INCIDENT LOCATION'
p299
S''
sS'PHYS TGT ID'
p300
S''
sS'PERP INCIDENT CATEGORY'
p301
S''
sS'PERP ORGANIZATION ID'
p302
S''
sS'HUM TGT TYPE'
p303
S''
sS'HUM TGT TOTAL NUMBER'
p304
S''
sS'INCIDENT INSTRUMENT ID'
p305
S''
sS'INCIDENT INSTRUMENT TYPE'
p306
S''
sS'PHYS TGT FOREIGN NATION'
p307
S''
sS'HUM TGT NUMBER'
p308
S''
sS'PHYS TGT TYPE'
p309
S''
sS'HUM TGT NAME'
p310
S''
sS'INCIDENT TYPE'
p311
S''
sS'PHYS TGT NUMBER'
p312
S''
sS'PERP INDIVIDUAL ID'
p313
S''
sS'INCIDENT STAGE OF EXECUTION'
p314
S''
sS'HUM TGT DESCRIPTION'
p315
S''
sS'PHYS TGT EFFECT OF INCIDENT'
p316
S''
sS'HUM TGT FOREIGN NATION'
p317
S''
sS'INCIDENT DATE'
p318
S''
sS'MESSAGE TEMPLATE'
p319
S''
sS'PHYS TGT TOTAL NUMBER'
p320
S''
ssS'TST2MUC40015'
p321
(dp322
S'PERP ORGANIZATION CONFIDENCE'
p323
S'POSSIBLE MEDELLIN CARTEL'
p324
sS'HUM TGT EFFECT OF INCIDENT'
p325
S'NO DEATH'
p326
sS'INCIDENT LOCATION'
p327
S'COLOMBIA MEDELLIN CITY'
p328
sS'PHYS TGT ID'
p329
S'BANCO CAFETERO BRANCHES AND ITS OFFICES BANK BRANCH OFFICES'
p330
sS'PERP INCIDENT CATEGORY'
p331
S'TERRORIST ACT'
p332
sS'PERP ORGANIZATION ID'
p333
S'MEDELLIN CARTEL'
p334
sS'HUM TGT TYPE'
p335
S''
sS'HUM TGT TOTAL NUMBER'
p336
S''
sS'INCIDENT INSTRUMENT ID'
p337
S'OVER 55 KG OF DYNAMITE 55 KG OF DYNAMITE DYNAMITE'
p338
sS'INCIDENT INSTRUMENT TYPE'
p339
S'DYNAMITE OVER 55 KG OF DYNAMITE 55 KG OF DYNAMITE DYNAMITE'
p340
sS'PHYS TGT FOREIGN NATION'
p341
S''
sS'HUM TGT NUMBER'
p342
S''
sS'PHYS TGT TYPE'
p343
S'FINANCIAL BANCO CAFETERO BRANCHES AND ITS OFFICES BANK BRANCH OFFICES'
p344
sS'HUM TGT NAME'
p345
S''
sS'INCIDENT TYPE'
p346
S'BOMBING'
p347
sS'PHYS TGT NUMBER'
p348
S'7 BANCO CAFETERO BRANCHES AND ITS OFFICES BANK BRANCH OFFICES'
p349
sS'PERP INDIVIDUAL ID'
p350
S'TERRORIST'
p351
sS'INCIDENT STAGE OF EXECUTION'
p352
S'ACCOMPLISHED'
p353
sS'HUM TGT DESCRIPTION'
p354
S''
sS'PHYS TGT EFFECT OF INCIDENT'
p355
S'SOME DAMAGE BANCO CAFETERO BRANCHES AND ITS OFFICES BANK BRANCH OFFICES'
p356
sS'HUM TGT FOREIGN NATION'
p357
S''
sS'INCIDENT DATE'
p358
S'27 AUG 89'
p359
sS'MESSAGE TEMPLATE'
p360
S'1'
sS'PHYS TGT TOTAL NUMBER'
p361
S''
ssS'TST2MUC40014'
p362
(dp363
S'PERP ORGANIZATION CONFIDENCE'
p364
S''
sS'HUM TGT EFFECT OF INCIDENT'
p365
S''
sS'INCIDENT LOCATION'
p366
S''
sS'PHYS TGT ID'
p367
S''
sS'PERP INCIDENT CATEGORY'
p368
S''
sS'PERP ORGANIZATION ID'
p369
S''
sS'HUM TGT TYPE'
p370
S''
sS'HUM TGT TOTAL NUMBER'
p371
S''
sS'INCIDENT INSTRUMENT ID'
p372
S''
sS'INCIDENT INSTRUMENT TYPE'
p373
S''
sS'PHYS TGT FOREIGN NATION'
p374
S''
sS'HUM TGT NUMBER'
p375
S''
sS'PHYS TGT TYPE'
p376
S''
sS'HUM TGT NAME'
p377
S''
sS'INCIDENT TYPE'
p378
S''
sS'PHYS TGT NUMBER'
p379
S''
sS'PERP INDIVIDUAL ID'
p380
S''
sS'INCIDENT STAGE OF EXECUTION'
p381
S''
sS'HUM TGT DESCRIPTION'
p382
S''
sS'PHYS TGT EFFECT OF INCIDENT'
p383
S''
sS'HUM TGT FOREIGN NATION'
p384
S''
sS'INCIDENT DATE'
p385
S''
sS'MESSAGE TEMPLATE'
p386
S''
sS'PHYS TGT TOTAL NUMBER'
p387
S''
ssS'TST2MUC40017'
p388
(dp389
S'PERP ORGANIZATION CONFIDENCE'
p390
S''
sS'HUM TGT EFFECT OF INCIDENT'
p391
S'DEATH PEOPLE'
p392
sS'PEOPLE'
p393
S''
sS'INCIDENT LOCATION'
p394
S'COLOMBIA BOGOTA CITY'
p395
sS'PHYS TGT ID'
p396
S'FEDERAL POLICE BUILDING'
p397
sS'PERP INCIDENT CATEGORY'
p398
S'TERRORIST ACT'
p399
sS'PERP ORGANIZATION ID'
p400
S''
sS'HUM TGT TYPE'
p401
S'CIVILIAN PEOPLE'
p402
sS'HUM TGT TOTAL NUMBER'
p403
S''
sS'INCIDENT INSTRUMENT ID'
p404
S'TRUCKBOMB TRUCK TRUCK RIGGED WITH DYNAMITE'
p405
sS'INCIDENT INSTRUMENT TYPE'
p406
S'VEHICLE BOMB TRUCKBOMB TRUCK TRUCK RIGGED WITH DYNAMITE'
p407
sS'PHYS TGT FOREIGN NATION'
p408
S''
sS'HUM TGT NUMBER'
p409
S'23 PEOPLE'
p410
sS'PHYS TGT TYPE'
p411
S'LAW ENFORCEMENT FACILITY FEDERAL POLICE BUILDING'
p412
sS'HUM TGT NAME'
p413
S''
sS'INCIDENT TYPE'
p414
S'BOMBING'
p415
sS'PHYS TGT NUMBER'
p416
S'1 FEDERAL POLICE BUILDING'
p417
sS'PERP INDIVIDUAL ID'
p418
S''
sS'INCIDENT STAGE OF EXECUTION'
p419
S'ACCOMPLISHED'
p420
sS'HUM TGT DESCRIPTION'
p421
S'PEOPLE'
p422
sS'PHYS TGT EFFECT OF INCIDENT'
p423
S''
sS'HUM TGT FOREIGN NATION'
p424
S''
sS'INCIDENT DATE'
p425
S'08 DEC 89'
p426
sS'MESSAGE TEMPLATE'
p427
S'1'
sS'PHYS TGT TOTAL NUMBER'
p428
S''
ssS'TST2MUC40016'
p429
(dp430
S'PERP ORGANIZATION CONFIDENCE'
p431
S''
sS'HUM TGT EFFECT OF INCIDENT'
p432
S''
sS'INCIDENT LOCATION'
p433
S''
sS'PHYS TGT ID'
p434
S''
sS'PERP INCIDENT CATEGORY'
p435
S''
sS'PERP ORGANIZATION ID'
p436
S''
sS'HUM TGT TYPE'
p437
S''
sS'HUM TGT TOTAL NUMBER'
p438
S''
sS'INCIDENT INSTRUMENT ID'
p439
S''
sS'INCIDENT INSTRUMENT TYPE'
p440
S''
sS'PHYS TGT FOREIGN NATION'
p441
S''
sS'HUM TGT NUMBER'
p442
S''
sS'PHYS TGT TYPE'
p443
S''
sS'HUM TGT NAME'
p444
S''
sS'INCIDENT TYPE'
p445
S''
sS'PHYS TGT NUMBER'
p446
S''
sS'PERP INDIVIDUAL ID'
p447
S''
sS'INCIDENT STAGE OF EXECUTION'
p448
S''
sS'HUM TGT DESCRIPTION'
p449
S''
sS'PHYS TGT EFFECT OF INCIDENT'
p450
S''
sS'HUM TGT FOREIGN NATION'
p451
S''
sS'INCIDENT DATE'
p452
S''
sS'MESSAGE TEMPLATE'
p453
S''
sS'PHYS TGT TOTAL NUMBER'
p454
S''
ssS'TST2MUC40011'
p455
(dp456
S'PERP ORGANIZATION CONFIDENCE'
p457
S'SUSPECTED OR ACCUSED BY AUTHORITIES REPORTED AS FACT ARMED FORCES SALVADORAN ARMY ARMY'
p458
sS'HUM TGT EFFECT OF INCIDENT'
p459
S'DEATH JESUIT PRIESTS JESUITS PRIESTS'
p460
sS'INCIDENT LOCATION'
p461
S'EL SALVADOR'
p462
sS'PHYS TGT ID'
p463
S''
sS'PERP INCIDENT CATEGORY'
p464
S'STATESPONSORED VIOLENCE'
p465
sS'PERP ORGANIZATION ID'
p466
S'ARMED FORCES SALVADORAN ARMY ARMY'
p467
sS'HUM TGT TYPE'
p468
S'CIVILIAN JESUIT PRIESTS JESUITS PRIESTS'
p469
sS'HUM TGT TOTAL NUMBER'
p470
S''
sS'INCIDENT INSTRUMENT ID'
p471
S''
sS'INCIDENT INSTRUMENT TYPE'
p472
S''
sS'PHYS TGT FOREIGN NATION'
p473
S''
sS'HUM TGT NUMBER'
p474
S'6 JESUIT PRIESTS JESUITS PRIESTS'
p475
sS'PHYS TGT TYPE'
p476
S''
sS'HUM TGT NAME'
p477
S''
sS'INCIDENT TYPE'
p478
S'ATTACK'
p479
sS'PHYS TGT NUMBER'
p480
S''
sS'PERP INDIVIDUAL ID'
p481
S'COLONEL GUILLERMO ALFREDO BENAVIDES MORENO'
p482
sS'INCIDENT STAGE OF EXECUTION'
p483
S'ACCOMPLISHED'
p484
sS'HUM TGT DESCRIPTION'
p485
S'JESUIT PRIESTS JESUITS PRIESTS'
p486
sS'PHYS TGT EFFECT OF INCIDENT'
p487
S''
sS'HUM TGT FOREIGN NATION'
p488
S''
sS'INCIDENT DATE'
p489
S'07 FEB 90'
p490
sS'MESSAGE TEMPLATE'
p491
S'1'
sS'PHYS TGT TOTAL NUMBER'
p492
S''
ssS'TST2MUC40010'
p493
(dp494
S'PERP ORGANIZATION CONFIDENCE'
p495
S''
sS'HUM TGT EFFECT OF INCIDENT'
p496
S''
sS'INCIDENT LOCATION'
p497
S'COLOMBIA BOGOTA CITY'
p498
sS'PHYS TGT ID'
p499
S'NEWSPAPER'
p500
sS'PERP INCIDENT CATEGORY'
p501
S'TERRORIST ACT'
p502
sS'PERP ORGANIZATION ID'
p503
S''
sS'HUM TGT TYPE'
p504
S''
sS'HUM TGT TOTAL NUMBER'
p505
S''
sS'INCIDENT INSTRUMENT ID'
p506
S''
sS'INCIDENT INSTRUMENT TYPE'
p507
S'EXPLOSIVE'
p508
sS'PHYS TGT FOREIGN NATION'
p509
S''
sS'HUM TGT NUMBER'
p510
S''
sS'PHYS TGT TYPE'
p511
S'COMMUNICATIONS COMMERCIAL NEWSPAPER'
p512
sS'HUM TGT NAME'
p513
S''
sS'INCIDENT TYPE'
p514
S'BOMBING'
p515
sS'PHYS TGT NUMBER'
p516
S'1 NEWSPAPER'
p517
sS'PERP INDIVIDUAL ID'
p518
S''
sS'INCIDENT STAGE OF EXECUTION'
p519
S'ACCOMPLISHED'
p520
sS'HUM TGT DESCRIPTION'
p521
S''
sS'PHYS TGT EFFECT OF INCIDENT'
p522
S'DESTROYED NEWSPAPER'
p523
sS'HUM TGT FOREIGN NATION'
p524
S''
sS'INCIDENT DATE'
p525
S''
sS'MESSAGE TEMPLATE'
p526
S'1'
sS'PHYS TGT TOTAL NUMBER'
p527
S''
ssS'TST2MUC40013'
p528
(dp529
S'PERP ORGANIZATION CONFIDENCE'
p530
S'POSSIBLE COLOMBIAN MILITARY'
p531
sS'HUM TGT EFFECT OF INCIDENT'
p532
S'REGAINED FREEDOM EDWIN RODRIGO TENEDA PARRENO'
p533
sS'INCIDENT LOCATION'
p534
S'ECUADOR SUCUMBIOS PROVINCE BERMEJA RIVER'
p535
sS'PHYS TGT ID'
p536
S''
sS'PERP INCIDENT CATEGORY'
p537
S'STATESPONSORED VIOLENCE'
p538
sS'PERP ORGANIZATION ID'
p539
S'COLOMBIAN MILITARY'
p540
sS'HUM TGT TYPE'
p541
S'CIVILIAN SCOTT HEYNDAL'
p542
sS'HUM TGT TOTAL NUMBER'
p543
S''
sS'INCIDENT INSTRUMENT ID'
p544
S''
sS'INCIDENT INSTRUMENT TYPE'
p545
S''
sS'PHYS TGT FOREIGN NATION'
p546
S''
sS'HUM TGT NUMBER'
p547
S'1 SCOTT HEYNDAL'
p548
sS'PHYS TGT TYPE'
p549
S''
sS'HUM TGT NAME'
p550
S'SCOTT HEYNDAL'
p551
sS'INCIDENT TYPE'
p552
S'KIDNAPPING'
p553
sS'PHYS TGT NUMBER'
p554
S''
sS'PERP INDIVIDUAL ID'
p555
S'ATTACKERS ATTACKERS WHO WORE FIELD UNIFORMS OF THE COLOMBIAN MILITARY'
p556
sS'INCIDENT STAGE OF EXECUTION'
p557
S'ACCOMPLISHED'
p558
sS'EDWIN RODRIGO TENEDA PARRENO'
p559
S''
sS'HUM TGT DESCRIPTION'
p560
S''
sS'PHYS TGT EFFECT OF INCIDENT'
p561
S''
sS'HUM TGT FOREIGN NATION'
p562
S'UNITED STATES SCOTT HEYNDAL'
p563
sS'INCIDENT DATE'
p564
S'30 APR 90'
p565
sS'MESSAGE TEMPLATE'
p566
S'3'
sS'PHYS TGT TOTAL NUMBER'
p567
S''
ssS'TST2MUC40012'
p568
(dp569
S'PERP ORGANIZATION CONFIDENCE'
p570
S''
sS'HUM TGT EFFECT OF INCIDENT'
p571
S'DEATH JECAR NEGHME'
p572
sS'INCIDENT LOCATION'
p573
S'CHILE SANTIAGO CITY'
p574
sS'PHYS TGT ID'
p575
S''
sS'PERP INCIDENT CATEGORY'
p576
S''
sS'PERP ORGANIZATION ID'
p577
S''
sS'HUM TGT TYPE'
p578
S'POLITICAL FIGURE JECAR NEGHME'
p579
sS'HUM TGT TOTAL NUMBER'
p580
S''
sS'INCIDENT INSTRUMENT ID'
p581
S''
sS'INCIDENT INSTRUMENT TYPE'
p582
S''
sS'PHYS TGT FOREIGN NATION'
p583
S''
sS'HUM TGT NUMBER'
p584
S'1 JECAR NEGHME'
p585
sS'PHYS TGT TYPE'
p586
S''
sS'HUM TGT NAME'
p587
S'JECAR NEGHME'
p588
sS'INCIDENT TYPE'
p589
S'ATTACK'
p590
sS'PHYS TGT NUMBER'
p591
S''
sS'PERP INDIVIDUAL ID'
p592
S''
sS'INCIDENT STAGE OF EXECUTION'
p593
S'ACCOMPLISHED'
p594
sS'HUM TGT DESCRIPTION'
p595
S'SPOKESMAN OF THE MIR SPOKESMAN OF THE MIR MOVEMENT OF THE REVOLUTIONARY LEFT JECAR NEGHME'
p596
sS'PHYS TGT EFFECT OF INCIDENT'
p597
S''
sS'HUM TGT FOREIGN NATION'
p598
S''
sS'INCIDENT DATE'
p599
S'06 SEP 89'
p600
sS'MESSAGE TEMPLATE'
p601
S'1'
sS'PHYS TGT TOTAL NUMBER'
p602
S''
ssS'TST2MUC40019'
p603
(dp604
S'PERP ORGANIZATION CONFIDENCE'
p605
S'SUSPECTED OR ACCUSED BY AUTHORITIES FARABUNDO MARTI NATIONAL LIBERATION FRONT FMLN'
p606
sS'HUM TGT EFFECT OF INCIDENT'
p607
S'DEATH ROBERTO ARMANDO RIVERA ESCOBAR'
p608
sS'INCIDENT LOCATION'
p609
S'EL SALVADOR'
p610
sS'PHYS TGT ID'
p611
S''
sS'PERP INCIDENT CATEGORY'
p612
S'TERRORIST ACT'
p613
sS'PERP ORGANIZATION ID'
p614
S'FARABUNDO MARTI NATIONAL LIBERATION FRONT FMLN'
p615
sS'HUM TGT TYPE'
p616
S'GOVERNMENT OFFICIAL CIVILIAN ACTIVE MILITARY ROBERTO ARMANDO RIVERA ESCOBAR'
p617
sS'HUM TGT TOTAL NUMBER'
p618
S''
sS'INCIDENT INSTRUMENT ID'
p619
S'MACHINEGUN'
p620
sS'INCIDENT INSTRUMENT TYPE'
p621
S'MACHINE GUN MACHINEGUN'
p622
sS'PHYS TGT FOREIGN NATION'
p623
S''
sS'HUM TGT NUMBER'
p624
S'1 ROBERTO ARMANDO RIVERA ESCOBAR'
p625
sS'PHYS TGT TYPE'
p626
S''
sS'HUM TGT NAME'
p627
S'ROBERTO ARMANDO RIVERA ESCOBAR'
p628
sS'INCIDENT TYPE'
p629
S'ATTACK'
p630
sS'PHYS TGT NUMBER'
p631
S''
sS'PERP INDIVIDUAL ID'
p632
S''
sS'INCIDENT STAGE OF EXECUTION'
p633
S'ACCOMPLISHED'
p634
sS'HUM TGT DESCRIPTION'
p635
S'NATIONAL FIRE DEPARTMENT DIRECTOR COLONEL NATIONAL FIRE DEPARTMENT DIRECTOR COLONEL ROBERTO ARMANDO RIVERA ESCOBAR'
p636
sS'PHYS TGT EFFECT OF INCIDENT'
p637
S''
sS'HUM TGT FOREIGN NATION'
p638
S''
sS'INCIDENT DATE'
p639
S'26 JUN 89'
p640
sS'MESSAGE TEMPLATE'
p641
S'1 OPTIONAL'
p642
sS'PHYS TGT TOTAL NUMBER'
p643
S''
ssS'TST2MUC40018'
p644
(dp645
S'PERP ORGANIZATION CONFIDENCE'
p646
S'POSSIBLE ARMED FORCES'
p647
sS'HUM TGT EFFECT OF INCIDENT'
p648
S'DEATH ROMERO'
p649
sS'INCIDENT LOCATION'
p650
S'EL SALVADOR EL SALVADOR SAN SALVADOR CITY'
p651
sS'PHYS TGT ID'
p652
S''
sS'PERP INCIDENT CATEGORY'
p653
S'STATESPONSORED VIOLENCE'
p654
sS'PERP ORGANIZATION ID'
p655
S'ARMED FORCES'
p656
sS'HUM TGT TYPE'
p657
S'CIVILIAN ROMERO'
p658
sS'HUM TGT TOTAL NUMBER'
p659
S''
sS'INCIDENT INSTRUMENT ID'
p660
S''
sS'INCIDENT INSTRUMENT TYPE'
p661
S''
sS'PHYS TGT FOREIGN NATION'
p662
S''
sS'HUM TGT NUMBER'
p663
S'1 ROMERO'
p664
sS'PHYS TGT TYPE'
p665
S''
sS'HUM TGT NAME'
p666
S'ROMERO'
p667
sS'INCIDENT TYPE'
p668
S'ATTACK'
p669
sS'PHYS TGT NUMBER'
p670
S''
sS'PERP INDIVIDUAL ID'
p671
S'ASSASSINS'
p672
sS'INCIDENT STAGE OF EXECUTION'
p673
S'ACCOMPLISHED'
p674
sS'HUM TGT DESCRIPTION'
p675
S'MSGR ROMERO'
p676
sS'PHYS TGT EFFECT OF INCIDENT'
p677
S''
sS'HUM TGT FOREIGN NATION'
p678
S''
sS'INCIDENT DATE'
p679
S'12 NOV 89'
p680
sS'MESSAGE TEMPLATE'
p681
S'1 OPTIONAL'
p682
sS'PHYS TGT TOTAL NUMBER'
p683
S''
ssS'TST2MUC40060'
p684
(dp685
S'PERP ORGANIZATION CONFIDENCE'
p686
S''
sS'HUM TGT EFFECT OF INCIDENT'
p687
S''
sS'INCIDENT LOCATION'
p688
S''
sS'PHYS TGT ID'
p689
S''
sS'PERP INCIDENT CATEGORY'
p690
S''
sS'PERP ORGANIZATION ID'
p691
S''
sS'HUM TGT TYPE'
p692
S''
sS'HUM TGT TOTAL NUMBER'
p693
S''
sS'INCIDENT INSTRUMENT ID'
p694
S''
sS'INCIDENT INSTRUMENT TYPE'
p695
S''
sS'PHYS TGT FOREIGN NATION'
p696
S''
sS'HUM TGT NUMBER'
p697
S''
sS'PHYS TGT TYPE'
p698
S''
sS'HUM TGT NAME'
p699
S''
sS'INCIDENT TYPE'
p700
S''
sS'PHYS TGT NUMBER'
p701
S''
sS'PERP INDIVIDUAL ID'
p702
S''
sS'INCIDENT STAGE OF EXECUTION'
p703
S''
sS'HUM TGT DESCRIPTION'
p704
S''
sS'PHYS TGT EFFECT OF INCIDENT'
p705
S''
sS'HUM TGT FOREIGN NATION'
p706
S''
sS'INCIDENT DATE'
p707
S''
sS'MESSAGE TEMPLATE'
p708
S''
sS'PHYS TGT TOTAL NUMBER'
p709
S''
ssS'TST2MUC40061'
p710
(dp711
S'PERP ORGANIZATION CONFIDENCE'
p712
S''
sS'HUM TGT EFFECT OF INCIDENT'
p713
S'NO INJURY OR DEATH NO DEATH EMPLOYEES'
p714
sS'INCIDENT LOCATION'
p715
S'COLOMBIA BOGOTA CITY'
p716
sS'PHYS TGT ID'
p717
S'NEWSPAPER EL SIGLOS FACILITIES'
p718
sS'PERP INCIDENT CATEGORY'
p719
S'TERRORIST ACT'
p720
sS'PERP ORGANIZATION ID'
p721
S''
sS'HUM TGT TYPE'
p722
S'CIVILIAN EMPLOYEES'
p723
sS'HUM TGT TOTAL NUMBER'
p724
S''
sS'INCIDENT INSTRUMENT ID'
p725
S''
sS'INCIDENT INSTRUMENT TYPE'
p726
S'GUN'
p727
sS'PHYS TGT FOREIGN NATION'
p728
S''
sS'HUM TGT NUMBER'
p729
S'1 HIPOLITO HINCAPIE'
p730
sS'PHYS TGT TYPE'
p731
S'COMMERCIAL COMMUNICATIONS NEWSPAPER EL SIGLOS FACILITIES'
p732
sS'HUM TGT NAME'
p733
S'HIPOLITO HINCAPIE'
p734
sS'INCIDENT TYPE'
p735
S'ATTACK'
p736
sS'PHYS TGT NUMBER'
p737
S'1 PLURAL NEWSPAPER EL SIGLOS FACILITIES'
p738
sS'PERP INDIVIDUAL ID'
p739
S'ARMED INDIVIDUALS INDIVIDUALS INDIVIDUALS IN A BLUE RENAULT 12'
p740
sS'INCIDENT STAGE OF EXECUTION'
p741
S'ACCOMPLISHED'
p742
sS'HUM TGT DESCRIPTION'
p743
S'EL SIGLO EDITOR EDITOR HIPOLITO HINCAPIE'
p744
sS'PHYS TGT EFFECT OF INCIDENT'
p745
S'SOME DAMAGE NEWSPAPER EL SIGLOS FACILITIES'
p746
sS'HUM TGT FOREIGN NATION'
p747
S''
sS'INCIDENT DATE'
p748
S'16 SEP 89 15 SEP 89 16 SEP 89'
p749
sS'MESSAGE TEMPLATE'
p750
S'1'
sS'PHYS TGT TOTAL NUMBER'
p751
S''
ssS'TST2MUC40062'
p752
(dp753
S'PERP ORGANIZATION CONFIDENCE'
p754
S''
sS'HUM TGT EFFECT OF INCIDENT'
p755
S''
sS'INCIDENT LOCATION'
p756
S''
sS'PHYS TGT ID'
p757
S''
sS'PERP INCIDENT CATEGORY'
p758
S''
sS'PERP ORGANIZATION ID'
p759
S''
sS'HUM TGT TYPE'
p760
S''
sS'HUM TGT TOTAL NUMBER'
p761
S''
sS'INCIDENT INSTRUMENT ID'
p762
S''
sS'INCIDENT INSTRUMENT TYPE'
p763
S''
sS'PHYS TGT FOREIGN NATION'
p764
S''
sS'HUM TGT NUMBER'
p765
S''
sS'PHYS TGT TYPE'
p766
S''
sS'HUM TGT NAME'
p767
S''
sS'INCIDENT TYPE'
p768
S''
sS'PHYS TGT NUMBER'
p769
S''
sS'PERP INDIVIDUAL ID'
p770
S''
sS'INCIDENT STAGE OF EXECUTION'
p771
S''
sS'HUM TGT DESCRIPTION'
p772
S''
sS'PHYS TGT EFFECT OF INCIDENT'
p773
S''
sS'HUM TGT FOREIGN NATION'
p774
S''
sS'INCIDENT DATE'
p775
S''
sS'MESSAGE TEMPLATE'
p776
S''
sS'PHYS TGT TOTAL NUMBER'
p777
S''
ssS'TST2MUC40063'
p778
(dp779
S'PERP ORGANIZATION CONFIDENCE'
p780
S''
sS'HUM TGT EFFECT OF INCIDENT'
p781
S'DEATH UNION LEADERS'
p782
sS'INCIDENT LOCATION'
p783
S'EL SALVADOR SAN SALVADOR CITY EL SALVADOR'
p784
sS'PHYS TGT ID'
p785
S'UNION HEADQUARTERS'
p786
sS'PERP INCIDENT CATEGORY'
p787
S''
sS'PERP ORGANIZATION ID'
p788
S''
sS'HUM TGT TYPE'
p789
S'CIVILIAN UNION LEADERS'
p790
sS'HUM TGT TOTAL NUMBER'
p791
S''
sS'INCIDENT INSTRUMENT ID'
p792
S''
sS'INCIDENT INSTRUMENT TYPE'
p793
S''
sS'PHYS TGT FOREIGN NATION'
p794
S''
sS'HUM TGT NUMBER'
p795
S'10 UNION LEADERS'
p796
sS'PHYS TGT TYPE'
p797
S'ORGANIZATION OFFICE UNION HEADQUARTERS'
p798
sS'HUM TGT NAME'
p799
S''
sS'INCIDENT TYPE'
p800
S'ATTACK'
p801
sS'PHYS TGT NUMBER'
p802
S'1 UNION HEADQUARTERS'
p803
sS'PERP INDIVIDUAL ID'
p804
S''
sS'INCIDENT STAGE OF EXECUTION'
p805
S'ACCOMPLISHED'
p806
sS'HUM TGT DESCRIPTION'
p807
S'UNION LEADERS'
p808
sS'PHYS TGT EFFECT OF INCIDENT'
p809
S''
sS'HUM TGT FOREIGN NATION'
p810
S''
sS'INCIDENT DATE'
p811
S'31 OCT 89'
p812
sS'MESSAGE TEMPLATE'
p813
S'2'
sS'PHYS TGT TOTAL NUMBER'
p814
S''
ssS'TST2MUC40064'
p815
(dp816
S'PERP ORGANIZATION CONFIDENCE'
p817
S''
sS'HUM TGT EFFECT OF INCIDENT'
p818
S'NO RESIGNATION MONICA DE GREIFF'
p819
sS'MIGUEL JOSE'
p820
S''
sS'INCIDENT LOCATION'
p821
S'COLOMBIA'
p822
sS'PHYS TGT ID'
p823
S''
sS'PERP INCIDENT CATEGORY'
p824
S'TERRORIST ACT'
p825
sS'FAMILY HER FAMILY'
p826
S''
sS'PERP ORGANIZATION ID'
p827
S''
sS'HUM TGT TYPE'
p828
S'LEGAL OR JUDICIAL GOVERNMENT OFFICIAL MONICA DE GREIFF'
p829
sS'HUM TGT TOTAL NUMBER'
p830
S''
sS'INCIDENT INSTRUMENT ID'
p831
S''
sS'INCIDENT INSTRUMENT TYPE'
p832
S''
sS'PHYS TGT FOREIGN NATION'
p833
S''
sS'HUM TGT NUMBER'
p834
S'1 MONICA DE GREIFF'
p835
sS'PHYS TGT TYPE'
p836
S''
sS'HUM TGT NAME'
p837
S'MONICA DE GREIFF'
p838
sS'INCIDENT TYPE'
p839
S'ATTACK'
p840
sS'PHYS TGT NUMBER'
p841
S''
sS'PERP INDIVIDUAL ID'
p842
S'DRUG TRAFFICKERS'
p843
sS'INCIDENT STAGE OF EXECUTION'
p844
S'THREATENED'
p845
sS'HUM TGT DESCRIPTION'
p846
S'JUSTICE MINISTER MONICA DE GREIFF'
p847
sS'PHYS TGT EFFECT OF INCIDENT'
p848
S''
sS'HUM TGT FOREIGN NATION'
p849
S''
sS'INCIDENT DATE'
p850
S'11 SEP 89 10 SEP 89'
p851
sS'MESSAGE TEMPLATE'
p852
S'1'
sS'PHYS TGT TOTAL NUMBER'
p853
S''
ssS'TST2MUC40065'
p854
(dp855
S'PERP ORGANIZATION CONFIDENCE'
p856
S''
sS'HUM TGT EFFECT OF INCIDENT'
p857
S''
sS'INCIDENT LOCATION'
p858
S''
sS'PHYS TGT ID'
p859
S''
sS'PERP INCIDENT CATEGORY'
p860
S''
sS'PERP ORGANIZATION ID'
p861
S''
sS'HUM TGT TYPE'
p862
S''
sS'HUM TGT TOTAL NUMBER'
p863
S''
sS'INCIDENT INSTRUMENT ID'
p864
S''
sS'INCIDENT INSTRUMENT TYPE'
p865
S''
sS'PHYS TGT FOREIGN NATION'
p866
S''
sS'HUM TGT NUMBER'
p867
S''
sS'PHYS TGT TYPE'
p868
S''
sS'HUM TGT NAME'
p869
S''
sS'INCIDENT TYPE'
p870
S''
sS'PHYS TGT NUMBER'
p871
S''
sS'PERP INDIVIDUAL ID'
p872
S''
sS'INCIDENT STAGE OF EXECUTION'
p873
S''
sS'HUM TGT DESCRIPTION'
p874
S''
sS'PHYS TGT EFFECT OF INCIDENT'
p875
S''
sS'HUM TGT FOREIGN NATION'
p876
S''
sS'INCIDENT DATE'
p877
S''
sS'MESSAGE TEMPLATE'
p878
S''
sS'PHYS TGT TOTAL NUMBER'
p879
S''
ssS'TST2MUC40066'
p880
(dp881
S'PERP ORGANIZATION CONFIDENCE'
p882
S''
sS'HUM TGT EFFECT OF INCIDENT'
p883
S''
sS'INCIDENT LOCATION'
p884
S''
sS'PHYS TGT ID'
p885
S''
sS'PERP INCIDENT CATEGORY'
p886
S''
sS'PERP ORGANIZATION ID'
p887
S''
sS'HUM TGT TYPE'
p888
S''
sS'HUM TGT TOTAL NUMBER'
p889
S''
sS'INCIDENT INSTRUMENT ID'
p890
S''
sS'INCIDENT INSTRUMENT TYPE'
p891
S''
sS'PHYS TGT FOREIGN NATION'
p892
S''
sS'HUM TGT NUMBER'
p893
S''
sS'PHYS TGT TYPE'
p894
S''
sS'HUM TGT NAME'
p895
S''
sS'INCIDENT TYPE'
p896
S''
sS'PHYS TGT NUMBER'
p897
S''
sS'PERP INDIVIDUAL ID'
p898
S''
sS'INCIDENT STAGE OF EXECUTION'
p899
S''
sS'HUM TGT DESCRIPTION'
p900
S''
sS'PHYS TGT EFFECT OF INCIDENT'
p901
S''
sS'HUM TGT FOREIGN NATION'
p902
S''
sS'INCIDENT DATE'
p903
S''
sS'MESSAGE TEMPLATE'
p904
S''
sS'PHYS TGT TOTAL NUMBER'
p905
S''
ssS'TST2MUC40067'
p906
(dp907
S'PERP ORGANIZATION CONFIDENCE'
p908
S'REPORTED AS FACT FMLN'
p909
sS'HUM TGT EFFECT OF INCIDENT'
p910
S''
sS'INCIDENT LOCATION'
p911
S'EL SALVADOR'
p912
sS'PHYS TGT ID'
p913
S''
sS'PERP INCIDENT CATEGORY'
p914
S'TERRORIST ACT'
p915
sS'PERP ORGANIZATION ID'
p916
S'FMLN'
p917
sS'HUM TGT TYPE'
p918
S'GOVERNMENT OFFICIAL CIVILIAN ELECTION OFFICIALS'
p919
sS'HUM TGT TOTAL NUMBER'
p920
S''
sS'INCIDENT INSTRUMENT ID'
p921
S''
sS'INCIDENT INSTRUMENT TYPE'
p922
S''
sS'PHYS TGT FOREIGN NATION'
p923
S''
sS'HUM TGT NUMBER'
p924
S'PLURAL ELECTION OFFICIALS'
p925
sS'PHYS TGT TYPE'
p926
S''
sS'HUM TGT NAME'
p927
S''
sS'INCIDENT TYPE'
p928
S'ATTACK'
p929
sS'PHYS TGT NUMBER'
p930
S''
sS'PERP INDIVIDUAL ID'
p931
S'SALVADORAN REBELS REBELS'
p932
sS'INCIDENT STAGE OF EXECUTION'
p933
S'THREATENED'
p934
sS'HUM TGT DESCRIPTION'
p935
S'ELECTION OFFICIALS'
p936
sS'PHYS TGT EFFECT OF INCIDENT'
p937
S''
sS'HUM TGT FOREIGN NATION'
p938
S''
sS'INCIDENT DATE'
p939
S'12 MAR 89'
p940
sS'MESSAGE TEMPLATE'
p941
S'3'
sS'PHYS TGT TOTAL NUMBER'
p942
S''
ssS'TST2MUC40068'
p943
(dp944
S'17YEAROLD'
p945
S''
sS'PERP ORGANIZATION CONFIDENCE'
p946
S'CLAIMED OR ADMITTED GUATEMALAN ARMY ARMY'
p947
sS'HUM TGT EFFECT OF INCIDENT'
p948
S'DEATH PEASANTS CIVIL SELFDEFENSE PATROL PAC MEMBERS CIVILIAN PATROL CIVILIAN PATROL UNIT CIVILIANS INDIAN PEASANTS PAC PATROL'
p949
sS'INCIDENT LOCATION'
p950
S'GUATEMALA COBAN CITY LA PROVIDENCIA COMMUNITY GUATEMALA COBAN MILITARY BASE LA PROVIDENCIA COMMUNITY GUATEMALA LA PROVIDENCIA COMMUNITY'
p951
sS'PHYS TGT ID'
p952
S''
sS'PERP INCIDENT CATEGORY'
p953
S'STATESPONSORED VIOLENCE'
p954
sS'PERP ORGANIZATION ID'
p955
S'GUATEMALAN ARMY ARMY'
p956
sS'HUM TGT TYPE'
p957
S'CIVILIAN PEASANTS CIVIL SELFDEFENSE PATROL PAC MEMBERS CIVILIAN PATROL CIVILIAN PATROL UNIT CIVILIANS INDIAN PEASANTS PAC PATROL'
p958
sS'HUM TGT TOTAL NUMBER'
p959
S'70'
p960
sS'INCIDENT INSTRUMENT ID'
p961
S''
sS'INCIDENT INSTRUMENT TYPE'
p962
S'GUN'
p963
sS'PHYS TGT FOREIGN NATION'
p964
S''
sS'HUM TGT NUMBER'
p965
S'70 PEASANTS CIVIL SELFDEFENSE PATROL PAC MEMBERS CIVILIAN PATROL CIVILIAN PATROL UNIT CIVILIANS INDIAN PEASANTS PAC PATROL'
p966
sS'PHYS TGT TYPE'
p967
S''
sS'HUM TGT NAME'
p968
S''
sS'INCIDENT TYPE'
p969
S'ATTACK'
p970
sS'PHYS TGT NUMBER'
p971
S''
sS'PERP INDIVIDUAL ID'
p972
S'GUATEMALAN ARMY TROOPS SOLDIERS NORTHEASTERN COBAN BASE TROOPS ARMY TROOPS TROOPS'
p973
sS'INCIDENT STAGE OF EXECUTION'
p974
S'ACCOMPLISHED'
p975
sS'HUM TGT DESCRIPTION'
p976
S'PEASANTS CIVIL SELFDEFENSE PATROL PAC MEMBERS CIVILIAN PATROL CIVILIAN PATROL UNIT CIVILIANS INDIAN PEASANTS PAC PATROL'
p977
sS'PHYS TGT EFFECT OF INCIDENT'
p978
S''
sS'HUM TGT FOREIGN NATION'
p979
S''
sS'INCIDENT DATE'
p980
S'17 AUG 89'
p981
sS'MESSAGE TEMPLATE'
p982
S'1'
sS'PEASANTS CIVIL SELFDEFENSE'
p983
S'PATROL PAC MEMBERS CIVILIAN PATROL CIVILIAN PATROL UNIT CIVILIANS INDIAN PEASANTS PAC PATROL'
p984
sS'PHYS TGT TOTAL NUMBER'
p985
S''
ssS'TST2MUC40069'
p986
(dp987
S'PERP ORGANIZATION CONFIDENCE'
p988
S''
sS'HUM TGT EFFECT OF INCIDENT'
p989
S'INJURY POLICEMAN'
p990
sS'INCIDENT LOCATION'
p991
S'COLOMBIA MEDELLIN CITY'
p992
sS'PHYS TGT ID'
p993
S'FASTFOOD RESTAURANT PRESTO INSTALLATIONS RESTAURANT'
p994
sS'PERP INCIDENT CATEGORY'
p995
S'TERRORIST ACT'
p996
sS'PERP ORGANIZATION ID'
p997
S''
sS'HUM TGT TYPE'
p998
S'CIVILIAN PEOPLE'
p999
sS'HUM TGT TOTAL NUMBER'
p1000
S''
sS'INCIDENT INSTRUMENT ID'
p1001
S'BOMB MEDIUMSIZED BOMB'
p1002
sS'INCIDENT INSTRUMENT TYPE'
p1003
S'BOMB BOMB MEDIUMSIZED BOMB'
p1004
sS'PHYS TGT FOREIGN NATION'
p1005
S''
sS'POLICEMAN'
p1006
S''
sS'HUM TGT NUMBER'
p1007
S'35 PEOPLE'
p1008
sS'PHYS TGT TYPE'
p1009
S'COMMERCIAL FASTFOOD RESTAURANT PRESTO INSTALLATIONS RESTAURANT'
p1010
sS'HUM TGT NAME'
p1011
S''
sS'INCIDENT TYPE'
p1012
S'BOMBING'
p1013
sS'PHYS TGT NUMBER'
p1014
S'1 FASTFOOD RESTAURANT PRESTO INSTALLATIONS RESTAURANT'
p1015
sS'PERP INDIVIDUAL ID'
p1016
S'TWO MEN MEN'
p1017
sS'INCIDENT STAGE OF EXECUTION'
p1018
S'ACCOMPLISHED'
p1019
sS'HUM TGT DESCRIPTION'
p1020
S'PEOPLE'
p1021
sS'PHYS TGT EFFECT OF INCIDENT'
p1022
S'SOME DAMAGE FASTFOOD RESTAURANT PRESTO INSTALLATIONS RESTAURANT'
p1023
sS'HUM TGT FOREIGN NATION'
p1024
S''
sS'INCIDENT DATE'
p1025
S'07 SEP 89'
p1026
sS'MESSAGE TEMPLATE'
p1027
S'2'
sS'PHYS TGT TOTAL NUMBER'
p1028
S''
ssS'TST2MUC40073'
p1029
(dp1030
S'PERP ORGANIZATION CONFIDENCE'
p1031
S''
sS'HUM TGT EFFECT OF INCIDENT'
p1032
S'DEATH JESUITS JESUIT PRIESTS PRIESTS'
p1033
sS'INCIDENT LOCATION'
p1034
S'EL SALVADOR'
p1035
sS'PHYS TGT ID'
p1036
S''
sS'PERP INCIDENT CATEGORY'
p1037
S'STATESPONSORED VIOLENCE'
p1038
sS'PERP ORGANIZATION ID'
p1039
S''
sS'HUM TGT TYPE'
p1040
S'CIVILIAN JESUITS JESUIT PRIESTS PRIESTS'
p1041
sS'HUM TGT TOTAL NUMBER'
p1042
S''
sS'INCIDENT INSTRUMENT ID'
p1043
S''
sS'INCIDENT INSTRUMENT TYPE'
p1044
S''
sS'PHYS TGT FOREIGN NATION'
p1045
S''
sS'HUM TGT NUMBER'
p1046
S'6 JESUITS JESUIT PRIESTS PRIESTS'
p1047
sS'PHYS TGT TYPE'
p1048
S''
sS'HUM TGT NAME'
p1049
S''
sS'INCIDENT TYPE'
p1050
S'ATTACK'
p1051
sS'PHYS TGT NUMBER'
p1052
S''
sS'PERP INDIVIDUAL ID'
p1053
S'MILITARY'
p1054
sS'INCIDENT STAGE OF EXECUTION'
p1055
S'ACCOMPLISHED'
p1056
sS'HUM TGT DESCRIPTION'
p1057
S'JESUITS JESUIT PRIESTS PRIESTS'
p1058
sS'PHYS TGT EFFECT OF INCIDENT'
p1059
S''
sS'HUM TGT FOREIGN NATION'
p1060
S''
sS'INCIDENT DATE'
p1061
S'14 JAN 90'
p1062
sS'MESSAGE TEMPLATE'
p1063
S'1'
sS'PHYS TGT TOTAL NUMBER'
p1064
S''
ssS'TST2MUC40072'
p1065
(dp1066
S'PERP ORGANIZATION CONFIDENCE'
p1067
S''
sS'HUM TGT EFFECT OF INCIDENT'
p1068
S''
sS'INCIDENT LOCATION'
p1069
S''
sS'PHYS TGT ID'
p1070
S''
sS'PERP INCIDENT CATEGORY'
p1071
S''
sS'PERP ORGANIZATION ID'
p1072
S''
sS'HUM TGT TYPE'
p1073
S''
sS'HUM TGT TOTAL NUMBER'
p1074
S''
sS'INCIDENT INSTRUMENT ID'
p1075
S''
sS'INCIDENT INSTRUMENT TYPE'
p1076
S''
sS'PHYS TGT FOREIGN NATION'
p1077
S''
sS'HUM TGT NUMBER'
p1078
S''
sS'PHYS TGT TYPE'
p1079
S''
sS'HUM TGT NAME'
p1080
S''
sS'INCIDENT TYPE'
p1081
S''
sS'PHYS TGT NUMBER'
p1082
S''
sS'PERP INDIVIDUAL ID'
p1083
S''
sS'INCIDENT STAGE OF EXECUTION'
p1084
S''
sS'HUM TGT DESCRIPTION'
p1085
S''
sS'PHYS TGT EFFECT OF INCIDENT'
p1086
S''
sS'HUM TGT FOREIGN NATION'
p1087
S''
sS'INCIDENT DATE'
p1088
S''
sS'MESSAGE TEMPLATE'
p1089
S''
sS'PHYS TGT TOTAL NUMBER'
p1090
S''
ssS'TST2MUC40071'
p1091
(dp1092
S'PERP ORGANIZATION CONFIDENCE'
p1093
S''
sS'HUM TGT EFFECT OF INCIDENT'
p1094
S'DEATH JESUIT PRIESTS PRIESTS JESUITS'
p1095
sS'INCIDENT LOCATION'
p1096
S'EL SALVADOR SAN SALVADOR CITY EL SALVADOR SAN SALVADOR DEPARTMENT'
p1097
sS'PHYS TGT ID'
p1098
S''
sS'PERP INCIDENT CATEGORY'
p1099
S''
sS'PERP ORGANIZATION ID'
p1100
S''
sS'HUM TGT TYPE'
p1101
S'CIVILIAN JESUIT PRIESTS PRIESTS JESUITS'
p1102
sS'HUM TGT TOTAL NUMBER'
p1103
S''
sS'INCIDENT INSTRUMENT ID'
p1104
S''
sS'INCIDENT INSTRUMENT TYPE'
p1105
S''
sS'PHYS TGT FOREIGN NATION'
p1106
S''
sS'HUM TGT NUMBER'
p1107
S'6 JESUIT PRIESTS PRIESTS JESUITS'
p1108
sS'PHYS TGT TYPE'
p1109
S''
sS'HUM TGT NAME'
p1110
S''
sS'INCIDENT TYPE'
p1111
S'ATTACK'
p1112
sS'PHYS TGT NUMBER'
p1113
S''
sS'PERP INDIVIDUAL ID'
p1114
S''
sS'INCIDENT STAGE OF EXECUTION'
p1115
S'ACCOMPLISHED'
p1116
sS'HUM TGT DESCRIPTION'
p1117
S'JESUIT PRIESTS PRIESTS JESUITS'
p1118
sS'PHYS TGT EFFECT OF INCIDENT'
p1119
S''
sS'HUM TGT FOREIGN NATION'
p1120
S''
sS'INCIDENT DATE'
p1121
S'16 NOV 89'
p1122
sS'MESSAGE TEMPLATE'
p1123
S'1'
sS'PHYS TGT TOTAL NUMBER'
p1124
S''
ssS'TST2MUC40070'
p1125
(dp1126
S'PERP ORGANIZATION CONFIDENCE'
p1127
S'REPORTED AS FACT FEDERATION OF COMMITTEES OF MOTHERS AND RELATIVES FECMAFAM MSGR OSCAR ARNULFO ROMERO FEDERATION OF COMMITTEES OF MOTHERS AND RELATIVES FECMAFAM OF POLITICAL PRISONERS AND MURDERED AND MISSING PEOPLE'
p1128
sS'HUM TGT EFFECT OF INCIDENT'
p1129
S'REGAINED FREEDOM PEOPLE'
p1130
sS'INCIDENT LOCATION'
p1131
S'EL SALVADOR SAN SALVADOR CITY'
p1132
sS'PHYS TGT ID'
p1133
S''
sS'PERP INCIDENT CATEGORY'
p1134
S'TERRORIST ACT'
p1135
sS'PERP ORGANIZATION ID'
p1136
S'FEDERATION OF COMMITTEES OF MOTHERS AND RELATIVES FECMAFAM MSGR OSCAR ARNULFO ROMERO FEDERATION OF COMMITTEES OF MOTHERS AND RELATIVES FECMAFAM OF POLITICAL PRISONERS AND MURDERED AND MISSING PEOPLE'
p1137
sS'HUM TGT TYPE'
p1138
S'CIVILIAN PEOPLE'
p1139
sS'HUM TGT TOTAL NUMBER'
p1140
S''
sS'INCIDENT INSTRUMENT ID'
p1141
S''
sS'INCIDENT INSTRUMENT TYPE'
p1142
S''
sS'PHYS TGT FOREIGN NATION'
p1143
S''
sS'HUM TGT NUMBER'
p1144
S'1 JESUS FERNANDEZ'
p1145
sS'PHYS TGT TYPE'
p1146
S''
sS'HUM TGT NAME'
p1147
S'JESUS FERNANDEZ'
p1148
sS'INCIDENT TYPE'
p1149
S'KIDNAPPING'
p1150
sS'PHYS TGT NUMBER'
p1151
S''
sS'TELEVISION JOURNALISTS JOURN'
p1152
S'ALISTS'
p1153
sS'PERP INDIVIDUAL ID'
p1154
S'MEMBERS AND SYMPATHIZERS OF THE MSGR OSCAR ARNULFO ROMERO FEDERATION OF COMMITTEES OF MOTHERS AND RELATIVES FECMAFAM OF POLITICAL PRISONERS AND MURDERED AND MISSING PEOPLE'
p1155
sS'INCIDENT STAGE OF EXECUTION'
p1156
S'ACCOMPLISHED'
p1157
sS'HUM TGT DESCRIPTION'
p1158
S'AMBASSADOR JESUS FERNANDEZ'
p1159
sS'PHYS TGT EFFECT OF INCIDENT'
p1160
S''
sS'HUM TGT FOREIGN NATION'
p1161
S'COSTA RICA DIPLOMATS EMBASSY OFFICIALS'
p1162
sS'DIPLOMATS EMBASSY OFFICIALS'
p1163
S''
sS'INCIDENT DATE'
p1164
S'05 OCT 89 04 OCT 89 05 OCT 89'
p1165
sS'MESSAGE TEMPLATE'
p1166
S'1'
sS'PHYS TGT TOTAL NUMBER'
p1167
S''
ssS'TST2MUC40077'
p1168
(dp1169
S'PERP ORGANIZATION CONFIDENCE'
p1170
S'CLAIMED OR ADMITTED TUPAC AMARU REVOLUTIONARY MOVEMENT MRTA'
p1171
sS'HUM TGT EFFECT OF INCIDENT'
p1172
S''
sS'INCIDENT LOCATION'
p1173
S'PERU'
p1174
sS'PHYS TGT ID'
p1175
S''
sS'PERP INCIDENT CATEGORY'
p1176
S'TERRORIST ACT'
p1177
sS'PERP ORGANIZATION ID'
p1178
S'TUPAC AMARU REVOLUTIONARY MOVEMENT MRTA'
p1179
sS'HUM TGT TYPE'
p1180
S'CIVILIAN CARLOS ENRIQUE FERREYROS'
p1181
sS'HUM TGT TOTAL NUMBER'
p1182
S''
sS'INCIDENT INSTRUMENT ID'
p1183
S''
sS'INCIDENT INSTRUMENT TYPE'
p1184
S''
sS'PHYS TGT FOREIGN NATION'
p1185
S''
sS'HUM TGT NUMBER'
p1186
S'1 CARLOS ENRIQUE FERREYROS'
p1187
sS'PHYS TGT TYPE'
p1188
S''
sS'HUM TGT NAME'
p1189
S'CARLOS ENRIQUE FERREYROS'
p1190
sS'INCIDENT TYPE'
p1191
S'KIDNAPPING'
p1192
sS'PHYS TGT NUMBER'
p1193
S''
sS'PERP INDIVIDUAL ID'
p1194
S''
sS'INCIDENT STAGE OF EXECUTION'
p1195
S'ACCOMPLISHED'
p1196
sS'HUM TGT DESCRIPTION'
p1197
S'BUSINESSMEN THE KIND OF THE MACHINERY INDUSTRY CARLOS ENRIQUE FERREYROS'
p1198
sS'PHYS TGT EFFECT OF INCIDENT'
p1199
S''
sS'HUM TGT FOREIGN NATION'
p1200
S''
sS'INCIDENT DATE'
p1201
S'02 DEC 88'
p1202
sS'MESSAGE TEMPLATE'
p1203
S'2'
sS'PHYS TGT TOTAL NUMBER'
p1204
S''
ssS'TST2MUC40076'
p1205
(dp1206
S'PERP ORGANIZATION CONFIDENCE'
p1207
S''
sS'HUM TGT EFFECT OF INCIDENT'
p1208
S'NO INJURY OR DEATH'
p1209
sS'INCIDENT LOCATION'
p1210
S'COLOMBIA CORDOBA DEPARTMENT MONTERIA CITY'
p1211
sS'PHYS TGT ID'
p1212
S'US STATE DEPARTMENT HERCULES C123 CARGO PLANE HERCULES C123 CARGO PLANE CARGO PLANE PLANE STATE DEPARTMENT HERCULES C123 CARGO PLANE C123 CARGO PLANE'
p1213
sS'PERP INCIDENT CATEGORY'
p1214
S''
sS'PERP ORGANIZATION ID'
p1215
S''
sS'HUM TGT TYPE'
p1216
S''
sS'HUM TGT TOTAL NUMBER'
p1217
S''
sS'INCIDENT INSTRUMENT ID'
p1218
S'INCENDIARY BOMB BOMB'
p1219
sS'INCIDENT INSTRUMENT TYPE'
p1220
S'BOMB INCENDIARY BOMB BOMB'
p1221
sS'PHYS TGT FOREIGN NATION'
p1222
S'UNITED STATES US STATE DEPARTMENT HERCULES C123 CARGO PLANE HERCULES C123 CARGO PLANE CARGO PLANE PLANE STATE DEPARTMENT HERCULES C123 CARGO PLANE C123 CARGO PLANE'
p1223
sS'HUM TGT NUMBER'
p1224
S''
sS'PHYS TGT TYPE'
p1225
S'TRANSPORT VEHICLE US STATE DEPARTMENT HERCULES C123 CARGO PLANE HERCULES C123 CARGO PLANE CARGO PLANE PLANE STATE DEPARTMENT HERCULES C123 CARGO PLANE C123 CARGO PLANE'
p1226
sS'HUM TGT NAME'
p1227
S''
sS'INCIDENT TYPE'
p1228
S'BOMBING'
p1229
sS'PHYS TGT NUMBER'
p1230
S'1 US STATE DEPARTMENT HERCULES C123 CARGO PLANE HERCULES C123 CARGO PLANE CARGO PLANE PLANE STATE DEPARTMENT HERCULES C123 CARGO PLANE C123 CARGO PLANE'
p1231
sS'PERP INDIVIDUAL ID'
p1232
S'UNIDENTIFIED PERSONS'
p1233
sS'INCIDENT STAGE OF EXECUTION'
p1234
S'ACCOMPLISHED'
p1235
sS'HUM TGT DESCRIPTION'
p1236
S''
sS'PHYS TGT EFFECT OF INCIDENT'
p1237
S'SOME DAMAGE US STATE DEPARTMENT HERCULES C123 CARGO PLANE HERCULES C123 CARGO PLANE CARGO PLANE PLANE STATE DEPARTMENT HERCULES C123 CARGO PLANE C123 CARGO PLANE'
p1238
sS'HUM TGT FOREIGN NATION'
p1239
S''
sS'INCIDENT DATE'
p1240
S'03 SEP 89'
p1241
sS'MESSAGE TEMPLATE'
p1242
S'1'
sS'PHYS TGT TOTAL NUMBER'
p1243
S''
ssS'TST2MUC40075'
p1244
(dp1245
S'PERP ORGANIZATION CONFIDENCE'
p1246
S''
sS'HUM TGT EFFECT OF INCIDENT'
p1247
S'DEATH PERSONS'
p1248
sS'INCIDENT LOCATION'
p1249
S'EL SALVADOR SAN SALVADOR CITY'
p1250
sS'PHYS TGT ID'
p1251
S'OFFICES OF THE SALVADORAN WORKERS NATIONAL UNION FEDERATION FENASTRAS OFFICES OF THE SALVADORAN WORKERS NATIONAL UNION FEDERATION'
p1252
sS'PERP INCIDENT CATEGORY'
p1253
S''
sS'PERP ORGANIZATION ID'
p1254
S''
sS'HUM TGT TYPE'
p1255
S'CIVILIAN PERSONS'
p1256
sS'HUM TGT TOTAL NUMBER'
p1257
S''
sS'INCIDENT INSTRUMENT ID'
p1258
S'CAR BOMB'
p1259
sS'INCIDENT INSTRUMENT TYPE'
p1260
S'VEHICLE BOMB CAR BOMB'
p1261
sS'PHYS TGT FOREIGN NATION'
p1262
S''
sS'HUM TGT NUMBER'
p1263
S'6 PERSONS'
p1264
sS'PHYS TGT TYPE'
p1265
S'ORGANIZATION OFFICE OFFICES OF THE SALVADORAN WORKERS NATIONAL UNION FEDERATION FENASTRAS OFFICES OF THE SALVADORAN WORKERS NATIONAL UNION FEDERATION'
p1266
sS'HUM TGT NAME'
p1267
S''
sS'INCIDENT TYPE'
p1268
S'BOMBING'
p1269
sS'PHYS TGT NUMBER'
p1270
S'PLURAL OFFICES OF THE SALVADORAN WORKERS NATIONAL UNION FEDERATION FENASTRAS OFFICES OF THE SALVADORAN WORKERS NATIONAL UNION FEDERATION'
p1271
sS'PERP INDIVIDUAL ID'
p1272
S''
sS'INCIDENT STAGE OF EXECUTION'
p1273
S'ACCOMPLISHED'
p1274
sS'HUM TGT DESCRIPTION'
p1275
S'PERSONS'
p1276
sS'PHYS TGT EFFECT OF INCIDENT'
p1277
S''
sS'HUM TGT FOREIGN NATION'
p1278
S''
sS'INCIDENT DATE'
p1279
S'31 OCT 89'
p1280
sS'MESSAGE TEMPLATE'
p1281
S'1'
sS'PHYS TGT TOTAL NUMBER'
p1282
S''
ssS'TST2MUC40074'
p1283
(dp1284
S'PERP ORGANIZATION CONFIDENCE'
p1285
S'REPORTED AS FACT ARMED FORCES'
p1286
sS'HUM TGT EFFECT OF INCIDENT'
p1287
S''
sS'INCIDENT LOCATION'
p1288
S'EL SALVADOR SAN SALVADOR CITY'
p1289
sS'PHYS TGT ID'
p1290
S'LABOR UNION OFFICES'
p1291
sS'PERP INCIDENT CATEGORY'
p1292
S'STATESPONSORED VIOLENCE'
p1293
sS'PERP ORGANIZATION ID'
p1294
S'ARMED FORCES'
p1295
sS'HUM TGT TYPE'
p1296
S''
sS'HUM TGT TOTAL NUMBER'
p1297
S''
sS'INCIDENT INSTRUMENT ID'
p1298
S''
sS'INCIDENT INSTRUMENT TYPE'
p1299
S''
sS'PHYS TGT FOREIGN NATION'
p1300
S''
sS'HUM TGT NUMBER'
p1301
S''
sS'PHYS TGT TYPE'
p1302
S'ORGANIZATION OFFICE LABOR UNION OFFICES'
p1303
sS'HUM TGT NAME'
p1304
S''
sS'INCIDENT TYPE'
p1305
S'ROBBERY'
p1306
sS'PHYS TGT NUMBER'
p1307
S'PLURAL LABOR UNION OFFICES'
p1308
sS'PERP INDIVIDUAL ID'
p1309
S'GENERAL STAFF OF THE ARMED FORCES GENERAL STAFF'
p1310
sS'INCIDENT STAGE OF EXECUTION'
p1311
S'ACCOMPLISHED'
p1312
sS'HUM TGT DESCRIPTION'
p1313
S''
sS'PHYS TGT EFFECT OF INCIDENT'
p1314
S'PROPERTY TAKEN FROM TARGET MONEY TAKEN FROM TARGET LABOR UNION OFFICES'
p1315
sS'HUM TGT FOREIGN NATION'
p1316
S''
sS'INCIDENT DATE'
p1317
S'16 NOV 00'
p1318
sS'MESSAGE TEMPLATE'
p1319
S'2'
sS'PHYS TGT TOTAL NUMBER'
p1320
S''
ssS'TST2MUC40079'
p1321
(dp1322
S'PERP ORGANIZATION CONFIDENCE'
p1323
S''
sS'HUM TGT EFFECT OF INCIDENT'
p1324
S''
sS'INCIDENT LOCATION'
p1325
S''
sS'PHYS TGT ID'
p1326
S''
sS'PERP INCIDENT CATEGORY'
p1327
S''
sS'PERP ORGANIZATION ID'
p1328
S''
sS'HUM TGT TYPE'
p1329
S''
sS'HUM TGT TOTAL NUMBER'
p1330
S''
sS'INCIDENT INSTRUMENT ID'
p1331
S''
sS'INCIDENT INSTRUMENT TYPE'
p1332
S''
sS'PHYS TGT FOREIGN NATION'
p1333
S''
sS'HUM TGT NUMBER'
p1334
S''
sS'PHYS TGT TYPE'
p1335
S''
sS'HUM TGT NAME'
p1336
S''
sS'INCIDENT TYPE'
p1337
S''
sS'PHYS TGT NUMBER'
p1338
S''
sS'PERP INDIVIDUAL ID'
p1339
S''
sS'INCIDENT STAGE OF EXECUTION'
p1340
S''
sS'HUM TGT DESCRIPTION'
p1341
S''
sS'PHYS TGT EFFECT OF INCIDENT'
p1342
S''
sS'HUM TGT FOREIGN NATION'
p1343
S''
sS'INCIDENT DATE'
p1344
S''
sS'MESSAGE TEMPLATE'
p1345
S''
sS'PHYS TGT TOTAL NUMBER'
p1346
S''
ssS'TST2MUC40078'
p1347
(dp1348
S'PERP ORGANIZATION CONFIDENCE'
p1349
S'REPORTED AS FACT CLAIMED OR ADMITTED FMLN FARABUNDO MARTI NATIONAL LIBERATION FRONT'
p1350
sS'HUM TGT EFFECT OF INCIDENT'
p1351
S''
sS'INCIDENT LOCATION'
p1352
S'EL SALVADOR SAN SALVADOR CITY'
p1353
sS'PHYS TGT ID'
p1354
S'POWER LINES'
p1355
sS'PERP INCIDENT CATEGORY'
p1356
S'TERRORIST ACT'
p1357
sS'PERP ORGANIZATION ID'
p1358
S'FMLN FARABUNDO MARTI NATIONAL LIBERATION FRONT'
p1359
sS'HUM TGT TYPE'
p1360
S''
sS'HUM TGT TOTAL NUMBER'
p1361
S''
sS'INCIDENT INSTRUMENT ID'
p1362
S''
sS'INCIDENT INSTRUMENT TYPE'
p1363
S''
sS'PHYS TGT FOREIGN NATION'
p1364
S''
sS'HUM TGT NUMBER'
p1365
S''
sS'PHYS TGT TYPE'
p1366
S'ENERGY POWER LINES'
p1367
sS'HUM TGT NAME'
p1368
S''
sS'INCIDENT TYPE'
p1369
S'ATTACK'
p1370
sS'TRANSFORMERS'
p1371
S''
sS'PHYS TGT NUMBER'
p1372
S'PLURAL POWER LINES'
p1373
sS'PERP INDIVIDUAL ID'
p1374
S'FMLN FARABUNDO MARTI NATIONAL LIBERATION FRONT FORCES'
p1375
sS'INCIDENT STAGE OF EXECUTION'
p1376
S'ACCOMPLISHED'
p1377
sS'HUM TGT DESCRIPTION'
p1378
S''
sS'PHYS TGT EFFECT OF INCIDENT'
p1379
S'SOME DAMAGE POWER LINES'
p1380
sS'HUM TGT FOREIGN NATION'
p1381
S''
sS'INCIDENT DATE'
p1382
S'28 NOV 89'
p1383
sS'MESSAGE TEMPLATE'
p1384
S'1'
sS'PHYS TGT TOTAL NUMBER'
p1385
S''
ssS'TST2MUC40048'
p1386
(dp1387
S'PERP ORGANIZATION CONFIDENCE'
p1388
S'SUSPECTED OR ACCUSED BY AUTHORITIES FMLN FARABUNDO MARTI NATIONAL LIBERATION FRONT'
p1389
sS'HUM TGT EFFECT OF INCIDENT'
p1390
S'INJURY 15YEAROLD NIECE OF MERINOS 15YEAROLD NIECE'
p1391
sS'INCIDENT LOCATION'
p1392
S'EL SALVADOR SAN SALVADOR CITY'
p1393
sS'PHYS TGT ID'
p1394
S'MERINOS HOME'
p1395
sS'PERP INCIDENT CATEGORY'
p1396
S'TERRORIST ACT'
p1397
sS'PERP ORGANIZATION ID'
p1398
S'FMLN FARABUNDO MARTI NATIONAL LIBERATION FRONT'
p1399
sS'HUM TGT TYPE'
p1400
S'CIVILIAN CHILDREN'
p1401
sS'HUM TGT TOTAL NUMBER'
p1402
S'7'
sS'INCIDENT INSTRUMENT ID'
p1403
S'EXPLOSIVES'
p1404
sS'INCIDENT INSTRUMENT TYPE'
p1405
S'EXPLOSIVE EXPLOSIVES'
p1406
sS'PHYS TGT FOREIGN NATION'
p1407
S''
sS'HUM TGT NUMBER'
p1408
S'7 CHILDREN'
p1409
sS'VICE PRESIDENTS CHILDREN'
p1410
S''
sS'PHYS TGT TYPE'
p1411
S'GOVERNMENT OFFICE OR RESIDENCE MERINOS HOME'
p1412
sS'HUM TGT NAME'
p1413
S''
sS'INCIDENT TYPE'
p1414
S'BOMBING'
p1415
sS'PHYS TGT NUMBER'
p1416
S'1 MERINOS HOME'
p1417
sS'PERP INDIVIDUAL ID'
p1418
S'GUERRILLAS'
p1419
sS'INCIDENT STAGE OF EXECUTION'
p1420
S'ACCOMPLISHED'
p1421
sS'15YEAROLD NIECE OF MERINOS'
p1422
S'15YEAROLD NIECE'
p1423
sS'HUM TGT DESCRIPTION'
p1424
S'CHILDREN'
p1425
sS'PHYS TGT EFFECT OF INCIDENT'
p1426
S''
sS'HUM TGT FOREIGN NATION'
p1427
S''
sS'INCIDENT DATE'
p1428
S'14 APR 89'
p1429
sS'MESSAGE TEMPLATE'
p1430
S'3'
sS'PHYS TGT TOTAL NUMBER'
p1431
S''
ssS'TST2MUC40049'
p1432
(dp1433
S'PERP ORGANIZATION CONFIDENCE'
p1434
S''
sS'HUM TGT EFFECT OF INCIDENT'
p1435
S'DEATH PRESIDENTIAL GUARDS GUARDS MEMBERS OF THE HUSARES DE JUNIN PRESIDENTIAL ESCORT REGIMENT MILITARY GUARDS'
p1436
sS'INCIDENT LOCATION'
p1437
S'PERU LIMA CITY'
p1438
sS'PHYS TGT ID'
p1439
S'BUS MILITARY BUS'
p1440
sS'PERP INCIDENT CATEGORY'
p1441
S''
sS'SOLDIERS'
p1442
S''
sS'PERP ORGANIZATION ID'
p1443
S''
sS'HUM TGT TYPE'
p1444
S'ACTIVE MILITARY PRESIDENTIAL GUARDS GUARDS MEMBERS OF THE HUSARES DE JUNIN PRESIDENTIAL ESCORT REGIMENT MILITARY GUARDS'
p1445
sS'HUM TGT TOTAL NUMBER'
p1446
S''
sS'INCIDENT INSTRUMENT ID'
p1447
S'CAR BOMB'
p1448
sS'INCIDENT INSTRUMENT TYPE'
p1449
S'VEHICLE BOMB CAR BOMB'
p1450
sS'PRESIDENTIAL GUARDS GUARDS'
p1451
S'MEMBERS OF THE HUSARES DE JUNIN PRESIDENTIAL ESCORT REGIMENT MILITARY GUARDS'
p1452
sS'PHYS TGT FOREIGN NATION'
p1453
S''
sS'HUM TGT NUMBER'
p1454
S'24 PRESIDENTIAL GUARDS GUARDS MEMBERS OF THE HUSARES DE JUNIN PRESIDENTIAL ESCORT REGIMENT MILITARY GUARDS'
p1455
sS'PHYS TGT TYPE'
p1456
S'TRANSPORT VEHICLE BUS MILITARY BUS'
p1457
sS'HUM TGT NAME'
p1458
S''
sS'INCIDENT TYPE'
p1459
S'BOMBING'
p1460
sS'PHYS TGT NUMBER'
p1461
S'1 BUS MILITARY BUS'
p1462
sS'CHILD'
p1463
S''
sS'PERP INDIVIDUAL ID'
p1464
S''
sS'INCIDENT STAGE OF EXECUTION'
p1465
S'ACCOMPLISHED'
p1466
sS'HUM TGT DESCRIPTION'
p1467
S'PRESIDENTIAL GUARDS GUARDS MEMBERS OF THE HUSARES DE JUNIN PRESIDENTIAL ESCORT REGIMENT MILITARY GUARDS'
p1468
sS'PHYS TGT EFFECT OF INCIDENT'
p1469
S'SOME DAMAGE BUS MILITARY BUS'
p1470
sS'HUM TGT FOREIGN NATION'
p1471
S''
sS'INCIDENT DATE'
p1472
S'03 JUN 89'
p1473
sS'MESSAGE TEMPLATE'
p1474
S'1'
sS'PHYS TGT TOTAL NUMBER'
p1475
S''
ssS'TST2MUC40046'
p1476
(dp1477
S'PERP ORGANIZATION CONFIDENCE'
p1478
S''
sS'HUM TGT EFFECT OF INCIDENT'
p1479
S'DEATH PASSENGERS PASSENGERS GOING TO CALI VALLE DEL CAUCA DEPARTMENT PASSANGERS PASSANGERS GOING TO CALI VALLE DEL CAUCA DEPARTMENT'
p1480
sS'INCIDENT LOCATION'
p1481
S'COLOMBIA CASQUITO TOWN COLOMBIA'
p1482
sS'PHYS TGT ID'
p1483
S'AIRPLANE HK1803 AIRPLANE'
p1484
sS'PERP INCIDENT CATEGORY'
p1485
S'TERRORIST ACT'
p1486
sS'PERP ORGANIZATION ID'
p1487
S''
sS'HUM TGT TYPE'
p1488
S'CIVILIAN PASSENGERS PASSENGERS GOING TO CALI VALLE DEL CAUCA DEPARTMENT PASSANGERS PASSANGERS GOING TO CALI VALLE DEL CAUCA DEPARTMENT'
p1489
sS'HUM TGT TOTAL NUMBER'
p1490
S''
sS'INCIDENT INSTRUMENT ID'
p1491
S''
sS'INCIDENT INSTRUMENT TYPE'
p1492
S'EXPLOSIVE'
p1493
sS'PHYS TGT FOREIGN NATION'
p1494
S''
sS'HUM TGT NUMBER'
p1495
S'106 PASSENGERS PASSENGERS GOING TO CALI VALLE DEL CAUCA DEPARTMENT PASSANGERS PASSANGERS GOING TO CALI VALLE DEL CAUCA DEPARTMENT'
p1496
sS'PHYS TGT TYPE'
p1497
S'TRANSPORT VEHICLE AIRPLANE HK1803 AIRPLANE'
p1498
sS'HUM TGT NAME'
p1499
S''
sS'INCIDENT TYPE'
p1500
S'BOMBING'
p1501
sS'PHYS TGT NUMBER'
p1502
S'1 AIRPLANE HK1803 AIRPLANE'
p1503
sS'PERP INDIVIDUAL ID'
p1504
S'TERRORIST'
p1505
sS'INCIDENT STAGE OF EXECUTION'
p1506
S'ACCOMPLISHED'
p1507
sS'HUM TGT DESCRIPTION'
p1508
S'PASSENGERS PASSENGERS GOING TO CALI VALLE DEL CAUCA DEPARTMENT PASSANGERS PASSANGERS GOING TO CALI VALLE DEL CAUCA DEPARTMENT'
p1509
sS'PHYS TGT EFFECT OF INCIDENT'
p1510
S'DESTROYED AIRPLANE HK1803 AIRPLANE'
p1511
sS'HUM TGT FOREIGN NATION'
p1512
S''
sS'INCIDENT DATE'
p1513
S'27 NOV 89'
p1514
sS'MESSAGE TEMPLATE'
p1515
S'1'
sS'PHYS TGT TOTAL NUMBER'
p1516
S''
ssS'TST2MUC40047'
p1517
(dp1518
S'PERP ORGANIZATION CONFIDENCE'
p1519
S''
sS'HUM TGT EFFECT OF INCIDENT'
p1520
S''
sS'INCIDENT LOCATION'
p1521
S''
sS'PHYS TGT ID'
p1522
S''
sS'PERP INCIDENT CATEGORY'
p1523
S''
sS'PERP ORGANIZATION ID'
p1524
S''
sS'HUM TGT TYPE'
p1525
S''
sS'HUM TGT TOTAL NUMBER'
p1526
S''
sS'INCIDENT INSTRUMENT ID'
p1527
S''
sS'INCIDENT INSTRUMENT TYPE'
p1528
S''
sS'PHYS TGT FOREIGN NATION'
p1529
S''
sS'HUM TGT NUMBER'
p1530
S''
sS'PHYS TGT TYPE'
p1531
S''
sS'HUM TGT NAME'
p1532
S''
sS'INCIDENT TYPE'
p1533
S''
sS'PHYS TGT NUMBER'
p1534
S''
sS'PERP INDIVIDUAL ID'
p1535
S''
sS'INCIDENT STAGE OF EXECUTION'
p1536
S''
sS'HUM TGT DESCRIPTION'
p1537
S''
sS'PHYS TGT EFFECT OF INCIDENT'
p1538
S''
sS'HUM TGT FOREIGN NATION'
p1539
S''
sS'INCIDENT DATE'
p1540
S''
sS'MESSAGE TEMPLATE'
p1541
S''
sS'PHYS TGT TOTAL NUMBER'
p1542
S''
ssS'TST2MUC40044'
p1543
(dp1544
S'PERP ORGANIZATION CONFIDENCE'
p1545
S'SUSPECTED OR ACCUSED BY AUTHORITIES ARMY OF NATIONAL LIBERATION ARMY NATIONAL LIBERATION ARMY'
p1546
sS'HUM TGT EFFECT OF INCIDENT'
p1547
S'DEATH SOLDIERS GUARDS NATIONAL GUARD PATROL'
p1548
sS'INCIDENT LOCATION'
p1549
S'VENEZUELA APURE STATE CUTUFI CITY'
p1550
sS'PHYS TGT ID'
p1551
S'NATIONAL GUARD JEEP JEEP MILITARY VEHICLE VEHICLE'
p1552
sS'PERP INCIDENT CATEGORY'
p1553
S'TERRORIST ACT'
p1554
sS'PERP ORGANIZATION ID'
p1555
S'ARMY OF NATIONAL LIBERATION ARMY NATIONAL LIBERATION ARMY'
p1556
sS'HUM TGT TYPE'
p1557
S'ACTIVE MILITARY SOLDIERS GUARDS NATIONAL GUARD PATROL'
p1558
sS'HUM TGT TOTAL NUMBER'
p1559
S''
sS'INCIDENT INSTRUMENT ID'
p1560
S'VERY POWERFUL EXPLOSIVES EXPLOSIVES'
p1561
sS'INCIDENT INSTRUMENT TYPE'
p1562
S'EXPLOSIVE VERY POWERFUL EXPLOSIVES EXPLOSIVES'
p1563
sS'PHYS TGT FOREIGN NATION'
p1564
S''
sS'HUM TGT NUMBER'
p1565
S'5 SOLDIERS GUARDS NATIONAL GUARD PATROL'
p1566
sS'PHYS TGT TYPE'
p1567
S'TRANSPORT VEHICLE NATIONAL GUARD JEEP JEEP MILITARY VEHICLE VEHICLE'
p1568
sS'HUM TGT NAME'
p1569
S''
sS'INCIDENT TYPE'
p1570
S'BOMBING'
p1571
sS'PHYS TGT NUMBER'
p1572
S'1 NATIONAL GUARD JEEP JEEP MILITARY VEHICLE VEHICLE'
p1573
sS'PERP INDIVIDUAL ID'
p1574
S'COLOMBIAN GUERRILLAS MEMBERS OF THE COLOMBIAN GUERRILLAS'
p1575
sS'INCIDENT STAGE OF EXECUTION'
p1576
S'ACCOMPLISHED'
p1577
sS'HUM TGT DESCRIPTION'
p1578
S'SOLDIERS GUARDS NATIONAL GUARD PATROL'
p1579
sS'PHYS TGT EFFECT OF INCIDENT'
p1580
S'DESTROYED SOME DAMAGE NATIONAL GUARD JEEP JEEP MILITARY VEHICLE VEHICLE'
p1581
sS'HUM TGT FOREIGN NATION'
p1582
S''
sS'INCIDENT DATE'
p1583
S'26 OCT 89'
p1584
sS'MESSAGE TEMPLATE'
p1585
S'1'
sS'PHYS TGT TOTAL NUMBER'
p1586
S''
ssS'TST2MUC40045'
p1587
(dp1588
S'PERP ORGANIZATION CONFIDENCE'
p1589
S''
sS'HUM TGT EFFECT OF INCIDENT'
p1590
S''
sS'INCIDENT LOCATION'
p1591
S''
sS'PHYS TGT ID'
p1592
S''
sS'PERP INCIDENT CATEGORY'
p1593
S''
sS'PERP ORGANIZATION ID'
p1594
S''
sS'HUM TGT TYPE'
p1595
S''
sS'HUM TGT TOTAL NUMBER'
p1596
S''
sS'INCIDENT INSTRUMENT ID'
p1597
S''
sS'INCIDENT INSTRUMENT TYPE'
p1598
S''
sS'PHYS TGT FOREIGN NATION'
p1599
S''
sS'HUM TGT NUMBER'
p1600
S''
sS'PHYS TGT TYPE'
p1601
S''
sS'HUM TGT NAME'
p1602
S''
sS'INCIDENT TYPE'
p1603
S''
sS'PHYS TGT NUMBER'
p1604
S''
sS'PERP INDIVIDUAL ID'
p1605
S''
sS'INCIDENT STAGE OF EXECUTION'
p1606
S''
sS'HUM TGT DESCRIPTION'
p1607
S''
sS'PHYS TGT EFFECT OF INCIDENT'
p1608
S''
sS'HUM TGT FOREIGN NATION'
p1609
S''
sS'INCIDENT DATE'
p1610
S''
sS'MESSAGE TEMPLATE'
p1611
S''
sS'PHYS TGT TOTAL NUMBER'
p1612
S''
ssS'TST2MUC40042'
p1613
(dp1614
S'PERP ORGANIZATION CONFIDENCE'
p1615
S'CLAIMED OR ADMITTED NATIONAL POLICE COLOMBIAN POLICE POLICE'
p1616
sS'HUM TGT EFFECT OF INCIDENT'
p1617
S'DEATH GONZALO RODRIGUEZ GACHA'
p1618
sS'INCIDENT LOCATION'
p1619
S'COLOMBIA'
p1620
sS'SON HIS SON'
p1621
S''
sS'PERP INCIDENT CATEGORY'
p1622
S'STATESPONSORED VIOLENCE'
p1623
sS'PERP ORGANIZATION ID'
p1624
S'NATIONAL POLICE COLOMBIAN POLICE POLICE'
p1625
sS'HUM TGT TYPE'
p1626
S'CIVILIAN GONZALO RODRIGUEZ GACHA'
p1627
sS'HUM TGT TOTAL NUMBER'
p1628
S''
sS'INCIDENT INSTRUMENT ID'
p1629
S''
sS'INCIDENT INSTRUMENT TYPE'
p1630
S''
sS'PHYS TGT FOREIGN NATION'
p1631
S''
sS'HUM TGT NUMBER'
p1632
S'1 GONZALO RODRIGUEZ GACHA'
p1633
sS'PHYS TGT TYPE'
p1634
S''
sS'HUM TGT NAME'
p1635
S'GONZALO RODRIGUEZ GACHA'
p1636
sS'INCIDENT TYPE'
p1637
S'ATTACK'
p1638
sS'PHYS TGT NUMBER'
p1639
S''
sS'PHYS TGT ID'
p1640
S''
sS'PERP INDIVIDUAL ID'
p1641
S'SPECIAL GROUPS'
p1642
sS'INCIDENT STAGE OF EXECUTION'
p1643
S'ACCOMPLISHED'
p1644
sS'HUM TGT DESCRIPTION'
p1645
S'CRIMINAL GONZALO RODRIGUEZ GACHA'
p1646
sS'PHYS TGT EFFECT OF INCIDENT'
p1647
S''
sS'HUM TGT FOREIGN NATION'
p1648
S''
sS'INCIDENT DATE'
p1649
S'15 DEC 89 15 DEC 89'
p1650
sS'MESSAGE TEMPLATE'
p1651
S'1 OPTIONAL'
p1652
sS'PHYS TGT TOTAL NUMBER'
p1653
S''
ssS'TST2MUC40043'
p1654
(dp1655
S'PERP ORGANIZATION CONFIDENCE'
p1656
S''
sS'HUM TGT EFFECT OF INCIDENT'
p1657
S''
sS'INCIDENT LOCATION'
p1658
S''
sS'PHYS TGT ID'
p1659
S''
sS'PERP INCIDENT CATEGORY'
p1660
S''
sS'PERP ORGANIZATION ID'
p1661
S''
sS'HUM TGT TYPE'
p1662
S''
sS'HUM TGT TOTAL NUMBER'
p1663
S''
sS'INCIDENT INSTRUMENT ID'
p1664
S''
sS'INCIDENT INSTRUMENT TYPE'
p1665
S''
sS'PHYS TGT FOREIGN NATION'
p1666
S''
sS'HUM TGT NUMBER'
p1667
S''
sS'PHYS TGT TYPE'
p1668
S''
sS'HUM TGT NAME'
p1669
S''
sS'INCIDENT TYPE'
p1670
S''
sS'PHYS TGT NUMBER'
p1671
S''
sS'PERP INDIVIDUAL ID'
p1672
S''
sS'INCIDENT STAGE OF EXECUTION'
p1673
S''
sS'HUM TGT DESCRIPTION'
p1674
S''
sS'PHYS TGT EFFECT OF INCIDENT'
p1675
S''
sS'HUM TGT FOREIGN NATION'
p1676
S''
sS'INCIDENT DATE'
p1677
S''
sS'MESSAGE TEMPLATE'
p1678
S''
sS'PHYS TGT TOTAL NUMBER'
p1679
S''
ssS'TST2MUC40040'
p1680
(dp1681
S'PERP ORGANIZATION CONFIDENCE'
p1682
S'CLAIMED OR ADMITTED THE EXTRADITABLES EXTRADITABLES'
p1683
sS'HUM TGT EFFECT OF INCIDENT'
p1684
S''
sS'DAUGHTER HER DAUGHTER'
p1685
S''
sS'PHYS TGT ID'
p1686
S''
sS'PERP INCIDENT CATEGORY'
p1687
S'TERRORIST ACT'
p1688
sS'PERP ORGANIZATION ID'
p1689
S'THE EXTRADITABLES EXTRADITABLES'
p1690
sS'HUM TGT TYPE'
p1691
S'CIVILIAN PATRICIA ECHAVARRIA'
p1692
sS'HUM TGT TOTAL NUMBER'
p1693
S''
sS'INCIDENT INSTRUMENT ID'
p1694
S''
sS'INCIDENT INSTRUMENT TYPE'
p1695
S''
sS'PHYS TGT FOREIGN NATION'
p1696
S''
sS'HUM TGT NUMBER'
p1697
S'1 PATRICIA ECHAVARRIA'
p1698
sS'PHYS TGT TYPE'
p1699
S''
sS'HUM TGT NAME'
p1700
S'PATRICIA ECHAVARRIA'
p1701
sS'INCIDENT TYPE'
p1702
S'KIDNAPPING'
p1703
sS'PHYS TGT NUMBER'
p1704
S''
sS'PERP INDIVIDUAL ID'
p1705
S''
sS'INCIDENT STAGE OF EXECUTION'
p1706
S'ACCOMPLISHED'
p1707
sS'HUM TGT DESCRIPTION'
p1708
S'MRS PATRICIA ECHAVARRIA'
p1709
sS'PHYS TGT EFFECT OF INCIDENT'
p1710
S''
sS'HUM TGT FOREIGN NATION'
p1711
S''
sS'INCIDENT LOCATION'
p1712
S'COLOMBIA'
p1713
sS'INCIDENT DATE'
p1714
S'16 JAN 90'
p1715
sS'MESSAGE TEMPLATE'
p1716
S'1 OPTIONAL'
p1717
sS'PHYS TGT TOTAL NUMBER'
p1718
S''
ssS'TST2MUC40041'
p1719
(dp1720
S'PERP ORGANIZATION CONFIDENCE'
p1721
S''
sS'HUM TGT EFFECT OF INCIDENT'
p1722
S''
sS'INCIDENT LOCATION'
p1723
S''
sS'PHYS TGT ID'
p1724
S''
sS'PERP INCIDENT CATEGORY'
p1725
S''
sS'PERP ORGANIZATION ID'
p1726
S''
sS'HUM TGT TYPE'
p1727
S''
sS'HUM TGT TOTAL NUMBER'
p1728
S''
sS'INCIDENT INSTRUMENT ID'
p1729
S''
sS'INCIDENT INSTRUMENT TYPE'
p1730
S''
sS'PHYS TGT FOREIGN NATION'
p1731
S''
sS'HUM TGT NUMBER'
p1732
S''
sS'PHYS TGT TYPE'
p1733
S''
sS'HUM TGT NAME'
p1734
S''
sS'INCIDENT TYPE'
p1735
S''
sS'PHYS TGT NUMBER'
p1736
S''
sS'PERP INDIVIDUAL ID'
p1737
S''
sS'INCIDENT STAGE OF EXECUTION'
p1738
S''
sS'HUM TGT DESCRIPTION'
p1739
S''
sS'PHYS TGT EFFECT OF INCIDENT'
p1740
S''
sS'HUM TGT FOREIGN NATION'
p1741
S''
sS'INCIDENT DATE'
p1742
S''
sS'MESSAGE TEMPLATE'
p1743
S''
sS'PHYS TGT TOTAL NUMBER'
p1744
S''
ssS'TST2MUC40059'
p1745
(dp1746
S'PERP ORGANIZATION CONFIDENCE'
p1747
S''
sS'HUM TGT EFFECT OF INCIDENT'
p1748
S'NO INJURY GUARD GUARD AT THE COMPANY'
p1749
sS'INCIDENT LOCATION'
p1750
S'COLOMBIA BOGOTA CITY QUIRIGUA SUBURB'
p1751
sS'PHYS TGT ID'
p1752
S'BRANCH OF THE CITYS ELECTRIC ENERGY ENTERPRISE ELECTRIC ENERGY ENTERPRISE'
p1753
sS'PERP INCIDENT CATEGORY'
p1754
S'TERRORIST ACT'
p1755
sS'PERP ORGANIZATION ID'
p1756
S''
sS'HUM TGT TYPE'
p1757
S'SECURITY GUARD GUARD GUARD AT THE COMPANY'
p1758
sS'HUM TGT TOTAL NUMBER'
p1759
S''
sS'INCIDENT INSTRUMENT ID'
p1760
S'BOMB'
p1761
sS'INCIDENT INSTRUMENT TYPE'
p1762
S'BOMB BOMB'
p1763
sS'PHYS TGT FOREIGN NATION'
p1764
S''
sS'HUM TGT NUMBER'
p1765
S'1 GUARD GUARD AT THE COMPANY'
p1766
sS'PHYS TGT TYPE'
p1767
S'ENERGY BRANCH OF THE CITYS ELECTRIC ENERGY ENTERPRISE ELECTRIC ENERGY ENTERPRISE'
p1768
sS'HUM TGT NAME'
p1769
S''
sS'INCIDENT TYPE'
p1770
S'BOMBING'
p1771
sS'PHYS TGT NUMBER'
p1772
S'1 BRANCH OF THE CITYS ELECTRIC ENERGY ENTERPRISE ELECTRIC ENERGY ENTERPRISE'
p1773
sS'PERP INDIVIDUAL ID'
p1774
S'TWO INDIVIDUALS WHO WERE PASSING BY THE BUILDING TWO INDIVIDUALS INDIVIDUALS'
p1775
sS'INCIDENT STAGE OF EXECUTION'
p1776
S'ACCOMPLISHED'
p1777
sS'HUM TGT DESCRIPTION'
p1778
S'GUARD GUARD AT THE COMPANY'
p1779
sS'PHYS TGT EFFECT OF INCIDENT'
p1780
S'DESTROYED BRANCH OF THE CITYS ELECTRIC ENERGY ENTERPRISE ELECTRIC ENERGY ENTERPRISE'
p1781
sS'HUM TGT FOREIGN NATION'
p1782
S''
sS'INCIDENT DATE'
p1783
S'25 SEP 89 25 SEP 89'
p1784
sS'MESSAGE TEMPLATE'
p1785
S'3'
sS'PHYS TGT TOTAL NUMBER'
p1786
S''
ssS'TST2MUC40058'
p1787
(dp1788
S'PERP ORGANIZATION CONFIDENCE'
p1789
S''
sS'HUM TGT EFFECT OF INCIDENT'
p1790
S''
sS'INCIDENT LOCATION'
p1791
S''
sS'PHYS TGT ID'
p1792
S''
sS'PERP INCIDENT CATEGORY'
p1793
S''
sS'PERP ORGANIZATION ID'
p1794
S''
sS'HUM TGT TYPE'
p1795
S''
sS'HUM TGT TOTAL NUMBER'
p1796
S''
sS'INCIDENT INSTRUMENT ID'
p1797
S''
sS'INCIDENT INSTRUMENT TYPE'
p1798
S''
sS'PHYS TGT FOREIGN NATION'
p1799
S''
sS'HUM TGT NUMBER'
p1800
S''
sS'PHYS TGT TYPE'
p1801
S''
sS'HUM TGT NAME'
p1802
S''
sS'INCIDENT TYPE'
p1803
S''
sS'PHYS TGT NUMBER'
p1804
S''
sS'PERP INDIVIDUAL ID'
p1805
S''
sS'INCIDENT STAGE OF EXECUTION'
p1806
S''
sS'HUM TGT DESCRIPTION'
p1807
S''
sS'PHYS TGT EFFECT OF INCIDENT'
p1808
S''
sS'HUM TGT FOREIGN NATION'
p1809
S''
sS'INCIDENT DATE'
p1810
S''
sS'MESSAGE TEMPLATE'
p1811
S''
sS'PHYS TGT TOTAL NUMBER'
p1812
S''
ssS'TST2MUC40051'
p1813
(dp1814
S'PERP ORGANIZATION CONFIDENCE'
p1815
S''
sS'HUM TGT EFFECT OF INCIDENT'
p1816
S'DEATH LUIS CARLOS GALAN SARMIENTO'
p1817
sS'INCIDENT LOCATION'
p1818
S'COLOMBIA'
p1819
sS'PHYS TGT ID'
p1820
S''
sS'PERP INCIDENT CATEGORY'
p1821
S''
sS'PERP ORGANIZATION ID'
p1822
S''
sS'HUM TGT TYPE'
p1823
S'GOVERNMENT OFFICIAL LUIS CARLOS GALAN SARMIENTO'
p1824
sS'HUM TGT TOTAL NUMBER'
p1825
S''
sS'INCIDENT INSTRUMENT ID'
p1826
S''
sS'INCIDENT INSTRUMENT TYPE'
p1827
S''
sS'PHYS TGT FOREIGN NATION'
p1828
S''
sS'HUM TGT NUMBER'
p1829
S'1 LUIS CARLOS GALAN SARMIENTO'
p1830
sS'PHYS TGT TYPE'
p1831
S''
sS'HUM TGT NAME'
p1832
S'LUIS CARLOS GALAN SARMIENTO'
p1833
sS'INCIDENT TYPE'
p1834
S'ATTACK'
p1835
sS'PHYS TGT NUMBER'
p1836
S''
sS'PERP INDIVIDUAL ID'
p1837
S''
sS'INCIDENT STAGE OF EXECUTION'
p1838
S'ACCOMPLISHED'
p1839
sS'HUM TGT DESCRIPTION'
p1840
S'SENATOR LUIS CARLOS GALAN SARMIENTO'
p1841
sS'PHYS TGT EFFECT OF INCIDENT'
p1842
S''
sS'HUM TGT FOREIGN NATION'
p1843
S''
sS'INCIDENT DATE'
p1844
S'18 AUG 89'
p1845
sS'MESSAGE TEMPLATE'
p1846
S'1'
sS'PHYS TGT TOTAL NUMBER'
p1847
S''
ssS'TST2MUC40050'
p1848
(dp1849
S'PERP ORGANIZATION CONFIDENCE'
p1850
S''
sS'HUM TGT EFFECT OF INCIDENT'
p1851
S'DEATH JORGE ADOLFO VARGAS GONZALEZ'
p1852
sS'INCIDENT LOCATION'
p1853
S'GUATEMALA GUATEMALA CITY CITY'
p1854
sS'PHYS TGT ID'
p1855
S''
sS'PERP INCIDENT CATEGORY'
p1856
S''
sS'PERP ORGANIZATION ID'
p1857
S''
sS'HUM TGT TYPE'
p1858
S'DIPLOMAT JORGE ADOLFO VARGAS GONZALEZ'
p1859
sS'HUM TGT TOTAL NUMBER'
p1860
S''
sS'INCIDENT INSTRUMENT ID'
p1861
S''
sS'INCIDENT INSTRUMENT TYPE'
p1862
S''
sS'PHYS TGT FOREIGN NATION'
p1863
S''
sS'HUM TGT NUMBER'
p1864
S'1 JORGE ADOLFO VARGAS GONZALEZ'
p1865
sS'PHYS TGT TYPE'
p1866
S''
sS'HUM TGT NAME'
p1867
S'JORGE ADOLFO VARGAS GONZALEZ'
p1868
sS'INCIDENT TYPE'
p1869
S'ATTACK'
p1870
sS'PHYS TGT NUMBER'
p1871
S''
sS'PERP INDIVIDUAL ID'
p1872
S''
sS'INCIDENT STAGE OF EXECUTION'
p1873
S'ACCOMPLISHED'
p1874
sS'HUM TGT DESCRIPTION'
p1875
S'SECOND SECRETARY OF THE NICARAGUAN EMBASSY IN GUATEMALA JORGE ADOLFO VARGAS GONZALEZ'
p1876
sS'PHYS TGT EFFECT OF INCIDENT'
p1877
S''
sS'HUM TGT FOREIGN NATION'
p1878
S'NICARAGUA JORGE ADOLFO VARGAS GONZALEZ'
p1879
sS'INCIDENT DATE'
p1880
S'21 DEC 89'
p1881
sS'MESSAGE TEMPLATE'
p1882
S'1'
sS'PHYS TGT TOTAL NUMBER'
p1883
S''
ssS'TST2MUC40053'
p1884
(dp1885
S'PERP ORGANIZATION CONFIDENCE'
p1886
S''
sS'HUM TGT EFFECT OF INCIDENT'
p1887
S''
sS'INCIDENT LOCATION'
p1888
S'COLOMBIA NORTE DE SANTANDER DEPARTMENT'
p1889
sS'PHYS TGT ID'
p1890
S''
sS'PERP INCIDENT CATEGORY'
p1891
S''
sS'PERP ORGANIZATION ID'
p1892
S''
sS'HUM TGT TYPE'
p1893
S'CIVILIAN NORBERTO RODRIGUEZ'
p1894
sS'HUM TGT TOTAL NUMBER'
p1895
S''
sS'INCIDENT INSTRUMENT ID'
p1896
S''
sS'INCIDENT INSTRUMENT TYPE'
p1897
S''
sS'PHYS TGT FOREIGN NATION'
p1898
S''
sS'HUM TGT NUMBER'
p1899
S'1 NORBERTO RODRIGUEZ'
p1900
sS'PHYS TGT TYPE'
p1901
S''
sS'HUM TGT NAME'
p1902
S'NORBERTO RODRIGUEZ'
p1903
sS'INCIDENT TYPE'
p1904
S'KIDNAPPING'
p1905
sS'PHYS TGT NUMBER'
p1906
S''
sS'PERP INDIVIDUAL ID'
p1907
S'UNIDENTIFIED ASSAILANTS'
p1908
sS'INCIDENT STAGE OF EXECUTION'
p1909
S'ACCOMPLISHED'
p1910
sS'HUM TGT DESCRIPTION'
p1911
S'VENEZUELAN PRESIDENT CARLOS ANDRES PEREZ BROTHERINLAW BROTHER OF VENEZUELAS FIRST LADY BLANCA RODRIGUEZ DE PEREZ NORBERTO RODRIGUEZ'
p1912
sS'PHYS TGT EFFECT OF INCIDENT'
p1913
S''
sS'HUM TGT FOREIGN NATION'
p1914
S'VENEZUELA NORBERTO RODRIGUEZ'
p1915
sS'INCIDENT DATE'
p1916
S'15 JUL 89'
p1917
sS'MESSAGE TEMPLATE'
p1918
S'1'
sS'PHYS TGT TOTAL NUMBER'
p1919
S''
ssS'TST2MUC40052'
p1920
(dp1921
S'PERP ORGANIZATION CONFIDENCE'
p1922
S''
sS'HUM TGT EFFECT OF INCIDENT'
p1923
S''
sS'INCIDENT LOCATION'
p1924
S''
sS'PHYS TGT ID'
p1925
S''
sS'PERP INCIDENT CATEGORY'
p1926
S''
sS'PERP ORGANIZATION ID'
p1927
S''
sS'HUM TGT TYPE'
p1928
S''
sS'HUM TGT TOTAL NUMBER'
p1929
S''
sS'INCIDENT INSTRUMENT ID'
p1930
S''
sS'INCIDENT INSTRUMENT TYPE'
p1931
S''
sS'PHYS TGT FOREIGN NATION'
p1932
S''
sS'HUM TGT NUMBER'
p1933
S''
sS'PHYS TGT TYPE'
p1934
S''
sS'HUM TGT NAME'
p1935
S''
sS'INCIDENT TYPE'
p1936
S''
sS'PHYS TGT NUMBER'
p1937
S''
sS'PERP INDIVIDUAL ID'
p1938
S''
sS'INCIDENT STAGE OF EXECUTION'
p1939
S''
sS'HUM TGT DESCRIPTION'
p1940
S''
sS'PHYS TGT EFFECT OF INCIDENT'
p1941
S''
sS'HUM TGT FOREIGN NATION'
p1942
S''
sS'INCIDENT DATE'
p1943
S''
sS'MESSAGE TEMPLATE'
p1944
S''
sS'PHYS TGT TOTAL NUMBER'
p1945
S''
ssS'TST2MUC40055'
p1946
(dp1947
S'PERP ORGANIZATION CONFIDENCE'
p1948
S'CLAIMED OR ADMITTED TUPAC AMARU REVOLUTIONARY MOVEMENT MRTA'
p1949
sS'HUM TGT EFFECT OF INCIDENT'
p1950
S''
sS'INCIDENT LOCATION'
p1951
S'PERU LIMA CITY'
p1952
sS'PHYS TGT ID'
p1953
S''
sS'PERP INCIDENT CATEGORY'
p1954
S'TERRORIST ACT'
p1955
sS'PERP ORGANIZATION ID'
p1956
S'TUPAC AMARU REVOLUTIONARY MOVEMENT MRTA'
p1957
sS'HUM TGT TYPE'
p1958
S'CIVILIAN HECTOR DELGADO PARKER'
p1959
sS'HUM TGT TOTAL NUMBER'
p1960
S''
sS'INCIDENT INSTRUMENT ID'
p1961
S''
sS'INCIDENT INSTRUMENT TYPE'
p1962
S''
sS'PHYS TGT FOREIGN NATION'
p1963
S''
sS'HUM TGT NUMBER'
p1964
S'1 HECTOR DELGADO PARKER'
p1965
sS'PHYS TGT TYPE'
p1966
S''
sS'HUM TGT NAME'
p1967
S'HECTOR DELGADO PARKER'
p1968
sS'INCIDENT TYPE'
p1969
S'KIDNAPPING'
p1970
sS'PHYS TGT NUMBER'
p1971
S''
sS'PERP INDIVIDUAL ID'
p1972
S'COMMANDO OF THE PROCHE GUEVARA GROUP TUPAC AMARU REVOLUTIONARY MOVEMENT MRTA COMMANDO OF THE PROCHE GUEVARA GROUP TUPAC AMARU REVOLUTIONARY MOVEMENT COMMANDO OF THE PROCHE GUEVARA GROUP COMMANDO MRTA ACTIVISTS'
p1973
sS'INCIDENT STAGE OF EXECUTION'
p1974
S'ACCOMPLISHED'
p1975
sS'HUM TGT DESCRIPTION'
p1976
S'LOCAL TELEVISION IMPRESARIO FORMER ADVISER TO PERUVIAN PRESIDENT ALAN GARCIA TELEVISION IMPRESARIO HECTOR DELGADO PARKER'
p1977
sS'PHYS TGT EFFECT OF INCIDENT'
p1978
S''
sS'HUM TGT FOREIGN NATION'
p1979
S''
sS'INCIDENT DATE'
p1980
S'04 OCT 89'
p1981
sS'MESSAGE TEMPLATE'
p1982
S'3'
sS'PHYS TGT TOTAL NUMBER'
p1983
S''
ssS'TST2MUC40054'
p1984
(dp1985
S'PERP ORGANIZATION CONFIDENCE'
p1986
S'CLAIMED OR ADMITTED ARMED FORCES'
p1987
sS'HUM TGT EFFECT OF INCIDENT'
p1988
S'DEATH UCA PRIESTS PRIESTS'
p1989
sS'INCIDENT LOCATION'
p1990
S'EL SALVADOR'
p1991
sS'PHYS TGT ID'
p1992
S''
sS'PERP INCIDENT CATEGORY'
p1993
S'STATESPONSORED VIOLENCE'
p1994
sS'PERP ORGANIZATION ID'
p1995
S'ARMED FORCES'
p1996
sS'HUM TGT TYPE'
p1997
S'CIVILIAN UCA PRIESTS PRIESTS'
p1998
sS'HUM TGT TOTAL NUMBER'
p1999
S''
sS'INCIDENT INSTRUMENT ID'
p2000
S''
sS'INCIDENT INSTRUMENT TYPE'
p2001
S''
sS'PHYS TGT FOREIGN NATION'
p2002
S''
sS'HUM TGT NUMBER'
p2003
S'6 UCA PRIESTS PRIESTS'
p2004
sS'PHYS TGT TYPE'
p2005
S''
sS'HUM TGT NAME'
p2006
S''
sS'INCIDENT TYPE'
p2007
S'ATTACK'
p2008
sS'PHYS TGT NUMBER'
p2009
S''
sS'PERP INDIVIDUAL ID'
p2010
S'ARMED FORCES ELEMENTS MEMBERS OF THE ARMED FORCES'
p2011
sS'INCIDENT STAGE OF EXECUTION'
p2012
S'ACCOMPLISHED'
p2013
sS'HUM TGT DESCRIPTION'
p2014
S'UCA PRIESTS PRIESTS'
p2015
sS'PHYS TGT EFFECT OF INCIDENT'
p2016
S''
sS'HUM TGT FOREIGN NATION'
p2017
S''
sS'INCIDENT DATE'
p2018
S'08 JAN 90'
p2019
sS'MESSAGE TEMPLATE'
p2020
S'1'
sS'PHYS TGT TOTAL NUMBER'
p2021
S''
ssS'TST2MUC40057'
p2022
(dp2023
S'PERP ORGANIZATION CONFIDENCE'
p2024
S'REPORTED AS FACT ARMED FORCES HIGH COMMAND ARMED FORCES TREASURY POLICE'
p2025
sS'HUM TGT EFFECT OF INCIDENT'
p2026
S'DEATH JESUIT PRIESTS PRIESTS'
p2027
sS'INCIDENT LOCATION'
p2028
S'EL SALVADOR'
p2029
sS'PHYS TGT ID'
p2030
S''
sS'PERP INCIDENT CATEGORY'
p2031
S'STATESPONSORED VIOLENCE'
p2032
sS'PERP ORGANIZATION ID'
p2033
S'ARMED FORCES HIGH COMMAND ARMED FORCES TREASURY POLICE'
p2034
sS'HUM TGT TYPE'
p2035
S'CIVILIAN JESUIT PRIESTS PRIESTS'
p2036
sS'HUM TGT TOTAL NUMBER'
p2037
S''
sS'INCIDENT INSTRUMENT ID'
p2038
S''
sS'INCIDENT INSTRUMENT TYPE'
p2039
S''
sS'PHYS TGT FOREIGN NATION'
p2040
S''
sS'HUM TGT NUMBER'
p2041
S'6 JESUIT PRIESTS PRIESTS'
p2042
sS'PHYS TGT TYPE'
p2043
S''
sS'HUM TGT NAME'
p2044
S''
sS'INCIDENT TYPE'
p2045
S'ATTACK'
p2046
sS'PHYS TGT NUMBER'
p2047
S''
sS'PERP INDIVIDUAL ID'
p2048
S'COLONEL RENE EMILIO PONCE COLONEL RENE EMILIO PONCE CHAIRMAN OF THE JOINTS CHIEFS OF STAFF'
p2049
sS'INCIDENT STAGE OF EXECUTION'
p2050
S'ACCOMPLISHED'
p2051
sS'HUM TGT DESCRIPTION'
p2052
S'JESUIT PRIESTS PRIESTS'
p2053
sS'PHYS TGT EFFECT OF INCIDENT'
p2054
S''
sS'HUM TGT FOREIGN NATION'
p2055
S''
sS'INCIDENT DATE'
p2056
S''
sS'MESSAGE TEMPLATE'
p2057
S'1'
sS'PHYS TGT TOTAL NUMBER'
p2058
S''
ssS'TST2MUC40056'
p2059
(dp2060
S'NETHERLANDER'
p2061
S''
sS'HUM TGT EFFECT OF INCIDENT'
p2062
S'DEATH SALVADORANS'
p2063
sS'INCIDENT LOCATION'
p2064
S'EL SALVADOR'
p2065
sS'PHYS TGT ID'
p2066
S''
sS'SALVADORAN REPORTER'
p2067
S''
sS'PERP INCIDENT CATEGORY'
p2068
S'STATESPONSORED VIOLENCE'
p2069
sS'PERP ORGANIZATION CONFIDENCE'
p2070
S'POSSIBLE ARMED FORCES'
p2071
sS'PERP ORGANIZATION ID'
p2072
S'ARMED FORCES'
p2073
sS'HUM TGT TYPE'
p2074
S'CIVILIAN SALVADORANS'
p2075
sS'HUM TGT TOTAL NUMBER'
p2076
S''
sS'INCIDENT INSTRUMENT ID'
p2077
S''
sS'INCIDENT INSTRUMENT TYPE'
p2078
S''
sS'PHYS TGT FOREIGN NATION'
p2079
S''
sS'HUM TGT NUMBER'
p2080
S'2 SALVADORANS'
p2081
sS'PHYS TGT TYPE'
p2082
S''
sS'HUM TGT NAME'
p2083
S''
sS'CBS REPORTER'
p2084
S''
sS'INCIDENT TYPE'
p2085
S'ATTACK'
p2086
sS'PHYS TGT NUMBER'
p2087
S''
sS'PERP INDIVIDUAL ID'
p2088
S'GUARDS ARMED FORCES MEMBERS'
p2089
sS'INCIDENT STAGE OF EXECUTION'
p2090
S'ACCOMPLISHED'
p2091
sS'HUM TGT DESCRIPTION'
p2092
S'SALVADORANS'
p2093
sS'PHYS TGT EFFECT OF INCIDENT'
p2094
S''
sS'HUM TGT FOREIGN NATION'
p2095
S'NETHERLANDS NETHERLANDER'
p2096
sS'INCIDENT DATE'
p2097
S'19 MAR 89 19 MAR 89'
p2098
sS'MESSAGE TEMPLATE'
p2099
S'1'
sS'PHYS TGT TOTAL NUMBER'
p2100
S''
ssS'TST2MUC40100'
p2101
(dp2102
S'PERP ORGANIZATION CONFIDENCE'
p2103
S'REPORTED AS FACT CLAIMED OR ADMITTED ARMY OF NATIONAL LIBERATION'
p2104
sS'HUM TGT EFFECT OF INCIDENT'
p2105
S'REGAINED FREEDOM CARLOS MARCELO'
p2106
sS'INCIDENT LOCATION'
p2107
S'COLOMBIA'
p2108
sS'PHYS TGT ID'
p2109
S''
sS'PERP INCIDENT CATEGORY'
p2110
S'TERRORIST ACT'
p2111
sS'PERP ORGANIZATION ID'
p2112
S'ARMY OF NATIONAL LIBERATION'
p2113
sS'HUM TGT TYPE'
p2114
S'CIVILIAN CARLOS MARCELO'
p2115
sS'HUM TGT TOTAL NUMBER'
p2116
S''
sS'INCIDENT INSTRUMENT ID'
p2117
S''
sS'INCIDENT INSTRUMENT TYPE'
p2118
S''
sS'PHYS TGT FOREIGN NATION'
p2119
S''
sS'HUM TGT NUMBER'
p2120
S'1 CARLOS MARCELO'
p2121
sS'PHYS TGT TYPE'
p2122
S''
sS'HUM TGT NAME'
p2123
S'CARLOS MARCELO'
p2124
sS'INCIDENT TYPE'
p2125
S'KIDNAPPING'
p2126
sS'PHYS TGT NUMBER'
p2127
S''
sS'PERP INDIVIDUAL ID'
p2128
S'COLOMBIAN ARMY OF NATIONAL LIBERATION GUERRILLAS ARMY OF NATIONAL LIBERATION GUERRILLAS GUERRILLAS'
p2129
sS'BRASPETRO PETROBRAS INTERNATION'
p2130
S'AL INC ENGINEERS ENGINEERS'
p2131
sS'INCIDENT STAGE OF EXECUTION'
p2132
S'ACCOMPLISHED'
p2133
sS'HUM TGT DESCRIPTION'
p2134
S'REDE GLOBO JOURNALIST JOURNALIST CARLOS MARCELO'
p2135
sS'PHYS TGT EFFECT OF INCIDENT'
p2136
S''
sS'HUM TGT FOREIGN NATION'
p2137
S'BRAZIL CARLOS MARCELO'
p2138
sS'INCIDENT DATE'
p2139
S'26 MAY 89'
p2140
sS'MESSAGE TEMPLATE'
p2141
S'1'
sS'PHYS TGT TOTAL NUMBER'
p2142
S''
ssS'TST2MUC40028'
p2143
(dp2144
S'PERP ORGANIZATION CONFIDENCE'
p2145
S'SUSPECTED OR ACCUSED NATIONALIST REPUBLICAN ALLIANCE ARENA GOVERNMENT ALFREDO CRISTIANIS GOVERNMENT GOVERNMENT'
p2146
sS'HUM TGT EFFECT OF INCIDENT'
p2147
S''
sS'INCIDENT LOCATION'
p2148
S'EL SALVADOR CENTRAL AMERICAN UNIVERSITY UNIVERSITY EL SALVADOR NATIONAL UNIVERSITY UNIVERSITY'
p2149
sS'PHYS TGT ID'
p2150
S'CENTRAL AMERICAN UNIVERSITY UCA CENTRAL AMERICAN UNIVERSITY UCA NATIONAL UNIVERSITY'
p2151
sS'PERP INCIDENT CATEGORY'
p2152
S'STATESPONSORED VIOLENCE'
p2153
sS'PERP ORGANIZATION ID'
p2154
S'NATIONALIST REPUBLICAN ALLIANCE ARENA GOVERNMENT ALFREDO CRISTIANIS GOVERNMENT GOVERNMENT'
p2155
sS'HUM TGT TYPE'
p2156
S''
sS'HUM TGT TOTAL NUMBER'
p2157
S''
sS'INCIDENT INSTRUMENT ID'
p2158
S'BOMB'
p2159
sS'INCIDENT INSTRUMENT TYPE'
p2160
S'BOMB BOMB'
p2161
sS'PHYS TGT FOREIGN NATION'
p2162
S''
sS'HUM TGT NUMBER'
p2163
S''
sS'PHYS TGT TYPE'
p2164
S'OTHER CENTRAL AMERICAN UNIVERSITY UCA CENTRAL AMERICAN UNIVERSITY UCA NATIONAL UNIVERSITY'
p2165
sS'HUM TGT NAME'
p2166
S''
sS'INCIDENT TYPE'
p2167
S'BOMBING'
p2168
sS'PHYS TGT NUMBER'
p2169
S'1 CENTRAL AMERICAN UNIVERSITY UCA CENTRAL AMERICAN UNIVERSITY UCA NATIONAL UNIVERSITY'
p2170
sS'PERP INDIVIDUAL ID'
p2171
S''
sS'INCIDENT STAGE OF EXECUTION'
p2172
S'ACCOMPLISHED'
p2173
sS'HUM TGT DESCRIPTION'
p2174
S''
sS'PHYS TGT EFFECT OF INCIDENT'
p2175
S''
sS'HUM TGT FOREIGN NATION'
p2176
S''
sS'INCIDENT DATE'
p2177
S'22 JUL 89'
p2178
sS'MESSAGE TEMPLATE'
p2179
S'1'
sS'PHYS TGT TOTAL NUMBER'
p2180
S''
ssS'TST2MUC40029'
p2181
(dp2182
S'PERP ORGANIZATION CONFIDENCE'
p2183
S''
sS'HUM TGT EFFECT OF INCIDENT'
p2184
S''
sS'INCIDENT LOCATION'
p2185
S''
sS'PHYS TGT ID'
p2186
S''
sS'PERP INCIDENT CATEGORY'
p2187
S''
sS'PERP ORGANIZATION ID'
p2188
S''
sS'HUM TGT TYPE'
p2189
S''
sS'HUM TGT TOTAL NUMBER'
p2190
S''
sS'INCIDENT INSTRUMENT ID'
p2191
S''
sS'INCIDENT INSTRUMENT TYPE'
p2192
S''
sS'PHYS TGT FOREIGN NATION'
p2193
S''
sS'HUM TGT NUMBER'
p2194
S''
sS'PHYS TGT TYPE'
p2195
S''
sS'HUM TGT NAME'
p2196
S''
sS'INCIDENT TYPE'
p2197
S''
sS'PHYS TGT NUMBER'
p2198
S''
sS'PERP INDIVIDUAL ID'
p2199
S''
sS'INCIDENT STAGE OF EXECUTION'
p2200
S''
sS'HUM TGT DESCRIPTION'
p2201
S''
sS'PHYS TGT EFFECT OF INCIDENT'
p2202
S''
sS'HUM TGT FOREIGN NATION'
p2203
S''
sS'INCIDENT DATE'
p2204
S''
sS'MESSAGE TEMPLATE'
p2205
S''
sS'PHYS TGT TOTAL NUMBER'
p2206
S''
ssS'TST2MUC40024'
p2207
(dp2208
S'PERP ORGANIZATION CONFIDENCE'
p2209
S'SUSPECTED OR ACCUSED BY AUTHORITIES FMLN'
p2210
sS'HUM TGT EFFECT OF INCIDENT'
p2211
S''
sS'INCIDENT LOCATION'
p2212
S'EL SALVADOR SAN SALVADOR CITY'
p2213
sS'PHYS TGT ID'
p2214
S''
sS'PERP INCIDENT CATEGORY'
p2215
S'TERRORIST ACT'
p2216
sS'PERP ORGANIZATION ID'
p2217
S'FMLN'
p2218
sS'HUM TGT TYPE'
p2219
S'CIVILIAN RELATIVE OF COLONEL LOPEZ HUILA'
p2220
sS'HUM TGT TOTAL NUMBER'
p2221
S''
sS'INCIDENT INSTRUMENT ID'
p2222
S''
sS'INCIDENT INSTRUMENT TYPE'
p2223
S''
sS'PHYS TGT FOREIGN NATION'
p2224
S''
sS'HUM TGT NUMBER'
p2225
S'1 RELATIVE OF COLONEL LOPEZ HUILA'
p2226
sS'PHYS TGT TYPE'
p2227
S''
sS'HUM TGT NAME'
p2228
S''
sS'INCIDENT TYPE'
p2229
S'ATTACK'
p2230
sS'PHYS TGT NUMBER'
p2231
S''
sS'PERP INDIVIDUAL ID'
p2232
S''
sS'INCIDENT STAGE OF EXECUTION'
p2233
S'ACCOMPLISHED'
p2234
sS'HUM TGT DESCRIPTION'
p2235
S'RELATIVE OF COLONEL LOPEZ HUILA'
p2236
sS'PHYS TGT EFFECT OF INCIDENT'
p2237
S''
sS'HUM TGT FOREIGN NATION'
p2238
S''
sS'INCIDENT DATE'
p2239
S''
sS'MESSAGE TEMPLATE'
p2240
S'2'
sS'PHYS TGT TOTAL NUMBER'
p2241
S''
ssS'TST2MUC40025'
p2242
(dp2243
S'PERP ORGANIZATION CONFIDENCE'
p2244
S''
sS'HUM TGT EFFECT OF INCIDENT'
p2245
S'DEATH JESUIT PRIESTS COMMUNITY OF JESUIT PRIESTS PRIESTS'
p2246
sS'INCIDENT LOCATION'
p2247
S'EL SALVADOR SAN SALVADOR CITY EL SALVADOR SAN SALVADOR DEPARTMENT'
p2248
sS'PHYS TGT ID'
p2249
S''
sS'PERP INCIDENT CATEGORY'
p2250
S''
sS'PERP ORGANIZATION ID'
p2251
S''
sS'HUM TGT TYPE'
p2252
S'CIVILIAN JESUIT PRIESTS COMMUNITY OF JESUIT PRIESTS PRIESTS'
p2253
sS'HUM TGT TOTAL NUMBER'
p2254
S'6'
sS'INCIDENT INSTRUMENT ID'
p2255
S''
sS'INCIDENT INSTRUMENT TYPE'
p2256
S''
sS'PHYS TGT FOREIGN NATION'
p2257
S''
sS'HUM TGT NUMBER'
p2258
S'1 IGNACIO ELLACURIA'
p2259
sS'4 JESUIT PRIESTS COMMUNITY'
p2260
S'OF JESUIT PRIESTS PRIESTS'
p2261
sS'PHYS TGT TYPE'
p2262
S''
sS'HUM TGT NAME'
p2263
S'IGNACIO ELLACURIA'
p2264
sS'WOMEN'
p2265
S''
sS'INCIDENT TYPE'
p2266
S'ATTACK'
p2267
sS'PHYS TGT NUMBER'
p2268
S''
sS'PERP INDIVIDUAL ID'
p2269
S'UNIFORMED MEN'
p2270
sS'INCIDENT STAGE OF EXECUTION'
p2271
S'ACCOMPLISHED'
p2272
sS'HUM TGT DESCRIPTION'
p2273
S'CENTRAL AMERICAN UNIVERSITY RECTOR RECTOR IGNACIO ELLACURIA'
p2274
sS'PHYS TGT EFFECT OF INCIDENT'
p2275
S''
sS'HUM TGT FOREIGN NATION'
p2276
S''
sS'INCIDENT DATE'
p2277
S'16 NOV 89'
p2278
sS'MESSAGE TEMPLATE'
p2279
S'1'
sS'PHYS TGT TOTAL NUMBER'
p2280
S''
ssS'TST2MUC40026'
p2281
(dp2282
S'PERP ORGANIZATION CONFIDENCE'
p2283
S'POSSIBLE SUSPECTED OR ACCUSED BY AUTHORITIES ARMY'
p2284
sS'HUM TGT EFFECT OF INCIDENT'
p2285
S'DEATH BERNARDO JARAMILLO'
p2286
sS'INCIDENT LOCATION'
p2287
S'COLOMBIA'
p2288
sS'PHYS TGT ID'
p2289
S''
sS'PERP INCIDENT CATEGORY'
p2290
S'TERRORIST ACT STATESPONSORED VIOLENCE'
p2291
sS'PERP ORGANIZATION ID'
p2292
S'ARMY'
p2293
sS'HUM TGT TYPE'
p2294
S'POLITICAL FIGURE BERNARDO JARAMILLO'
p2295
sS'HUM TGT TOTAL NUMBER'
p2296
S''
sS'INCIDENT INSTRUMENT ID'
p2297
S''
sS'INCIDENT INSTRUMENT TYPE'
p2298
S''
sS'PHYS TGT FOREIGN NATION'
p2299
S''
sS'HUM TGT NUMBER'
p2300
S'1 BERNARDO JARAMILLO'
p2301
sS'PHYS TGT TYPE'
p2302
S''
sS'HUM TGT NAME'
p2303
S'BERNARDO JARAMILLO'
p2304
sS'INCIDENT TYPE'
p2305
S'ATTACK'
p2306
sS'PHYS TGT NUMBER'
p2307
S''
sS'PERP INDIVIDUAL ID'
p2308
S'FIDEL CASTANO'
p2309
sS'INCIDENT STAGE OF EXECUTION'
p2310
S'ACCOMPLISHED'
p2311
sS'HUM TGT DESCRIPTION'
p2312
S'PRESIDENTIAL CANDIDATE BERNARDO JARAMILLO'
p2313
sS'PHYS TGT EFFECT OF INCIDENT'
p2314
S''
sS'HUM TGT FOREIGN NATION'
p2315
S''
sS'INCIDENT DATE'
p2316
S'22 MAR 90'
p2317
sS'MESSAGE TEMPLATE'
p2318
S'2'
sS'PHYS TGT TOTAL NUMBER'
p2319
S''
ssS'TST2MUC40027'
p2320
(dp2321
S'PERP ORGANIZATION CONFIDENCE'
p2322
S'REPORTED AS FACT FMLN'
p2323
sS'HUM TGT EFFECT OF INCIDENT'
p2324
S''
sS'INCIDENT LOCATION'
p2325
S'EL SALVADOR CHALATENANGO CITY EL SALVADOR CHALATENANGO COUNTY EL SALVADOR CHALATENANGO DEPARTMENT EL SALVADOR CHALATENANGO JURISDICTION'
p2326
sS'PHYS TGT ID'
p2327
S''
sS'PERP INCIDENT CATEGORY'
p2328
S'TERRORIST ACT'
p2329
sS'PERP ORGANIZATION ID'
p2330
S'FMLN'
p2331
sS'HUM TGT TYPE'
p2332
S'CIVILIAN YOUTHS'
p2333
sS'HUM TGT TOTAL NUMBER'
p2334
S''
sS'INCIDENT INSTRUMENT ID'
p2335
S''
sS'INCIDENT INSTRUMENT TYPE'
p2336
S''
sS'PHYS TGT FOREIGN NATION'
p2337
S''
sS'HUM TGT NUMBER'
p2338
S'PLURAL YOUTHS'
p2339
sS'PHYS TGT TYPE'
p2340
S''
sS'HUM TGT NAME'
p2341
S''
sS'INCIDENT TYPE'
p2342
S'KIDNAPPING'
p2343
sS'PHYS TGT NUMBER'
p2344
S''
sS'PERP INDIVIDUAL ID'
p2345
S''
sS'INCIDENT STAGE OF EXECUTION'
p2346
S'ACCOMPLISHED'
p2347
sS'HUM TGT DESCRIPTION'
p2348
S'YOUTHS'
p2349
sS'PHYS TGT EFFECT OF INCIDENT'
p2350
S''
sS'HUM TGT FOREIGN NATION'
p2351
S''
sS'INCIDENT DATE'
p2352
S'06 DEC 89'
p2353
sS'MESSAGE TEMPLATE'
p2354
S'3 OPTIONAL'
p2355
sS'PHYS TGT TOTAL NUMBER'
p2356
S''
ssS'TST2MUC40020'
p2357
(dp2358
S'PERP ORGANIZATION CONFIDENCE'
p2359
S'CLAIMED OR ADMITTED THE EXTRADITABLES EXTRADITABLES'
p2360
sS'HUM TGT EFFECT OF INCIDENT'
p2361
S'DEATH DISFIGURED BODIES DISFIGURED BODIES OF THE VICTIMS DISFIGURED BODIES OF THE VICTIMS OF AVIANCAS BOEING 727 DISFIGURED BODIES OF THE VICTIMS OF AVIANCAS BOEING 727 THAT EXPLODED IN MIDAIR IN A SPARSELY POPULATED REGION NEAR BOGOTA VICTIMS'
p2362
sS'INCIDENT LOCATION'
p2363
S'COLOMBIA BOGOTA CITY EL DORADO INTERNATIONAL AIRPORT AIRPORT COLOMBIA BOGOTA CITY'
p2364
sS'PHYS TGT ID'
p2365
S'PLANE AVIANCAS BOEING 727 AVIANCAS BOEING 727 THAT EXPLODED IN MIDAIR IN A SPARSELY POPULATED REGION NEAR BOGOTA'
p2366
sS'PERP INCIDENT CATEGORY'
p2367
S'TERRORIST ACT'
p2368
sS'PERP ORGANIZATION ID'
p2369
S'THE EXTRADITABLES EXTRADITABLES'
p2370
sS'HUM TGT TYPE'
p2371
S'CIVILIAN DISFIGURED BODIES DISFIGURED BODIES OF THE VICTIMS DISFIGURED BODIES OF THE VICTIMS OF AVIANCAS BOEING 727 DISFIGURED BODIES OF THE VICTIMS OF AVIANCAS BOEING 727 THAT EXPLODED IN MIDAIR IN A SPARSELY POPULATED REGION NEAR BOGOTA VICTIMS'
p2372
sS'HUM TGT TOTAL NUMBER'
p2373
S'107'
p2374
sS'INCIDENT INSTRUMENT ID'
p2375
S''
sS'INCIDENT INSTRUMENT TYPE'
p2376
S'EXPLOSIVE'
p2377
sS'PHYS TGT FOREIGN NATION'
p2378
S''
sS'HUM TGT NUMBER'
p2379
S'107 DISFIGURED BODIES DISFIGURED BODIES OF THE VICTIMS DISFIGURED BODIES OF THE VICTIMS OF AVIANCAS BOEING 727 DISFIGURED BODIES OF THE VICTIMS OF AVIANCAS BOEING 727 THAT EXPLODED IN MIDAIR IN A SPARSELY POPULATED REGION NEAR BOGOTA VICTIMS'
p2380
sS'PHYS TGT TYPE'
p2381
S'TRANSPORT VEHICLE PLANE AVIANCAS BOEING 727 AVIANCAS BOEING 727 THAT EXPLODED IN MIDAIR IN A SPARSELY POPULATED REGION NEAR BOGOTA'
p2382
sS'HUM TGT NAME'
p2383
S''
sS'INCIDENT TYPE'
p2384
S'BOMBING'
p2385
sS'PHYS TGT NUMBER'
p2386
S'1 PLANE AVIANCAS BOEING 727 AVIANCAS BOEING 727 THAT EXPLODED IN MIDAIR IN A SPARSELY POPULATED REGION NEAR BOGOTA'
p2387
sS'INFORMERS'
p2388
S''
sS'PERP INDIVIDUAL ID'
p2389
S'COLOMBIAN DRUG KINGPINS'
p2390
sS'INCIDENT STAGE OF EXECUTION'
p2391
S'ACCOMPLISHED'
p2392
sS'HUM TGT DESCRIPTION'
p2393
S'DISFIGURED BODIES DISFIGURED BODIES OF THE VICTIMS DISFIGURED BODIES OF THE VICTIMS OF AVIANCAS BOEING 727 DISFIGURED BODIES OF THE VICTIMS OF AVIANCAS BOEING 727 THAT EXPLODED IN MIDAIR IN A SPARSELY POPULATED REGION NEAR BOGOTA VICTIMS'
p2394
sS'PHYS TGT EFFECT OF INCIDENT'
p2395
S'DESTROYED PLANE AVIANCAS BOEING 727 AVIANCAS BOEING 727 THAT EXPLODED IN MIDAIR IN A SPARSELY POPULATED REGION NEAR BOGOTA'
p2396
sS'HUM TGT FOREIGN NATION'
p2397
S''
sS'INCIDENT DATE'
p2398
S'27 NOV 89'
p2399
sS'MESSAGE TEMPLATE'
p2400
S'1'
sS'PHYS TGT TOTAL NUMBER'
p2401
S''
ssS'TST2MUC40021'
p2402
(dp2403
S'PERP ORGANIZATION CONFIDENCE'
p2404
S''
sS'HUM TGT EFFECT OF INCIDENT'
p2405
S''
sS'INCIDENT LOCATION'
p2406
S'EL SALVADOR SAN SALVADOR CITY CUSCATANCINGO NEIGHBORHOOD'
p2407
sS'PHYS TGT ID'
p2408
S'ELECTRICITY POLES'
p2409
sS'PERP INCIDENT CATEGORY'
p2410
S'TERRORIST ACT'
p2411
sS'PERP ORGANIZATION ID'
p2412
S''
sS'HUM TGT TYPE'
p2413
S''
sS'HUM TGT TOTAL NUMBER'
p2414
S''
sS'INCIDENT INSTRUMENT ID'
p2415
S'DYNAMITE'
p2416
sS'INCIDENT INSTRUMENT TYPE'
p2417
S'DYNAMITE DYNAMITE'
p2418
sS'PHYS TGT FOREIGN NATION'
p2419
S''
sS'HUM TGT NUMBER'
p2420
S''
sS'PHYS TGT TYPE'
p2421
S'ENERGY ELECTRICITY POLES'
p2422
sS'HUM TGT NAME'
p2423
S''
sS'INCIDENT TYPE'
p2424
S'BOMBING'
p2425
sS'PHYS TGT NUMBER'
p2426
S'PLURAL ELECTRICITY POLES'
p2427
sS'PERP INDIVIDUAL ID'
p2428
S'REBELS'
p2429
sS'INCIDENT STAGE OF EXECUTION'
p2430
S'ACCOMPLISHED'
p2431
sS'HUM TGT DESCRIPTION'
p2432
S''
sS'PHYS TGT EFFECT OF INCIDENT'
p2433
S'DESTROYED ELECTRICITY POLES'
p2434
sS'HUM TGT FOREIGN NATION'
p2435
S''
sS'INCIDENT DATE'
p2436
S'08 MAR 90 07 MAR 90 08 MAR 90'
p2437
sS'MESSAGE TEMPLATE'
p2438
S'4'
sS'PHYS TGT TOTAL NUMBER'
p2439
S''
ssS'TST2MUC40022'
p2440
(dp2441
S'PERP ORGANIZATION CONFIDENCE'
p2442
S''
sS'HUM TGT EFFECT OF INCIDENT'
p2443
S'DEATH CARLOS PIZARRO'
p2444
sS'INCIDENT LOCATION'
p2445
S'COLOMBIA'
p2446
sS'PHYS TGT ID'
p2447
S''
sS'PERP INCIDENT CATEGORY'
p2448
S'TERRORIST ACT'
p2449
sS'PERP ORGANIZATION ID'
p2450
S''
sS'HUM TGT TYPE'
p2451
S'POLITICAL FIGURE CARLOS PIZARRO'
p2452
sS'HUM TGT TOTAL NUMBER'
p2453
S''
sS'INCIDENT INSTRUMENT ID'
p2454
S''
sS'INCIDENT INSTRUMENT TYPE'
p2455
S''
sS'PHYS TGT FOREIGN NATION'
p2456
S''
sS'HUM TGT NUMBER'
p2457
S'1 CARLOS PIZARRO'
p2458
sS'PHYS TGT TYPE'
p2459
S''
sS'HUM TGT NAME'
p2460
S'CARLOS PIZARRO'
p2461
sS'INCIDENT TYPE'
p2462
S'ATTACK'
p2463
sS'PHYS TGT NUMBER'
p2464
S''
sS'PERP INDIVIDUAL ID'
p2465
S'NARCOTRAFFICKING MAFIAS NARCOTRAFFICKERS DRUG MAFIAS MAFIA LORDS DRUG TERRORISTS'
p2466
sS'INCIDENT STAGE OF EXECUTION'
p2467
S'ACCOMPLISHED'
p2468
sS'HUM TGT DESCRIPTION'
p2469
S''
sS'PHYS TGT EFFECT OF INCIDENT'
p2470
S''
sS'HUM TGT FOREIGN NATION'
p2471
S''
sS'INCIDENT DATE'
p2472
S'19 MAY 90'
p2473
sS'MESSAGE TEMPLATE'
p2474
S'1'
sS'PHYS TGT TOTAL NUMBER'
p2475
S''
ssS'TST2MUC40023'
p2476
(dp2477
S'PERP ORGANIZATION CONFIDENCE'
p2478
S''
sS'HUM TGT EFFECT OF INCIDENT'
p2479
S'DEATH JESUITS JESUIT PRIESTS PRIESTS'
p2480
sS'INCIDENT LOCATION'
p2481
S'EL SALVADOR'
p2482
sS'PHYS TGT ID'
p2483
S''
sS'PERP INCIDENT CATEGORY'
p2484
S'STATESPONSORED VIOLENCE'
p2485
sS'PERP ORGANIZATION ID'
p2486
S''
sS'HUM TGT TYPE'
p2487
S'CIVILIAN JESUITS JESUIT PRIESTS PRIESTS'
p2488
sS'HUM TGT TOTAL NUMBER'
p2489
S''
sS'INCIDENT INSTRUMENT ID'
p2490
S''
sS'INCIDENT INSTRUMENT TYPE'
p2491
S''
sS'PHYS TGT FOREIGN NATION'
p2492
S''
sS'HUM TGT NUMBER'
p2493
S'PLURAL JESUITS JESUIT PRIESTS PRIESTS'
p2494
sS'PHYS TGT TYPE'
p2495
S''
sS'HUM TGT NAME'
p2496
S''
sS'INCIDENT TYPE'
p2497
S'ATTACK'
p2498
sS'PHYS TGT NUMBER'
p2499
S''
sS'PERP INDIVIDUAL ID'
p2500
S'SOLDIERS'
p2501
sS'INCIDENT STAGE OF EXECUTION'
p2502
S'ACCOMPLISHED'
p2503
sS'HUM TGT DESCRIPTION'
p2504
S'JESUITS JESUIT PRIESTS PRIESTS'
p2505
sS'PHYS TGT EFFECT OF INCIDENT'
p2506
S''
sS'HUM TGT FOREIGN NATION'
p2507
S''
sS'INCIDENT DATE'
p2508
S'21 JAN 90'
p2509
sS'MESSAGE TEMPLATE'
p2510
S'2'
sS'PHYS TGT TOTAL NUMBER'
p2511
S''
ssS'TST2MUC40039'
p2512
(dp2513
S'JAMES ARTHUR DONNELLY'
p2514
S''
sS'PERP ORGANIZATION CONFIDENCE'
p2515
S'REPORTED AS FACT ARMY OF NATIONAL LIBERATION ELN'
p2516
sS'HUM TGT EFFECT OF INCIDENT'
p2517
S''
sS'INCIDENT LOCATION'
p2518
S'COLOMBIA MEDELLIN CITY'
p2519
sS'PHYS TGT ID'
p2520
S''
sS'PERP INCIDENT CATEGORY'
p2521
S'TERRORIST ACT'
p2522
sS'PERP ORGANIZATION ID'
p2523
S'ARMY OF NATIONAL LIBERATION ELN'
p2524
sS'HUM TGT TYPE'
p2525
S'CIVILIAN LESLIE KENT'
p2526
sS'HUM TGT TOTAL NUMBER'
p2527
S'2'
sS'INCIDENT INSTRUMENT ID'
p2528
S''
sS'INCIDENT INSTRUMENT TYPE'
p2529
S''
sS'PHYS TGT FOREIGN NATION'
p2530
S''
sS'HUM TGT NUMBER'
p2531
S'1 LESLIE KENT'
p2532
sS'PHYS TGT TYPE'
p2533
S''
sS'HUM TGT NAME'
p2534
S'LESLIE KENT'
p2535
sS'INCIDENT TYPE'
p2536
S'KIDNAPPING'
p2537
sS'PHYS TGT NUMBER'
p2538
S''
sS'PERP INDIVIDUAL ID'
p2539
S'NELSON MANDELA CELL OF THE ELN NELSON MANDELA CELL'
p2540
sS'INCIDENT STAGE OF EXECUTION'
p2541
S'ACCOMPLISHED'
p2542
sS'HUM TGT DESCRIPTION'
p2543
S'PROFESSOR OF THE COLUMBUS SCHOOL IN MEDELLIN PROFESSOR OF THE COLUMBUS SCHOOL PROFESSOR LESLIE KENT'
p2544
sS'PHYS TGT EFFECT OF INCIDENT'
p2545
S''
sS'HUM TGT FOREIGN NATION'
p2546
S'UNITED STATES JAMES ARTHUR DONNELLY'
p2547
sS'INCIDENT DATE'
p2548
S'13 DEC 89'
p2549
sS'MESSAGE TEMPLATE'
p2550
S'2 OPTIONAL'
p2551
sS'PHYS TGT TOTAL NUMBER'
p2552
S''
ssS'TST2MUC40038'
p2553
(dp2554
S'PERP ORGANIZATION CONFIDENCE'
p2555
S''
sS'HUM TGT EFFECT OF INCIDENT'
p2556
S''
sS'INCIDENT LOCATION'
p2557
S''
sS'PHYS TGT ID'
p2558
S''
sS'PERP INCIDENT CATEGORY'
p2559
S''
sS'PERP ORGANIZATION ID'
p2560
S''
sS'HUM TGT TYPE'
p2561
S''
sS'HUM TGT TOTAL NUMBER'
p2562
S''
sS'INCIDENT INSTRUMENT ID'
p2563
S''
sS'INCIDENT INSTRUMENT TYPE'
p2564
S''
sS'PHYS TGT FOREIGN NATION'
p2565
S''
sS'HUM TGT NUMBER'
p2566
S''
sS'PHYS TGT TYPE'
p2567
S''
sS'HUM TGT NAME'
p2568
S''
sS'INCIDENT TYPE'
p2569
S''
sS'PHYS TGT NUMBER'
p2570
S''
sS'PERP INDIVIDUAL ID'
p2571
S''
sS'INCIDENT STAGE OF EXECUTION'
p2572
S''
sS'HUM TGT DESCRIPTION'
p2573
S''
sS'PHYS TGT EFFECT OF INCIDENT'
p2574
S''
sS'HUM TGT FOREIGN NATION'
p2575
S''
sS'INCIDENT DATE'
p2576
S''
sS'MESSAGE TEMPLATE'
p2577
S''
sS'PHYS TGT TOTAL NUMBER'
p2578
S''
ssS'TST2MUC40037'
p2579
(dp2580
S'PERP ORGANIZATION CONFIDENCE'
p2581
S''
sS'HUM TGT EFFECT OF INCIDENT'
p2582
S''
sS'INCIDENT LOCATION'
p2583
S''
sS'PHYS TGT ID'
p2584
S''
sS'PERP INCIDENT CATEGORY'
p2585
S''
sS'PERP ORGANIZATION ID'
p2586
S''
sS'HUM TGT TYPE'
p2587
S''
sS'HUM TGT TOTAL NUMBER'
p2588
S''
sS'INCIDENT INSTRUMENT ID'
p2589
S''
sS'INCIDENT INSTRUMENT TYPE'
p2590
S''
sS'PHYS TGT FOREIGN NATION'
p2591
S''
sS'HUM TGT NUMBER'
p2592
S''
sS'PHYS TGT TYPE'
p2593
S''
sS'HUM TGT NAME'
p2594
S''
sS'INCIDENT TYPE'
p2595
S''
sS'PHYS TGT NUMBER'
p2596
S''
sS'PERP INDIVIDUAL ID'
p2597
S''
sS'INCIDENT STAGE OF EXECUTION'
p2598
S''
sS'HUM TGT DESCRIPTION'
p2599
S''
sS'PHYS TGT EFFECT OF INCIDENT'
p2600
S''
sS'HUM TGT FOREIGN NATION'
p2601
S''
sS'INCIDENT DATE'
p2602
S''
sS'MESSAGE TEMPLATE'
p2603
S''
sS'PHYS TGT TOTAL NUMBER'
p2604
S''
ssS'TST2MUC40036'
p2605
(dp2606
S'PERP ORGANIZATION CONFIDENCE'
p2607
S'REPORTED AS FACT ATONAL BATTALION'
p2608
sS'HUM TGT EFFECT OF INCIDENT'
p2609
S''
sS'INCIDENT LOCATION'
p2610
S'EL SALVADOR'
p2611
sS'PHYS TGT ID'
p2612
S''
sS'PERP INCIDENT CATEGORY'
p2613
S'STATESPONSORED VIOLENCE'
p2614
sS'PERP ORGANIZATION ID'
p2615
S'ATONAL BATTALION'
p2616
sS'HUM TGT TYPE'
p2617
S'CIVILIAN ROBERTO MENA'
p2618
sS'HUM TGT TOTAL NUMBER'
p2619
S''
sS'INCIDENT INSTRUMENT ID'
p2620
S''
sS'INCIDENT INSTRUMENT TYPE'
p2621
S''
sS'PHYS TGT FOREIGN NATION'
p2622
S''
sS'HUM TGT NUMBER'
p2623
S'1 ROBERTO MENA'
p2624
sS'PHYS TGT TYPE'
p2625
S''
sS'HUM TGT NAME'
p2626
S'ROBERTO MENA'
p2627
sS'INCIDENT TYPE'
p2628
S'KIDNAPPING'
p2629
sS'PHYS TGT NUMBER'
p2630
S''
sS'PERP INDIVIDUAL ID'
p2631
S'ATONAL BATTALION TROOPS TROOPS'
p2632
sS'INCIDENT STAGE OF EXECUTION'
p2633
S'ACCOMPLISHED'
p2634
sS'HUM TGT DESCRIPTION'
p2635
S''
sS'PHYS TGT EFFECT OF INCIDENT'
p2636
S''
sS'HUM TGT FOREIGN NATION'
p2637
S''
sS'INCIDENT DATE'
p2638
S'05 FEB 89'
p2639
sS'MESSAGE TEMPLATE'
p2640
S'10 OPTIONAL'
p2641
sS'PHYS TGT TOTAL NUMBER'
p2642
S''
ssS'TST2MUC40035'
p2643
(dp2644
S'PERP ORGANIZATION CONFIDENCE'
p2645
S''
sS'HUM TGT EFFECT OF INCIDENT'
p2646
S''
sS'INCIDENT LOCATION'
p2647
S''
sS'PHYS TGT ID'
p2648
S''
sS'PERP INCIDENT CATEGORY'
p2649
S''
sS'PERP ORGANIZATION ID'
p2650
S''
sS'HUM TGT TYPE'
p2651
S''
sS'HUM TGT TOTAL NUMBER'
p2652
S''
sS'INCIDENT INSTRUMENT ID'
p2653
S''
sS'INCIDENT INSTRUMENT TYPE'
p2654
S''
sS'PHYS TGT FOREIGN NATION'
p2655
S''
sS'HUM TGT NUMBER'
p2656
S''
sS'PHYS TGT TYPE'
p2657
S''
sS'HUM TGT NAME'
p2658
S''
sS'INCIDENT TYPE'
p2659
S''
sS'PHYS TGT NUMBER'
p2660
S''
sS'PERP INDIVIDUAL ID'
p2661
S''
sS'INCIDENT STAGE OF EXECUTION'
p2662
S''
sS'HUM TGT DESCRIPTION'
p2663
S''
sS'PHYS TGT EFFECT OF INCIDENT'
p2664
S''
sS'HUM TGT FOREIGN NATION'
p2665
S''
sS'INCIDENT DATE'
p2666
S''
sS'MESSAGE TEMPLATE'
p2667
S''
sS'PHYS TGT TOTAL NUMBER'
p2668
S''
ssS'TST2MUC40034'
p2669
(dp2670
S'PERP ORGANIZATION CONFIDENCE'
p2671
S''
sS'HUM TGT EFFECT OF INCIDENT'
p2672
S'DEATH EDUARDO ANTONIO LOPEZ PALENCIA'
p2673
sS'INCIDENT LOCATION'
p2674
S'GUATEMALA'
p2675
sS'PHYS TGT ID'
p2676
S''
sS'PERP INCIDENT CATEGORY'
p2677
S''
sS'PERP ORGANIZATION ID'
p2678
S''
sS'HUM TGT TYPE'
p2679
S'CIVILIAN EDUARDO ANTONIO LOPEZ PALENCIA'
p2680
sS'HUM TGT TOTAL NUMBER'
p2681
S''
sS'INCIDENT INSTRUMENT ID'
p2682
S''
sS'INCIDENT INSTRUMENT TYPE'
p2683
S''
sS'PHYS TGT FOREIGN NATION'
p2684
S''
sS'HUM TGT NUMBER'
p2685
S'1 EDUARDO ANTONIO LOPEZ PALENCIA'
p2686
sS'PHYS TGT TYPE'
p2687
S''
sS'HUM TGT NAME'
p2688
S'EDUARDO ANTONIO LOPEZ PALENCIA'
p2689
sS'INCIDENT TYPE'
p2690
S'KIDNAPPING'
p2691
sS'PHYS TGT NUMBER'
p2692
S''
sS'PERP INDIVIDUAL ID'
p2693
S''
sS'INCIDENT STAGE OF EXECUTION'
p2694
S'ACCOMPLISHED'
p2695
sS'HUM TGT DESCRIPTION'
p2696
S'STUDENT EDUARDO ANTONIO LOPEZ PALENCIA'
p2697
sS'PHYS TGT EFFECT OF INCIDENT'
p2698
S''
sS'HUM TGT FOREIGN NATION'
p2699
S''
sS'INCIDENT DATE'
p2700
S'15 SEP 89'
p2701
sS'MESSAGE TEMPLATE'
p2702
S'4'
sS'PHYS TGT TOTAL NUMBER'
p2703
S''
ssS'TST2MUC40033'
p2704
(dp2705
S'PERP ORGANIZATION CONFIDENCE'
p2706
S''
sS'HUM TGT EFFECT OF INCIDENT'
p2707
S'DEATH FRANCISCO JOSE GUERRERO'
p2708
sS'INCIDENT LOCATION'
p2709
S'EL SALVADOR SAN SALVADOR CITY EL SALVADOR'
p2710
sS'PHYS TGT ID'
p2711
S''
sS'PERP INCIDENT CATEGORY'
p2712
S'TERRORIST ACT'
p2713
sS'PERP ORGANIZATION ID'
p2714
S''
sS'HUM TGT TYPE'
p2715
S'FORMER GOVERNMENT OFFICIAL CIVILIAN FRANCISCO JOSE GUERRERO'
p2716
sS'HUM TGT TOTAL NUMBER'
p2717
S''
sS'INCIDENT INSTRUMENT ID'
p2718
S''
sS'INCIDENT INSTRUMENT TYPE'
p2719
S'GUN'
p2720
sS'PHYS TGT FOREIGN NATION'
p2721
S''
sS'HUM TGT NUMBER'
p2722
S'1 FRANCISCO JOSE GUERRERO'
p2723
sS'PHYS TGT TYPE'
p2724
S''
sS'HUM TGT NAME'
p2725
S'FRANCISCO JOSE GUERRERO'
p2726
sS'INCIDENT TYPE'
p2727
S'ATTACK'
p2728
sS'PHYS TGT NUMBER'
p2729
S''
sS'PERP INDIVIDUAL ID'
p2730
S'TERRORISTS CRIMINALS'
p2731
sS'INCIDENT STAGE OF EXECUTION'
p2732
S'ACCOMPLISHED'
p2733
sS'HUM TGT DESCRIPTION'
p2734
S'FORMER SUPREME COURT PRESIDENT ADVISER TO THE GOVERNMENT COMMISSION FOR SUPPORT TO THE DIALOGUE ADVISER TO THE GOVERNMENT COMMISSION FOR SUPPORT TO THE DIALOGUE COMISION DE APOYO GUBERNAMENTAL DE DIALOGO FRANCISCO JOSE GUERRERO'
p2735
sS'PHYS TGT EFFECT OF INCIDENT'
p2736
S''
sS'HUM TGT FOREIGN NATION'
p2737
S''
sS'INCIDENT DATE'
p2738
S'28 NOV 89 28 NOV 89'
p2739
sS'MESSAGE TEMPLATE'
p2740
S'1'
sS'PHYS TGT TOTAL NUMBER'
p2741
S''
ssS'TST2MUC40032'
p2742
(dp2743
S'PERP ORGANIZATION CONFIDENCE'
p2744
S'CLAIMED OR ADMITTED THE EXTRADITABLES EXTRADITABLES'
p2745
sS'HUM TGT EFFECT OF INCIDENT'
p2746
S''
sS'INCIDENT LOCATION'
p2747
S'COLOMBIA COLOMBIA BOGOTA CITY'
p2748
sS'PHYS TGT ID'
p2749
S''
sS'PERP INCIDENT CATEGORY'
p2750
S'TERRORIST ACT'
p2751
sS'PERP ORGANIZATION ID'
p2752
S'THE EXTRADITABLES EXTRADITABLES'
p2753
sS'HUM TGT TYPE'
p2754
S'POLITICAL FIGURE POLITICAL FIGURES'
p2755
sS'HUM TGT TOTAL NUMBER'
p2756
S''
sS'INCIDENT INSTRUMENT ID'
p2757
S''
sS'INCIDENT INSTRUMENT TYPE'
p2758
S''
sS'PHYS TGT FOREIGN NATION'
p2759
S''
sS'HUM TGT NUMBER'
p2760
S'1 CESAR GAVIRIA TRUJILLO'
p2761
sS'PHYS TGT TYPE'
p2762
S''
sS'HUM TGT NAME'
p2763
S'CESAR GAVIRIA TRUJILLO'
p2764
sS'INCIDENT TYPE'
p2765
S'ATTACK'
p2766
sS'PHYS TGT NUMBER'
p2767
S''
sS'PERP INDIVIDUAL ID'
p2768
S'CALLERS'
p2769
sS'INCIDENT STAGE OF EXECUTION'
p2770
S'THREATENED'
p2771
sS'HUM TGT DESCRIPTION'
p2772
S'LIBERAL PARTY CANDIDATE CESAR GAVIRIA TRUJILLO'
p2773
sS'PHYS TGT EFFECT OF INCIDENT'
p2774
S''
sS'HUM TGT FOREIGN NATION'
p2775
S''
sS'INCIDENT DATE'
p2776
S'22 MAR 90'
p2777
sS'MESSAGE TEMPLATE'
p2778
S'2'
sS'PHYS TGT TOTAL NUMBER'
p2779
S''
ssS'TST2MUC40031'
p2780
(dp2781
S'PERP ORGANIZATION CONFIDENCE'
p2782
S''
sS'HUM TGT EFFECT OF INCIDENT'
p2783
S''
sS'INCIDENT LOCATION'
p2784
S'HONDURAS INTIBUCA DEPARTMENT LOS LLANITOS CITY'
p2785
sS'PHYS TGT ID'
p2786
S'HELICOPTER'
p2787
sS'PERP INCIDENT CATEGORY'
p2788
S'STATESPONSORED VIOLENCE'
p2789
sS'PERP ORGANIZATION ID'
p2790
S''
sS'HUM TGT TYPE'
p2791
S''
sS'HUM TGT TOTAL NUMBER'
p2792
S''
sS'INCIDENT INSTRUMENT ID'
p2793
S'MACHINEGUNS'
p2794
sS'INCIDENT INSTRUMENT TYPE'
p2795
S'MACHINE GUN MACHINEGUNS'
p2796
sS'PHYS TGT FOREIGN NATION'
p2797
S''
sS'HUM TGT NUMBER'
p2798
S''
sS'PHYS TGT TYPE'
p2799
S'TRANSPORT VEHICLE HELICOPTER'
p2800
sS'HUM TGT NAME'
p2801
S''
sS'INCIDENT TYPE'
p2802
S'ATTACK'
p2803
sS'PHYS TGT NUMBER'
p2804
S'1 HELICOPTER'
p2805
sS'PERP INDIVIDUAL ID'
p2806
S''
sS'INCIDENT STAGE OF EXECUTION'
p2807
S'ACCOMPLISHED'
p2808
sS'HUM TGT DESCRIPTION'
p2809
S''
sS'PHYS TGT EFFECT OF INCIDENT'
p2810
S'SOME DAMAGE HOMES'
p2811
sS'HUM TGT FOREIGN NATION'
p2812
S''
sS'INCIDENT DATE'
p2813
S'29 MAY 89'
p2814
sS'MESSAGE TEMPLATE'
p2815
S'2'
sS'PHYS TGT TOTAL NUMBER'
p2816
S''
ssS'TST2MUC40030'
p2817
(dp2818
S'PERP ORGANIZATION CONFIDENCE'
p2819
S''
sS'HUM TGT EFFECT OF INCIDENT'
p2820
S''
sS'INCIDENT LOCATION'
p2821
S''
sS'PHYS TGT ID'
p2822
S''
sS'PERP INCIDENT CATEGORY'
p2823
S''
sS'PERP ORGANIZATION ID'
p2824
S''
sS'HUM TGT TYPE'
p2825
S''
sS'HUM TGT TOTAL NUMBER'
p2826
S''
sS'INCIDENT INSTRUMENT ID'
p2827
S''
sS'INCIDENT INSTRUMENT TYPE'
p2828
S''
sS'PHYS TGT FOREIGN NATION'
p2829
S''
sS'HUM TGT NUMBER'
p2830
S''
sS'PHYS TGT TYPE'
p2831
S''
sS'HUM TGT NAME'
p2832
S''
sS'INCIDENT TYPE'
p2833
S''
sS'PHYS TGT NUMBER'
p2834
S''
sS'PERP INDIVIDUAL ID'
p2835
S''
sS'INCIDENT STAGE OF EXECUTION'
p2836
S''
sS'HUM TGT DESCRIPTION'
p2837
S''
sS'PHYS TGT EFFECT OF INCIDENT'
p2838
S''
sS'HUM TGT FOREIGN NATION'
p2839
S''
sS'INCIDENT DATE'
p2840
S''
sS'MESSAGE TEMPLATE'
p2841
S''
sS'PHYS TGT TOTAL NUMBER'
p2842
S''
ssS'TST2MUC40082'
p2843
(dp2844
S'PERP ORGANIZATION CONFIDENCE'
p2845
S''
sS'HUM TGT EFFECT OF INCIDENT'
p2846
S''
sS'INCIDENT LOCATION'
p2847
S''
sS'PHYS TGT ID'
p2848
S''
sS'PERP INCIDENT CATEGORY'
p2849
S''
sS'PERP ORGANIZATION ID'
p2850
S''
sS'HUM TGT TYPE'
p2851
S''
sS'HUM TGT TOTAL NUMBER'
p2852
S''
sS'INCIDENT INSTRUMENT ID'
p2853
S''
sS'INCIDENT INSTRUMENT TYPE'
p2854
S''
sS'PHYS TGT FOREIGN NATION'
p2855
S''
sS'HUM TGT NUMBER'
p2856
S''
sS'PHYS TGT TYPE'
p2857
S''
sS'HUM TGT NAME'
p2858
S''
sS'INCIDENT TYPE'
p2859
S''
sS'PHYS TGT NUMBER'
p2860
S''
sS'PERP INDIVIDUAL ID'
p2861
S''
sS'INCIDENT STAGE OF EXECUTION'
p2862
S''
sS'HUM TGT DESCRIPTION'
p2863
S''
sS'PHYS TGT EFFECT OF INCIDENT'
p2864
S''
sS'HUM TGT FOREIGN NATION'
p2865
S''
sS'INCIDENT DATE'
p2866
S''
sS'MESSAGE TEMPLATE'
p2867
S''
sS'PHYS TGT TOTAL NUMBER'
p2868
S''
ssS'TST2MUC40083'
p2869
(dp2870
S'PERP ORGANIZATION CONFIDENCE'
p2871
S''
sS'HUM TGT EFFECT OF INCIDENT'
p2872
S''
sS'INCIDENT LOCATION'
p2873
S''
sS'PHYS TGT ID'
p2874
S''
sS'PERP INCIDENT CATEGORY'
p2875
S''
sS'PERP ORGANIZATION ID'
p2876
S''
sS'HUM TGT TYPE'
p2877
S''
sS'HUM TGT TOTAL NUMBER'
p2878
S''
sS'INCIDENT INSTRUMENT ID'
p2879
S''
sS'INCIDENT INSTRUMENT TYPE'
p2880
S''
sS'PHYS TGT FOREIGN NATION'
p2881
S''
sS'HUM TGT NUMBER'
p2882
S''
sS'PHYS TGT TYPE'
p2883
S''
sS'HUM TGT NAME'
p2884
S''
sS'INCIDENT TYPE'
p2885
S''
sS'PHYS TGT NUMBER'
p2886
S''
sS'PERP INDIVIDUAL ID'
p2887
S''
sS'INCIDENT STAGE OF EXECUTION'
p2888
S''
sS'HUM TGT DESCRIPTION'
p2889
S''
sS'PHYS TGT EFFECT OF INCIDENT'
p2890
S''
sS'HUM TGT FOREIGN NATION'
p2891
S''
sS'INCIDENT DATE'
p2892
S''
sS'MESSAGE TEMPLATE'
p2893
S''
sS'PHYS TGT TOTAL NUMBER'
p2894
S''
ssS'TST2MUC40080'
p2895
(dp2896
S'PERP ORGANIZATION CONFIDENCE'
p2897
S''
sS'HUM TGT EFFECT OF INCIDENT'
p2898
S''
sS'INCIDENT LOCATION'
p2899
S'EL SALVADOR SAN SALVADOR CITY NATIONAL UNIVERSITY UNIVERSITY'
p2900
sS'PHYS TGT ID'
p2901
S'AMBULANCE'
p2902
sS'PERP INCIDENT CATEGORY'
p2903
S''
sS'PERP ORGANIZATION ID'
p2904
S''
sS'HUM TGT TYPE'
p2905
S''
sS'HUM TGT TOTAL NUMBER'
p2906
S''
sS'INCIDENT INSTRUMENT ID'
p2907
S''
sS'INCIDENT INSTRUMENT TYPE'
p2908
S''
sS'PHYS TGT FOREIGN NATION'
p2909
S''
sS'HUM TGT NUMBER'
p2910
S''
sS'PHYS TGT TYPE'
p2911
S'TRANSPORT VEHICLE AMBULANCE'
p2912
sS'HUM TGT NAME'
p2913
S''
sS'INCIDENT TYPE'
p2914
S'ATTACK'
p2915
sS'PHYS TGT NUMBER'
p2916
S'1 AMBULANCE'
p2917
sS'PERP INDIVIDUAL ID'
p2918
S''
sS'INCIDENT STAGE OF EXECUTION'
p2919
S'ACCOMPLISHED'
p2920
sS'HUM TGT DESCRIPTION'
p2921
S''
sS'PHYS TGT EFFECT OF INCIDENT'
p2922
S''
sS'HUM TGT FOREIGN NATION'
p2923
S''
sS'INCIDENT DATE'
p2924
S'11 NOV 89 10 NOV 89 11 NOV 89'
p2925
sS'MESSAGE TEMPLATE'
p2926
S'3'
sS'PHYS TGT TOTAL NUMBER'
p2927
S''
ssS'TST2MUC40081'
p2928
(dp2929
S'PERP ORGANIZATION CONFIDENCE'
p2930
S''
sS'HUM TGT EFFECT OF INCIDENT'
p2931
S'NO INJURY OR DEATH'
p2932
sS'INCIDENT LOCATION'
p2933
S'COLOMBIA MEDELLIN CITY COLOMBIA'
p2934
sS'PHYS TGT ID'
p2935
S'GOVERNMENT BANK BRANCHES BANK BRANCHES'
p2936
sS'PERP INCIDENT CATEGORY'
p2937
S''
sS'PERP ORGANIZATION ID'
p2938
S''
sS'HUM TGT TYPE'
p2939
S''
sS'HUM TGT TOTAL NUMBER'
p2940
S''
sS'INCIDENT INSTRUMENT ID'
p2941
S'BOMBS'
p2942
sS'INCIDENT INSTRUMENT TYPE'
p2943
S'BOMB BOMBS'
p2944
sS'PHYS TGT FOREIGN NATION'
p2945
S''
sS'HUM TGT NUMBER'
p2946
S''
sS'PHYS TGT TYPE'
p2947
S'FINANCIAL GOVERNMENT BANK BRANCHES BANK BRANCHES'
p2948
sS'HUM TGT NAME'
p2949
S''
sS'INCIDENT TYPE'
p2950
S'BOMBING'
p2951
sS'PHYS TGT NUMBER'
p2952
S'PLURAL GOVERNMENT BANK BRANCHES BANK BRANCHES'
p2953
sS'PERP INDIVIDUAL ID'
p2954
S'UNIDENTIFIED PERSONS'
p2955
sS'INCIDENT STAGE OF EXECUTION'
p2956
S'ACCOMPLISHED'
p2957
sS'HUM TGT DESCRIPTION'
p2958
S''
sS'PHYS TGT EFFECT OF INCIDENT'
p2959
S'SOME DAMAGE GOVERNMENT BANK BRANCHES BANK BRANCHES'
p2960
sS'HUM TGT FOREIGN NATION'
p2961
S''
sS'INCIDENT DATE'
p2962
S'27 AUG 89'
p2963
sS'MESSAGE TEMPLATE'
p2964
S'1'
sS'PHYS TGT TOTAL NUMBER'
p2965
S''
ssS'TST2MUC40086'
p2966
(dp2967
S'PERP ORGANIZATION CONFIDENCE'
p2968
S''
sS'HUM TGT EFFECT OF INCIDENT'
p2969
S''
sS'INCIDENT LOCATION'
p2970
S'COLOMBIA'
p2971
sS'PHYS TGT ID'
p2972
S''
sS'PERP INCIDENT CATEGORY'
p2973
S''
sS'PERP ORGANIZATION ID'
p2974
S''
sS'HUM TGT TYPE'
p2975
S'POLITICAL FIGURE PRESIDENTIAL CANDIDATES CANDIDATES'
p2976
sS'HUM TGT TOTAL NUMBER'
p2977
S''
sS'INCIDENT INSTRUMENT ID'
p2978
S''
sS'INCIDENT INSTRUMENT TYPE'
p2979
S''
sS'PHYS TGT FOREIGN NATION'
p2980
S''
sS'HUM TGT NUMBER'
p2981
S'PLURAL PRESIDENTIAL CANDIDATES CANDIDATES'
p2982
sS'PHYS TGT TYPE'
p2983
S''
sS'HUM TGT NAME'
p2984
S''
sS'INCIDENT TYPE'
p2985
S'ATTACK'
p2986
sS'PHYS TGT NUMBER'
p2987
S''
sS'PERP INDIVIDUAL ID'
p2988
S''
sS'INCIDENT STAGE OF EXECUTION'
p2989
S'ACCOMPLISHED ATTEMPTED'
p2990
sS'HUM TGT DESCRIPTION'
p2991
S'PRESIDENTIAL CANDIDATES CANDIDATES'
p2992
sS'PHYS TGT EFFECT OF INCIDENT'
p2993
S''
sS'HUM TGT FOREIGN NATION'
p2994
S''
sS'INCIDENT DATE'
p2995
S'07 AUG 89'
p2996
sS'MESSAGE TEMPLATE'
p2997
S'2 OPTIONAL'
p2998
sS'PHYS TGT TOTAL NUMBER'
p2999
S''
ssS'TST2MUC40087'
p3000
(dp3001
S'PERP ORGANIZATION CONFIDENCE'
p3002
S''
sS'HUM TGT EFFECT OF INCIDENT'
p3003
S''
sS'INCIDENT LOCATION'
p3004
S''
sS'PHYS TGT ID'
p3005
S''
sS'PERP INCIDENT CATEGORY'
p3006
S''
sS'PERP ORGANIZATION ID'
p3007
S''
sS'HUM TGT TYPE'
p3008
S''
sS'HUM TGT TOTAL NUMBER'
p3009
S''
sS'INCIDENT INSTRUMENT ID'
p3010
S''
sS'INCIDENT INSTRUMENT TYPE'
p3011
S''
sS'PHYS TGT FOREIGN NATION'
p3012
S''
sS'HUM TGT NUMBER'
p3013
S''
sS'PHYS TGT TYPE'
p3014
S''
sS'HUM TGT NAME'
p3015
S''
sS'INCIDENT TYPE'
p3016
S''
sS'PHYS TGT NUMBER'
p3017
S''
sS'PERP INDIVIDUAL ID'
p3018
S''
sS'INCIDENT STAGE OF EXECUTION'
p3019
S''
sS'HUM TGT DESCRIPTION'
p3020
S''
sS'PHYS TGT EFFECT OF INCIDENT'
p3021
S''
sS'HUM TGT FOREIGN NATION'
p3022
S''
sS'INCIDENT DATE'
p3023
S''
sS'MESSAGE TEMPLATE'
p3024
S''
sS'PHYS TGT TOTAL NUMBER'
p3025
S''
ssS'TST2MUC40084'
p3026
(dp3027
S'PERP ORGANIZATION CONFIDENCE'
p3028
S''
sS'HUM TGT EFFECT OF INCIDENT'
p3029
S''
sS'INCIDENT LOCATION'
p3030
S''
sS'PHYS TGT ID'
p3031
S''
sS'PERP INCIDENT CATEGORY'
p3032
S''
sS'PERP ORGANIZATION ID'
p3033
S''
sS'HUM TGT TYPE'
p3034
S''
sS'HUM TGT TOTAL NUMBER'
p3035
S''
sS'INCIDENT INSTRUMENT ID'
p3036
S''
sS'INCIDENT INSTRUMENT TYPE'
p3037
S''
sS'PHYS TGT FOREIGN NATION'
p3038
S''
sS'HUM TGT NUMBER'
p3039
S''
sS'PHYS TGT TYPE'
p3040
S''
sS'HUM TGT NAME'
p3041
S''
sS'INCIDENT TYPE'
p3042
S''
sS'PHYS TGT NUMBER'
p3043
S''
sS'PERP INDIVIDUAL ID'
p3044
S''
sS'INCIDENT STAGE OF EXECUTION'
p3045
S''
sS'HUM TGT DESCRIPTION'
p3046
S''
sS'PHYS TGT EFFECT OF INCIDENT'
p3047
S''
sS'HUM TGT FOREIGN NATION'
p3048
S''
sS'INCIDENT DATE'
p3049
S''
sS'MESSAGE TEMPLATE'
p3050
S''
sS'PHYS TGT TOTAL NUMBER'
p3051
S''
ssS'TST2MUC40085'
p3052
(dp3053
S'PERP ORGANIZATION CONFIDENCE'
p3054
S''
sS'HUM TGT EFFECT OF INCIDENT'
p3055
S''
sS'INCIDENT LOCATION'
p3056
S''
sS'PHYS TGT ID'
p3057
S''
sS'PERP INCIDENT CATEGORY'
p3058
S''
sS'PERP ORGANIZATION ID'
p3059
S''
sS'HUM TGT TYPE'
p3060
S''
sS'HUM TGT TOTAL NUMBER'
p3061
S''
sS'INCIDENT INSTRUMENT ID'
p3062
S''
sS'INCIDENT INSTRUMENT TYPE'
p3063
S''
sS'PHYS TGT FOREIGN NATION'
p3064
S''
sS'HUM TGT NUMBER'
p3065
S''
sS'PHYS TGT TYPE'
p3066
S''
sS'HUM TGT NAME'
p3067
S''
sS'INCIDENT TYPE'
p3068
S''
sS'PHYS TGT NUMBER'
p3069
S''
sS'PERP INDIVIDUAL ID'
p3070
S''
sS'INCIDENT STAGE OF EXECUTION'
p3071
S''
sS'HUM TGT DESCRIPTION'
p3072
S''
sS'PHYS TGT EFFECT OF INCIDENT'
p3073
S''
sS'HUM TGT FOREIGN NATION'
p3074
S''
sS'INCIDENT DATE'
p3075
S''
sS'MESSAGE TEMPLATE'
p3076
S''
sS'PHYS TGT TOTAL NUMBER'
p3077
S''
ssS'TST2MUC40088'
p3078
(dp3079
S'PERP ORGANIZATION CONFIDENCE'
p3080
S''
sS'HUM TGT EFFECT OF INCIDENT'
p3081
S''
sS'INCIDENT LOCATION'
p3082
S''
sS'PHYS TGT ID'
p3083
S''
sS'PERP INCIDENT CATEGORY'
p3084
S''
sS'PERP ORGANIZATION ID'
p3085
S''
sS'HUM TGT TYPE'
p3086
S''
sS'HUM TGT TOTAL NUMBER'
p3087
S''
sS'INCIDENT INSTRUMENT ID'
p3088
S''
sS'INCIDENT INSTRUMENT TYPE'
p3089
S''
sS'PHYS TGT FOREIGN NATION'
p3090
S''
sS'HUM TGT NUMBER'
p3091
S''
sS'PHYS TGT TYPE'
p3092
S''
sS'HUM TGT NAME'
p3093
S''
sS'INCIDENT TYPE'
p3094
S''
sS'PHYS TGT NUMBER'
p3095
S''
sS'PERP INDIVIDUAL ID'
p3096
S''
sS'INCIDENT STAGE OF EXECUTION'
p3097
S''
sS'HUM TGT DESCRIPTION'
p3098
S''
sS'PHYS TGT EFFECT OF INCIDENT'
p3099
S''
sS'HUM TGT FOREIGN NATION'
p3100
S''
sS'INCIDENT DATE'
p3101
S''
sS'MESSAGE TEMPLATE'
p3102
S''
sS'PHYS TGT TOTAL NUMBER'
p3103
S''
ssS'TST2MUC40089'
p3104
(dp3105
S'PERP ORGANIZATION CONFIDENCE'
p3106
S''
sS'HUM TGT EFFECT OF INCIDENT'
p3107
S''
sS'INCIDENT LOCATION'
p3108
S''
sS'PHYS TGT ID'
p3109
S''
sS'PERP INCIDENT CATEGORY'
p3110
S''
sS'PERP ORGANIZATION ID'
p3111
S''
sS'HUM TGT TYPE'
p3112
S''
sS'HUM TGT TOTAL NUMBER'
p3113
S''
sS'INCIDENT INSTRUMENT ID'
p3114
S''
sS'INCIDENT INSTRUMENT TYPE'
p3115
S''
sS'PHYS TGT FOREIGN NATION'
p3116
S''
sS'HUM TGT NUMBER'
p3117
S''
sS'PHYS TGT TYPE'
p3118
S''
sS'HUM TGT NAME'
p3119
S''
sS'INCIDENT TYPE'
p3120
S''
sS'PHYS TGT NUMBER'
p3121
S''
sS'PERP INDIVIDUAL ID'
p3122
S''
sS'INCIDENT STAGE OF EXECUTION'
p3123
S''
sS'HUM TGT DESCRIPTION'
p3124
S''
sS'PHYS TGT EFFECT OF INCIDENT'
p3125
S''
sS'HUM TGT FOREIGN NATION'
p3126
S''
sS'INCIDENT DATE'
p3127
S''
sS'MESSAGE TEMPLATE'
p3128
S''
sS'PHYS TGT TOTAL NUMBER'
p3129
S''
ssS'TST2MUC40008'
p3130
(dp3131
S'PERP ORGANIZATION CONFIDENCE'
p3132
S''
sS'HUM TGT EFFECT OF INCIDENT'
p3133
S'DEATH DEATHS'
p3134
sS'INCIDENT LOCATION'
p3135
S'EL SALVADOR SAN SALVADOR CITY'
p3136
sS'PHYS TGT ID'
p3137
S''
sS'PERP INCIDENT CATEGORY'
p3138
S'STATESPONSORED VIOLENCE'
p3139
sS'PERP ORGANIZATION ID'
p3140
S''
sS'HUM TGT TYPE'
p3141
S'CIVILIAN DEATHS'
p3142
sS'HUM TGT TOTAL NUMBER'
p3143
S''
sS'INCIDENT INSTRUMENT ID'
p3144
S''
sS'INCIDENT INSTRUMENT TYPE'
p3145
S'BOMB'
p3146
sS'PHYS TGT FOREIGN NATION'
p3147
S''
sS'HUM TGT NUMBER'
p3148
S'PLURAL DEATHS'
p3149
sS'PHYS TGT TYPE'
p3150
S''
sS'HUM TGT NAME'
p3151
S''
sS'INCIDENT TYPE'
p3152
S'BOMBING'
p3153
sS'PHYS TGT NUMBER'
p3154
S''
sS'PERP INDIVIDUAL ID'
p3155
S''
sS'INCIDENT STAGE OF EXECUTION'
p3156
S'ACCOMPLISHED'
p3157
sS'HUM TGT DESCRIPTION'
p3158
S'DEATHS'
p3159
sS'PHYS TGT EFFECT OF INCIDENT'
p3160
S''
sS'HUM TGT FOREIGN NATION'
p3161
S''
sS'INCIDENT DATE'
p3162
S'17 NOV 89'
p3163
sS'MESSAGE TEMPLATE'
p3164
S'1 OPTIONAL'
p3165
sS'PHYS TGT TOTAL NUMBER'
p3166
S''
ssS'TST2MUC40009'
p3167
(dp3168
S'PERP ORGANIZATION CONFIDENCE'
p3169
S''
sS'HUM TGT EFFECT OF INCIDENT'
p3170
S''
sS'INCIDENT LOCATION'
p3171
S''
sS'PHYS TGT ID'
p3172
S''
sS'PERP INCIDENT CATEGORY'
p3173
S''
sS'PERP ORGANIZATION ID'
p3174
S''
sS'HUM TGT TYPE'
p3175
S''
sS'HUM TGT TOTAL NUMBER'
p3176
S''
sS'INCIDENT INSTRUMENT ID'
p3177
S''
sS'INCIDENT INSTRUMENT TYPE'
p3178
S''
sS'PHYS TGT FOREIGN NATION'
p3179
S''
sS'HUM TGT NUMBER'
p3180
S''
sS'PHYS TGT TYPE'
p3181
S''
sS'HUM TGT NAME'
p3182
S''
sS'INCIDENT TYPE'
p3183
S''
sS'PHYS TGT NUMBER'
p3184
S''
sS'PERP INDIVIDUAL ID'
p3185
S''
sS'INCIDENT STAGE OF EXECUTION'
p3186
S''
sS'HUM TGT DESCRIPTION'
p3187
S''
sS'PHYS TGT EFFECT OF INCIDENT'
p3188
S''
sS'HUM TGT FOREIGN NATION'
p3189
S''
sS'INCIDENT DATE'
p3190
S''
sS'MESSAGE TEMPLATE'
p3191
S''
sS'PHYS TGT TOTAL NUMBER'
p3192
S''
ssS'TST2MUC40002'
p3193
(dp3194
S'PERP ORGANIZATION CONFIDENCE'
p3195
S'POSSIBLE COMMUNIST PARTY OF CHILE COMMUNIST PARTY MANUEL RODRIGUEZ PATRIOTIC FRONT FPMR'
p3196
sS'HUM TGT EFFECT OF INCIDENT'
p3197
S'NO INJURY OR DEATH NO INJURY'
p3198
sS'INCIDENT LOCATION'
p3199
S'CHILE SANTIAGO CITY PROVIDENCIA NEIGHBORHOOD'
p3200
sS'PHYS TGT ID'
p3201
S'CONSULATE EMBASSY BUILDING EMBASSY'
p3202
sS'PERP INCIDENT CATEGORY'
p3203
S'TERRORIST ACT'
p3204
sS'PERP ORGANIZATION ID'
p3205
S'COMMUNIST PARTY OF CHILE COMMUNIST PARTY MANUEL RODRIGUEZ PATRIOTIC FRONT FPMR'
p3206
sS'HUM TGT TYPE'
p3207
S''
sS'HUM TGT TOTAL NUMBER'
p3208
S''
sS'INCIDENT INSTRUMENT ID'
p3209
S''
sS'INCIDENT INSTRUMENT TYPE'
p3210
S'EXPLOSIVE'
p3211
sS'PHYS TGT FOREIGN NATION'
p3212
S'EL SALVADOR CONSULATE EMBASSY BUILDING EMBASSY'
p3213
sS'HUM TGT NUMBER'
p3214
S''
sS'PHYS TGT TYPE'
p3215
S'DIPLOMAT OFFICE OR RESIDENCE CONSULATE EMBASSY BUILDING EMBASSY'
p3216
sS'HUM TGT NAME'
p3217
S''
sS'INCIDENT TYPE'
p3218
S'BOMBING'
p3219
sS'PHYS TGT NUMBER'
p3220
S'1 CONSULATE EMBASSY BUILDING EMBASSY'
p3221
sS'PERP INDIVIDUAL ID'
p3222
S'MANUEL RODRIGUEZ PATRIOTIC FRONT FPMR'
p3223
sS'INCIDENT STAGE OF EXECUTION'
p3224
S'ACCOMPLISHED'
p3225
sS'HUM TGT DESCRIPTION'
p3226
S''
sS'PHYS TGT EFFECT OF INCIDENT'
p3227
S'SOME DAMAGE CONSULATE EMBASSY BUILDING EMBASSY'
p3228
sS'HUM TGT FOREIGN NATION'
p3229
S''
sS'INCIDENT DATE'
p3230
S'12 DEC 89'
p3231
sS'MESSAGE TEMPLATE'
p3232
S'1'
sS'PHYS TGT TOTAL NUMBER'
p3233
S''
ssS'TST2MUC40003'
p3234
(dp3235
S'PERP ORGANIZATION CONFIDENCE'
p3236
S'REPORTED AS FACT PEOPLES REVOLUTIONARY ARMY ERP'
p3237
sS'HUM TGT EFFECT OF INCIDENT'
p3238
S''
sS'INCIDENT LOCATION'
p3239
S'EL SALVADOR ALBERTO MASFERRER UNIVERSITY UNIVERSITY'
p3240
sS'PHYS TGT ID'
p3241
S''
sS'PERP INCIDENT CATEGORY'
p3242
S'TERRORIST ACT'
p3243
sS'PERP ORGANIZATION ID'
p3244
S'PEOPLES REVOLUTIONARY ARMY ERP'
p3245
sS'HUM TGT TYPE'
p3246
S'CIVILIAN STUDENTS GROUP OF STUDENTS'
p3247
sS'HUM TGT TOTAL NUMBER'
p3248
S''
sS'INCIDENT INSTRUMENT ID'
p3249
S'HAND GRENADES'
p3250
sS'INCIDENT INSTRUMENT TYPE'
p3251
S'GRENADE HAND GRENADES'
p3252
sS'PHYS TGT FOREIGN NATION'
p3253
S''
sS'HUM TGT NUMBER'
p3254
S'PLURAL STUDENTS GROUP OF STUDENTS'
p3255
sS'PHYS TGT TYPE'
p3256
S''
sS'HUM TGT NAME'
p3257
S''
sS'INCIDENT TYPE'
p3258
S'ATTACK'
p3259
sS'PHYS TGT NUMBER'
p3260
S''
sS'PERP INDIVIDUAL ID'
p3261
S'RUTH ESPERANA AGUILAR MARROQUIN'
p3262
sS'INCIDENT STAGE OF EXECUTION'
p3263
S'THREATENED'
p3264
sS'HUM TGT DESCRIPTION'
p3265
S'STUDENTS GROUP OF STUDENTS'
p3266
sS'PHYS TGT EFFECT OF INCIDENT'
p3267
S''
sS'HUM TGT FOREIGN NATION'
p3268
S''
sS'INCIDENT DATE'
p3269
S'09 DEC 89 09 DEC 89'
p3270
sS'MESSAGE TEMPLATE'
p3271
S'3'
sS'PHYS TGT TOTAL NUMBER'
p3272
S''
ssS'TST2MUC40001'
p3273
(dp3274
S'PERP ORGANIZATION CONFIDENCE'
p3275
S''
sS'HUM TGT EFFECT OF INCIDENT'
p3276
S'DEATH JESUITS'
p3277
sS'INCIDENT LOCATION'
p3278
S'EL SALVADOR'
p3279
sS'PHYS TGT ID'
p3280
S''
sS'PERP INCIDENT CATEGORY'
p3281
S''
sS'PERP ORGANIZATION ID'
p3282
S''
sS'HUM TGT TYPE'
p3283
S'CIVILIAN JESUITS'
p3284
sS'HUM TGT TOTAL NUMBER'
p3285
S''
sS'INCIDENT INSTRUMENT ID'
p3286
S''
sS'INCIDENT INSTRUMENT TYPE'
p3287
S''
sS'PHYS TGT FOREIGN NATION'
p3288
S''
sS'HUM TGT NUMBER'
p3289
S'PLURAL JESUITS'
p3290
sS'PHYS TGT TYPE'
p3291
S''
sS'HUM TGT NAME'
p3292
S''
sS'INCIDENT TYPE'
p3293
S'ATTACK'
p3294
sS'PHYS TGT NUMBER'
p3295
S''
sS'PERP INDIVIDUAL ID'
p3296
S''
sS'INCIDENT STAGE OF EXECUTION'
p3297
S'ACCOMPLISHED'
p3298
sS'HUM TGT DESCRIPTION'
p3299
S'JESUITS'
p3300
sS'PHYS TGT EFFECT OF INCIDENT'
p3301
S''
sS'HUM TGT FOREIGN NATION'
p3302
S'SPAIN JESUITS'
p3303
sS'INCIDENT DATE'
p3304
S'20 NOV 89'
p3305
sS'MESSAGE TEMPLATE'
p3306
S'1'
sS'PHYS TGT TOTAL NUMBER'
p3307
S''
ssS'TST2MUC40006'
p3308
(dp3309
S'PERP ORGANIZATION CONFIDENCE'
p3310
S''
sS'HUM TGT EFFECT OF INCIDENT'
p3311
S''
sS'INCIDENT LOCATION'
p3312
S''
sS'PHYS TGT ID'
p3313
S''
sS'PERP INCIDENT CATEGORY'
p3314
S''
sS'PERP ORGANIZATION ID'
p3315
S''
sS'HUM TGT TYPE'
p3316
S''
sS'HUM TGT TOTAL NUMBER'
p3317
S''
sS'INCIDENT INSTRUMENT ID'
p3318
S''
sS'INCIDENT INSTRUMENT TYPE'
p3319
S''
sS'PHYS TGT FOREIGN NATION'
p3320
S''
sS'HUM TGT NUMBER'
p3321
S''
sS'PHYS TGT TYPE'
p3322
S''
sS'HUM TGT NAME'
p3323
S''
sS'INCIDENT TYPE'
p3324
S''
sS'PHYS TGT NUMBER'
p3325
S''
sS'PERP INDIVIDUAL ID'
p3326
S''
sS'INCIDENT STAGE OF EXECUTION'
p3327
S''
sS'HUM TGT DESCRIPTION'
p3328
S''
sS'PHYS TGT EFFECT OF INCIDENT'
p3329
S''
sS'HUM TGT FOREIGN NATION'
p3330
S''
sS'INCIDENT DATE'
p3331
S''
sS'MESSAGE TEMPLATE'
p3332
S''
sS'PHYS TGT TOTAL NUMBER'
p3333
S''
ssS'TST2MUC40007'
p3334
(dp3335
S'PERP ORGANIZATION CONFIDENCE'
p3336
S''
sS'HUM TGT EFFECT OF INCIDENT'
p3337
S'DEATH BERNARDO JARAMILLO OSSA'
p3338
sS'INCIDENT LOCATION'
p3339
S'COLOMBIA'
p3340
sS'PHYS TGT ID'
p3341
S''
sS'PERP INCIDENT CATEGORY'
p3342
S'TERRORIST ACT'
p3343
sS'PERP ORGANIZATION ID'
p3344
S''
sS'HUM TGT TYPE'
p3345
S'POLITICAL FIGURE BERNARDO JARAMILLO OSSA'
p3346
sS'HUM TGT TOTAL NUMBER'
p3347
S''
sS'INCIDENT INSTRUMENT ID'
p3348
S''
sS'INCIDENT INSTRUMENT TYPE'
p3349
S''
sS'PHYS TGT FOREIGN NATION'
p3350
S''
sS'HUM TGT NUMBER'
p3351
S'1 BERNARDO JARAMILLO OSSA'
p3352
sS'PHYS TGT TYPE'
p3353
S''
sS'HUM TGT NAME'
p3354
S'BERNARDO JARAMILLO OSSA'
p3355
sS'MAYOR'
p3356
S''
sS'INCIDENT TYPE'
p3357
S'ATTACK'
p3358
sS'PHYS TGT NUMBER'
p3359
S''
sS'CHIEF OF POLICE'
p3360
S''
sS'PERP INDIVIDUAL ID'
p3361
S'ADOLFO MESA MENESES'
p3362
sS'INCIDENT STAGE OF EXECUTION'
p3363
S'ACCOMPLISHED'
p3364
sS'HUM TGT DESCRIPTION'
p3365
S'LEFTIST PRESIDENTIAL CANDIDATE BERNARDO JARAMILLO OSSA'
p3366
sS'PHYS TGT EFFECT OF INCIDENT'
p3367
S''
sS'HUM TGT FOREIGN NATION'
p3368
S''
sS'INCIDENT DATE'
p3369
S'11 APR 90'
p3370
sS'MESSAGE TEMPLATE'
p3371
S'3'
sS'PHYS TGT TOTAL NUMBER'
p3372
S''
ssS'TST2MUC40004'
p3373
(dp3374
S'PERP ORGANIZATION CONFIDENCE'
p3375
S'CLAIMED OR ADMITTED ZARATE WILLKA ARMED FORCES OF LIBERATION'
p3376
sS'HUM TGT EFFECT OF INCIDENT'
p3377
S''
sS'INCIDENT LOCATION'
p3378
S'BOLIVIA LA PAZ CITY'
p3379
sS'PHYS TGT ID'
p3380
S'EMBASSY'
p3381
sS'PERP INCIDENT CATEGORY'
p3382
S'TERRORIST ACT'
p3383
sS'PERP ORGANIZATION ID'
p3384
S'ZARATE WILLKA ARMED FORCES OF LIBERATION'
p3385
sS'MARISCAL BALLIVIAN BUILDING'
p3386
S''
sS'HUM TGT TOTAL NUMBER'
p3387
S''
sS'INCIDENT INSTRUMENT ID'
p3388
S'DYNAMITE CHARGE DYNAMITE'
p3389
sS'INCIDENT INSTRUMENT TYPE'
p3390
S'DYNAMITE DYNAMITE CHARGE DYNAMITE'
p3391
sS'PHYS TGT FOREIGN NATION'
p3392
S'PERU PEOPLES PERUVIAN BANK'
p3393
sS'PERP INDIVIDUAL ID'
p3394
S'UNIDENTIFIED PERSON'
p3395
sS'HUM TGT TYPE'
p3396
S''
sS'HUM TGT NUMBER'
p3397
S''
sS'PHYS TGT TYPE'
p3398
S'DIPLOMAT OFFICE OR RESIDENCE EMBASSY'
p3399
sS'HUM TGT NAME'
p3400
S''
sS'PEOPLES PERUVIAN BANK'
p3401
S''
sS'INCIDENT TYPE'
p3402
S'BOMBING'
p3403
sS'PHYS TGT NUMBER'
p3404
S'1 EMBASSY'
p3405
sS'STATE BANK'
p3406
S''
sS'INCIDENT STAGE OF EXECUTION'
p3407
S'ACCOMPLISHED'
p3408
sS'HUM TGT DESCRIPTION'
p3409
S''
sS'PHYS TGT EFFECT OF INCIDENT'
p3410
S'SOME DAMAGE NO DAMAGE EMBASSY'
p3411
sS'HUM TGT FOREIGN NATION'
p3412
S''
sS'BOOK STORE'
p3413
S''
sS'INCIDENT DATE'
p3414
S'20 DEC 89'
p3415
sS'MESSAGE TEMPLATE'
p3416
S'1'
sS'PHYS TGT TOTAL NUMBER'
p3417
S''
ssS'TST2MUC40005'
p3418
(dp3419
S'PERP ORGANIZATION CONFIDENCE'
p3420
S''
sS'HUM TGT EFFECT OF INCIDENT'
p3421
S''
sS'INCIDENT LOCATION'
p3422
S''
sS'PHYS TGT ID'
p3423
S''
sS'PERP INCIDENT CATEGORY'
p3424
S''
sS'PERP ORGANIZATION ID'
p3425
S''
sS'HUM TGT TYPE'
p3426
S''
sS'HUM TGT TOTAL NUMBER'
p3427
S''
sS'INCIDENT INSTRUMENT ID'
p3428
S''
sS'INCIDENT INSTRUMENT TYPE'
p3429
S''
sS'PHYS TGT FOREIGN NATION'
p3430
S''
sS'HUM TGT NUMBER'
p3431
S''
sS'PHYS TGT TYPE'
p3432
S''
sS'HUM TGT NAME'
p3433
S''
sS'INCIDENT TYPE'
p3434
S''
sS'PHYS TGT NUMBER'
p3435
S''
sS'PERP INDIVIDUAL ID'
p3436
S''
sS'INCIDENT STAGE OF EXECUTION'
p3437
S''
sS'HUM TGT DESCRIPTION'
p3438
S''
sS'PHYS TGT EFFECT OF INCIDENT'
p3439
S''
sS'HUM TGT FOREIGN NATION'
p3440
S''
sS'INCIDENT DATE'
p3441
S''
sS'MESSAGE TEMPLATE'
p3442
S''
sS'PHYS TGT TOTAL NUMBER'
p3443
S''
ss.