(dp1
S'TST1MUC30082'
p2
(dp3
S'PERP ORGANIZATION CONFIDENCE'
p4
S'SUSPECTED OR ACCUSED FMLN'
p5
sS'HUM TGT EFFECT OF INCIDENT'
p6
S'DEATH ERNESTO'
p7
sS'INCIDENT LOCATION'
p8
S'EL SALVADOR MORAZAN DEPARTMENT PERQUIN CITY JURISDICTION'
p9
sS'PHYS TGT ID'
p10
S''
sS'PERP INCIDENT CATEGORY'
p11
S'TERRORIST ACT'
p12
sS'PERP ORGANIZATION ID'
p13
S'FMLN'
p14
sS'HUM TGT TYPE'
p15
S'CIVILIAN ERNESTO'
p16
sS'HUM TGT TOTAL NUMBER'
p17
S'2'
sS'INCIDENT INSTRUMENT ID'
p18
S'MINE EXPLOSIVE DEVICE'
p19
sS'INCIDENT INSTRUMENT TYPE'
p20
S'MINE EXPLOSIVE MINE EXPLOSIVE DEVICE'
p21
sS'PHYS TGT FOREIGN NATION'
p22
S''
sS'HUM TGT NUMBER'
p23
S'1 ERNESTO'
p24
sS'PHYS TGT TYPE'
p25
S''
sS'HUM TGT NAME'
p26
S'ERNESTO'
p27
sS'INCIDENT TYPE'
p28
S'BOMBING'
p29
sS'PHYS TGT NUMBER'
p30
S''
sS'PERP INDIVIDUAL ID'
p31
S''
sS'INCIDENT STAGE OF EXECUTION'
p32
S'ACCOMPLISHED'
p33
sS'HUM TGT DESCRIPTION'
p34
S'ERNESTO'
p35
sS'ROSA FERNANDEZ'
p36
S''
sS'PHYS TGT EFFECT OF INCIDENT'
p37
S''
sS'HUM TGT FOREIGN NATION'
p38
S''
sS'INCIDENT DATE'
p39
S'28 MAR 89'
p40
sS'MESSAGE TEMPLATE'
p41
S'1 OPTIONAL'
p42
sS'PHYS TGT TOTAL NUMBER'
p43
S''
ssS'TST1MUC30083'
p44
(dp45
S'PERP ORGANIZATION CONFIDENCE'
p46
S''
sS'HUM TGT EFFECT OF INCIDENT'
p47
S''
sS'INCIDENT LOCATION'
p48
S'EL SALVADOR'
p49
sS'PHYS TGT ID'
p50
S''
sS'PERP INCIDENT CATEGORY'
p51
S''
sS'PERP ORGANIZATION ID'
p52
S''
sS'HUM TGT TYPE'
p53
S'CIVILIAN BUSINESSMEN'
p54
sS'HUM TGT TOTAL NUMBER'
p55
S''
sS'INCIDENT INSTRUMENT ID'
p56
S''
sS'INCIDENT INSTRUMENT TYPE'
p57
S''
sS'PHYS TGT FOREIGN NATION'
p58
S''
sS'HUM TGT NUMBER'
p59
S'PLURAL BUSINESSMEN'
p60
sS'PHYS TGT TYPE'
p61
S''
sS'HUM TGT NAME'
p62
S''
sS'INCIDENT TYPE'
p63
S'KIDNAPPING'
p64
sS'PHYS TGT NUMBER'
p65
S''
sS'PERP INDIVIDUAL ID'
p66
S'CIVILIANS'
p67
sS'INCIDENT STAGE OF EXECUTION'
p68
S'ACCOMPLISHED'
p69
sS'HUM TGT DESCRIPTION'
p70
S'BUSINESSMEN'
p71
sS'PHYS TGT EFFECT OF INCIDENT'
p72
S''
sS'HUM TGT FOREIGN NATION'
p73
S''
sS'INCIDENT DATE'
p74
S'26 APR 89'
p75
sS'MESSAGE TEMPLATE'
p76
S'2'
sS'PHYS TGT TOTAL NUMBER'
p77
S''
ssS'TST1MUC30080'
p78
(dp79
S'PERP ORGANIZATION CONFIDENCE'
p80
S'CLAIMED OR ADMITTED THE EXTRADITABLES EXTRADITABLES'
p81
sS'HUM TGT EFFECT OF INCIDENT'
p82
S''
sS'INCIDENT LOCATION'
p83
S'COLOMBIA MEDELLIN CITY'
p84
sS'PHYS TGT ID'
p85
S''
sS'PERP INCIDENT CATEGORY'
p86
S'TERRORIST ACT'
p87
sS'PERP ORGANIZATION ID'
p88
S'THE EXTRADITABLES EXTRADITABLES'
p89
sS'HUM TGT TYPE'
p90
S'GOVERNMENT OFFICIAL POLITICAL FIGURE FEDERICO ESTRADA VELEZ'
p91
sS'HUM TGT TOTAL NUMBER'
p92
S''
sS'INCIDENT INSTRUMENT ID'
p93
S''
sS'INCIDENT INSTRUMENT TYPE'
p94
S''
sS'PHYS TGT FOREIGN NATION'
p95
S''
sS'HUM TGT NUMBER'
p96
S'1 FEDERICO ESTRADA VELEZ'
p97
sS'PHYS TGT TYPE'
p98
S''
sS'HUM TGT NAME'
p99
S'FEDERICO ESTRADA VELEZ'
p100
sS'INCIDENT TYPE'
p101
S'KIDNAPPING'
p102
sS'PHYS TGT NUMBER'
p103
S''
sS'PERP INDIVIDUAL ID'
p104
S'THREE HEAVILY ARMED MEN'
p105
sS'INCIDENT STAGE OF EXECUTION'
p106
S'ACCOMPLISHED'
p107
sS'HUM TGT DESCRIPTION'
p108
S'LIBERAL SENATOR ANTIOQUIA DEPARTMENT LIBERAL PARTY LEADER SENATOR LIBERAL PARTY LEADER PARTY LEADER FEDERICO ESTRADA VELEZ'
p109
sS'PHYS TGT EFFECT OF INCIDENT'
p110
S''
sS'HUM TGT FOREIGN NATION'
p111
S''
sS'INCIDENT DATE'
p112
S'03 APR 90'
p113
sS'MESSAGE TEMPLATE'
p114
S'1'
sS'PHYS TGT TOTAL NUMBER'
p115
S''
ssS'TST1MUC30081'
p116
(dp117
S'PERP ORGANIZATION CONFIDENCE'
p118
S'REPORTED AS FACT THE EXTRADITABLES EXTRADITABLES'
p119
sS'HUM TGT EFFECT OF INCIDENT'
p120
S'REGAINED FREEDOM PATRICIA'
p121
sS'INCIDENT LOCATION'
p122
S'COLOMBIA MEDELLIN CITY'
p123
sS'PHYS TGT ID'
p124
S''
sS'PERP INCIDENT CATEGORY'
p125
S'TERRORIST ACT'
p126
sS'PERP ORGANIZATION ID'
p127
S'THE EXTRADITABLES EXTRADITABLES'
p128
sS'HUM TGT TYPE'
p129
S'CIVILIAN PATRICIA'
p130
sS'HUM TGT TOTAL NUMBER'
p131
S'2'
sS'INCIDENT INSTRUMENT ID'
p132
S''
sS'INCIDENT INSTRUMENT TYPE'
p133
S''
sS'PHYS TGT FOREIGN NATION'
p134
S''
sS'HUM TGT NUMBER'
p135
S'1 PATRICIA'
p136
sS'DINA ECHAVARRIA'
p137
S''
sS'PHYS TGT TYPE'
p138
S''
sS'HUM TGT NAME'
p139
S'PATRICIA'
p140
sS'INCIDENT TYPE'
p141
S'KIDNAPPING'
p142
sS'PHYS TGT NUMBER'
p143
S''
sS'PERP INDIVIDUAL ID'
p144
S''
sS'INCIDENT STAGE OF EXECUTION'
p145
S'ACCOMPLISHED'
p146
sS'HUM TGT DESCRIPTION'
p147
S''
sS'PHYS TGT EFFECT OF INCIDENT'
p148
S''
sS'HUM TGT FOREIGN NATION'
p149
S''
sS'INCIDENT DATE'
p150
S'16 DEC 89'
p151
sS'MESSAGE TEMPLATE'
p152
S'1'
sS'PHYS TGT TOTAL NUMBER'
p153
S''
ssS'TST1MUC30086'
p154
(dp155
S'PERP ORGANIZATION CONFIDENCE'
p156
S''
sS'HUM TGT EFFECT OF INCIDENT'
p157
S''
sS'INCIDENT LOCATION'
p158
S''
sS'PHYS TGT ID'
p159
S''
sS'PERP INCIDENT CATEGORY'
p160
S''
sS'PERP ORGANIZATION ID'
p161
S''
sS'HUM TGT TYPE'
p162
S''
sS'HUM TGT TOTAL NUMBER'
p163
S''
sS'INCIDENT INSTRUMENT ID'
p164
S''
sS'INCIDENT INSTRUMENT TYPE'
p165
S''
sS'PHYS TGT FOREIGN NATION'
p166
S''
sS'HUM TGT NUMBER'
p167
S''
sS'PHYS TGT TYPE'
p168
S''
sS'HUM TGT NAME'
p169
S''
sS'INCIDENT TYPE'
p170
S''
sS'PHYS TGT NUMBER'
p171
S''
sS'PERP INDIVIDUAL ID'
p172
S''
sS'INCIDENT STAGE OF EXECUTION'
p173
S''
sS'HUM TGT DESCRIPTION'
p174
S''
sS'PHYS TGT EFFECT OF INCIDENT'
p175
S''
sS'HUM TGT FOREIGN NATION'
p176
S''
sS'INCIDENT DATE'
p177
S''
sS'MESSAGE TEMPLATE'
p178
S''
sS'PHYS TGT TOTAL NUMBER'
p179
S''
ssS'TST1MUC30087'
p180
(dp181
S'PERP ORGANIZATION CONFIDENCE'
p182
S''
sS'HUM TGT EFFECT OF INCIDENT'
p183
S'DEATH JESUITS'
p184
sS'INCIDENT LOCATION'
p185
S'EL SALVADOR'
p186
sS'PHYS TGT ID'
p187
S''
sS'PERP INCIDENT CATEGORY'
p188
S''
sS'PERP ORGANIZATION ID'
p189
S''
sS'HUM TGT TYPE'
p190
S'CIVILIAN JESUITS'
p191
sS'HUM TGT TOTAL NUMBER'
p192
S''
sS'INCIDENT INSTRUMENT ID'
p193
S''
sS'INCIDENT INSTRUMENT TYPE'
p194
S'MACHINE GUN'
p195
sS'PHYS TGT FOREIGN NATION'
p196
S''
sS'HUM TGT NUMBER'
p197
S'6 JESUITS'
p198
sS'PHYS TGT TYPE'
p199
S''
sS'HUM TGT NAME'
p200
S''
sS'INCIDENT TYPE'
p201
S'ATTACK'
p202
sS'PHYS TGT NUMBER'
p203
S''
sS'PERP INDIVIDUAL ID'
p204
S'MEN WEARING MILITARY UNIFORMS MEN'
p205
sS'INCIDENT STAGE OF EXECUTION'
p206
S'ACCOMPLISHED'
p207
sS'HUM TGT DESCRIPTION'
p208
S'JESUITS'
p209
sS'PHYS TGT EFFECT OF INCIDENT'
p210
S''
sS'HUM TGT FOREIGN NATION'
p211
S''
sS'INCIDENT DATE'
p212
S'15 NOV 89'
p213
sS'MESSAGE TEMPLATE'
p214
S'2'
sS'PHYS TGT TOTAL NUMBER'
p215
S''
ssS'TST1MUC30084'
p216
(dp217
S'PERP ORGANIZATION CONFIDENCE'
p218
S''
sS'HUM TGT EFFECT OF INCIDENT'
p219
S''
sS'INCIDENT LOCATION'
p220
S''
sS'PHYS TGT ID'
p221
S''
sS'PERP INCIDENT CATEGORY'
p222
S''
sS'PERP ORGANIZATION ID'
p223
S''
sS'HUM TGT TYPE'
p224
S''
sS'HUM TGT TOTAL NUMBER'
p225
S''
sS'INCIDENT INSTRUMENT ID'
p226
S''
sS'INCIDENT INSTRUMENT TYPE'
p227
S''
sS'PHYS TGT FOREIGN NATION'
p228
S''
sS'HUM TGT NUMBER'
p229
S''
sS'PHYS TGT TYPE'
p230
S''
sS'HUM TGT NAME'
p231
S''
sS'INCIDENT TYPE'
p232
S''
sS'PHYS TGT NUMBER'
p233
S''
sS'PERP INDIVIDUAL ID'
p234
S''
sS'INCIDENT STAGE OF EXECUTION'
p235
S''
sS'HUM TGT DESCRIPTION'
p236
S''
sS'PHYS TGT EFFECT OF INCIDENT'
p237
S''
sS'HUM TGT FOREIGN NATION'
p238
S''
sS'INCIDENT DATE'
p239
S''
sS'MESSAGE TEMPLATE'
p240
S''
sS'PHYS TGT TOTAL NUMBER'
p241
S''
ssS'TST1MUC30085'
p242
(dp243
S'PERP ORGANIZATION CONFIDENCE'
p244
S''
sS'HUM TGT EFFECT OF INCIDENT'
p245
S''
sS'INCIDENT LOCATION'
p246
S''
sS'PHYS TGT ID'
p247
S''
sS'PERP INCIDENT CATEGORY'
p248
S''
sS'PERP ORGANIZATION ID'
p249
S''
sS'HUM TGT TYPE'
p250
S''
sS'HUM TGT TOTAL NUMBER'
p251
S''
sS'INCIDENT INSTRUMENT ID'
p252
S''
sS'INCIDENT INSTRUMENT TYPE'
p253
S''
sS'PHYS TGT FOREIGN NATION'
p254
S''
sS'HUM TGT NUMBER'
p255
S''
sS'PHYS TGT TYPE'
p256
S''
sS'HUM TGT NAME'
p257
S''
sS'INCIDENT TYPE'
p258
S''
sS'PHYS TGT NUMBER'
p259
S''
sS'PERP INDIVIDUAL ID'
p260
S''
sS'INCIDENT STAGE OF EXECUTION'
p261
S''
sS'HUM TGT DESCRIPTION'
p262
S''
sS'PHYS TGT EFFECT OF INCIDENT'
p263
S''
sS'HUM TGT FOREIGN NATION'
p264
S''
sS'INCIDENT DATE'
p265
S''
sS'MESSAGE TEMPLATE'
p266
S''
sS'PHYS TGT TOTAL NUMBER'
p267
S''
ssS'TST1MUC30088'
p268
(dp269
S'PERP ORGANIZATION CONFIDENCE'
p270
S''
sS'HUM TGT EFFECT OF INCIDENT'
p271
S''
sS'INCIDENT LOCATION'
p272
S''
sS'PHYS TGT ID'
p273
S''
sS'PERP INCIDENT CATEGORY'
p274
S''
sS'PERP ORGANIZATION ID'
p275
S''
sS'HUM TGT TYPE'
p276
S''
sS'HUM TGT TOTAL NUMBER'
p277
S''
sS'INCIDENT INSTRUMENT ID'
p278
S''
sS'INCIDENT INSTRUMENT TYPE'
p279
S''
sS'PHYS TGT FOREIGN NATION'
p280
S''
sS'HUM TGT NUMBER'
p281
S''
sS'PHYS TGT TYPE'
p282
S''
sS'HUM TGT NAME'
p283
S''
sS'INCIDENT TYPE'
p284
S''
sS'PHYS TGT NUMBER'
p285
S''
sS'PERP INDIVIDUAL ID'
p286
S''
sS'INCIDENT STAGE OF EXECUTION'
p287
S''
sS'HUM TGT DESCRIPTION'
p288
S''
sS'PHYS TGT EFFECT OF INCIDENT'
p289
S''
sS'HUM TGT FOREIGN NATION'
p290
S''
sS'INCIDENT DATE'
p291
S''
sS'MESSAGE TEMPLATE'
p292
S''
sS'PHYS TGT TOTAL NUMBER'
p293
S''
ssS'TST1MUC30089'
p294
(dp295
S'PERP ORGANIZATION CONFIDENCE'
p296
S'REPORTED AS FACT FMLN FARABUNDO MARTI NATIONAL LIBERATION FRONT'
p297
sS'HUM TGT EFFECT OF INCIDENT'
p298
S''
sS'INCIDENT LOCATION'
p299
S'EL SALVADOR SAN MIGUEL DEPARTMENT EL TRIUNFO TOWN SAN FRANCISCO NEIGHBORHOOD'
p300
sS'PHYS TGT ID'
p301
S'PYLON'
p302
sS'PERP INCIDENT CATEGORY'
p303
S'TERRORIST ACT'
p304
sS'PERP ORGANIZATION ID'
p305
S'FMLN FARABUNDO MARTI NATIONAL LIBERATION FRONT'
p306
sS'HUM TGT TYPE'
p307
S'CIVILIAN RESIDENTS DEFENSELESS RESIDENTS'
p308
sS'HUM TGT TOTAL NUMBER'
p309
S''
sS'INCIDENT INSTRUMENT ID'
p310
S''
sS'INCIDENT INSTRUMENT TYPE'
p311
S''
sS'PHYS TGT FOREIGN NATION'
p312
S''
sS'HUM TGT NUMBER'
p313
S'PLURAL RESIDENTS DEFENSELESS RESIDENTS'
p314
sS'PHYS TGT TYPE'
p315
S'ENERGY OTHER PYLON'
p316
sS'HUM TGT NAME'
p317
S''
sS'INCIDENT TYPE'
p318
S'ATTACK'
p319
sS'PHYS TGT NUMBER'
p320
S'1 PYLON'
p321
sS'PERP INDIVIDUAL ID'
p322
S'TERRORISTS REBELS UNKNOWN NUMBER OF FMLN TERRORISTS'
p323
sS'INCIDENT STAGE OF EXECUTION'
p324
S'ACCOMPLISHED'
p325
sS'HUM TGT DESCRIPTION'
p326
S'RESIDENTS DEFENSELESS RESIDENTS'
p327
sS'PHYS TGT EFFECT OF INCIDENT'
p328
S'DESTROYED PYLON'
p329
sS'HUM TGT FOREIGN NATION'
p330
S''
sS'INCIDENT DATE'
p331
S'09 DEC 89'
p332
sS'MESSAGE TEMPLATE'
p333
S'4'
sS'PHYS TGT TOTAL NUMBER'
p334
S''
ssS'TST1MUC30008'
p335
(dp336
S'PERP ORGANIZATION CONFIDENCE'
p337
S''
sS'HUM TGT EFFECT OF INCIDENT'
p338
S''
sS'INCIDENT LOCATION'
p339
S''
sS'PHYS TGT ID'
p340
S''
sS'PERP INCIDENT CATEGORY'
p341
S''
sS'PERP ORGANIZATION ID'
p342
S''
sS'HUM TGT TYPE'
p343
S''
sS'HUM TGT TOTAL NUMBER'
p344
S''
sS'INCIDENT INSTRUMENT ID'
p345
S''
sS'INCIDENT INSTRUMENT TYPE'
p346
S''
sS'PHYS TGT FOREIGN NATION'
p347
S''
sS'HUM TGT NUMBER'
p348
S''
sS'PHYS TGT TYPE'
p349
S''
sS'HUM TGT NAME'
p350
S''
sS'INCIDENT TYPE'
p351
S''
sS'PHYS TGT NUMBER'
p352
S''
sS'PERP INDIVIDUAL ID'
p353
S''
sS'INCIDENT STAGE OF EXECUTION'
p354
S''
sS'HUM TGT DESCRIPTION'
p355
S''
sS'PHYS TGT EFFECT OF INCIDENT'
p356
S''
sS'HUM TGT FOREIGN NATION'
p357
S''
sS'INCIDENT DATE'
p358
S''
sS'MESSAGE TEMPLATE'
p359
S''
sS'PHYS TGT TOTAL NUMBER'
p360
S''
ssS'TST1MUC30009'
p361
(dp362
S'PERP ORGANIZATION CONFIDENCE'
p363
S''
sS'HUM TGT EFFECT OF INCIDENT'
p364
S''
sS'INCIDENT LOCATION'
p365
S''
sS'PHYS TGT ID'
p366
S''
sS'PERP INCIDENT CATEGORY'
p367
S''
sS'PERP ORGANIZATION ID'
p368
S''
sS'HUM TGT TYPE'
p369
S''
sS'HUM TGT TOTAL NUMBER'
p370
S''
sS'INCIDENT INSTRUMENT ID'
p371
S''
sS'INCIDENT INSTRUMENT TYPE'
p372
S''
sS'PHYS TGT FOREIGN NATION'
p373
S''
sS'HUM TGT NUMBER'
p374
S''
sS'PHYS TGT TYPE'
p375
S''
sS'HUM TGT NAME'
p376
S''
sS'INCIDENT TYPE'
p377
S''
sS'PHYS TGT NUMBER'
p378
S''
sS'PERP INDIVIDUAL ID'
p379
S''
sS'INCIDENT STAGE OF EXECUTION'
p380
S''
sS'HUM TGT DESCRIPTION'
p381
S''
sS'PHYS TGT EFFECT OF INCIDENT'
p382
S''
sS'HUM TGT FOREIGN NATION'
p383
S''
sS'INCIDENT DATE'
p384
S''
sS'MESSAGE TEMPLATE'
p385
S''
sS'PHYS TGT TOTAL NUMBER'
p386
S''
ssS'TST1MUC30002'
p387
(dp388
S'PERP ORGANIZATION CONFIDENCE'
p389
S'REPORTED AS FACT FARABUNDO MARTI NATIONAL LIBERATION FRONT FMLN'
p390
sS'HUM TGT EFFECT OF INCIDENT'
p391
S'INJURY SOLDIER'
p392
sS'INCIDENT LOCATION'
p393
S'EL SALVADOR SAN SALVADOR CITY'
p394
sS'PHYS TGT ID'
p395
S'ELECTRIC POWER SUBSTATION'
p396
sS'PERP INCIDENT CATEGORY'
p397
S'TERRORIST ACT'
p398
sS'PERP ORGANIZATION ID'
p399
S'FARABUNDO MARTI NATIONAL LIBERATION FRONT FMLN'
p400
sS'HUM TGT TYPE'
p401
S'ACTIVE MILITARY SOLDIER'
p402
sS'HUM TGT TOTAL NUMBER'
p403
S''
sS'INCIDENT INSTRUMENT ID'
p404
S''
sS'INCIDENT INSTRUMENT TYPE'
p405
S''
sS'PHYS TGT FOREIGN NATION'
p406
S''
sS'HUM TGT NUMBER'
p407
S'1 SOLDIER'
p408
sS'PHYS TGT TYPE'
p409
S'ENERGY ELECTRIC POWER SUBSTATION'
p410
sS'HUM TGT NAME'
p411
S''
sS'INCIDENT TYPE'
p412
S'ATTACK'
p413
sS'PHYS TGT NUMBER'
p414
S'1 ELECTRIC POWER SUBSTATION'
p415
sS'PERP INDIVIDUAL ID'
p416
S'MEMBERS OF THE FARABUNDO MARTI NATIONAL LIBERATION FRONT FMLN MEMBERS OF THE FARABUNDO MARTI NATIONAL LIBERATION FRONT'
p417
sS'INCIDENT STAGE OF EXECUTION'
p418
S'ACCOMPLISHED'
p419
sS'HUM TGT DESCRIPTION'
p420
S'SOLDIER'
p421
sS'PHYS TGT EFFECT OF INCIDENT'
p422
S''
sS'HUM TGT FOREIGN NATION'
p423
S''
sS'INCIDENT DATE'
p424
S'17 FEB 90 18 FEB 90'
p425
sS'MESSAGE TEMPLATE'
p426
S'1'
sS'PHYS TGT TOTAL NUMBER'
p427
S''
ssS'TST1MUC30003'
p428
(dp429
S'PERP ORGANIZATION CONFIDENCE'
p430
S''
sS'HUM TGT EFFECT OF INCIDENT'
p431
S''
sS'INCIDENT LOCATION'
p432
S''
sS'PHYS TGT ID'
p433
S''
sS'PERP INCIDENT CATEGORY'
p434
S''
sS'PERP ORGANIZATION ID'
p435
S''
sS'HUM TGT TYPE'
p436
S''
sS'HUM TGT TOTAL NUMBER'
p437
S''
sS'INCIDENT INSTRUMENT ID'
p438
S''
sS'INCIDENT INSTRUMENT TYPE'
p439
S''
sS'PHYS TGT FOREIGN NATION'
p440
S''
sS'HUM TGT NUMBER'
p441
S''
sS'PHYS TGT TYPE'
p442
S''
sS'HUM TGT NAME'
p443
S''
sS'INCIDENT TYPE'
p444
S''
sS'PHYS TGT NUMBER'
p445
S''
sS'PERP INDIVIDUAL ID'
p446
S''
sS'INCIDENT STAGE OF EXECUTION'
p447
S''
sS'HUM TGT DESCRIPTION'
p448
S''
sS'PHYS TGT EFFECT OF INCIDENT'
p449
S''
sS'HUM TGT FOREIGN NATION'
p450
S''
sS'INCIDENT DATE'
p451
S''
sS'MESSAGE TEMPLATE'
p452
S''
sS'PHYS TGT TOTAL NUMBER'
p453
S''
ssS'TST1MUC30001'
p454
(dp455
S'PERP ORGANIZATION CONFIDENCE'
p456
S''
sS'HUM TGT EFFECT OF INCIDENT'
p457
S''
sS'INCIDENT LOCATION'
p458
S'GUATEMALA PETEN DEPARTMENT FLORES CITY'
p459
sS'PHYS TGT ID'
p460
S'TANK TRUCK TRUCK'
p461
sS'PERP INCIDENT CATEGORY'
p462
S'TERRORIST ACT'
p463
sS'PERP ORGANIZATION ID'
p464
S''
sS'HUM TGT TYPE'
p465
S''
sS'HUM TGT TOTAL NUMBER'
p466
S''
sS'INCIDENT INSTRUMENT ID'
p467
S''
sS'INCIDENT INSTRUMENT TYPE'
p468
S''
sS'PHYS TGT FOREIGN NATION'
p469
S''
sS'HUM TGT NUMBER'
p470
S''
sS'PHYS TGT TYPE'
p471
S'TRANSPORT VEHICLE TANK TRUCK TRUCK'
p472
sS'HUM TGT NAME'
p473
S''
sS'INCIDENT TYPE'
p474
S'ARSON'
p475
sS'PHYS TGT NUMBER'
p476
S'1 TANK TRUCK TRUCK'
p477
sS'PERP INDIVIDUAL ID'
p478
S'GUERRILLAS'
p479
sS'INCIDENT STAGE OF EXECUTION'
p480
S'ACCOMPLISHED'
p481
sS'HUM TGT DESCRIPTION'
p482
S''
sS'PHYS TGT EFFECT OF INCIDENT'
p483
S'SOME DAMAGE TANK TRUCK TRUCK'
p484
sS'HUM TGT FOREIGN NATION'
p485
S''
sS'INCIDENT DATE'
p486
S'04 FEB 90'
p487
sS'MESSAGE TEMPLATE'
p488
S'6'
sS'PHYS TGT TOTAL NUMBER'
p489
S''
ssS'TST1MUC30006'
p490
(dp491
S'PERP ORGANIZATION CONFIDENCE'
p492
S''
sS'HUM TGT EFFECT OF INCIDENT'
p493
S'DEATH ANTONIO ROLDAN BETANCUR'
p494
sS'INCIDENT LOCATION'
p495
S'COLOMBIA MEDELLIN CITY AMERICA NEIGHBORHOOD'
p496
sS'PHYS TGT ID'
p497
S''
sS'PERP INCIDENT CATEGORY'
p498
S''
sS'PERP ORGANIZATION ID'
p499
S''
sS'HUM TGT TYPE'
p500
S'GOVERNMENT OFFICIAL ANTONIO ROLDAN BETANCUR'
p501
sS'HUM TGT TOTAL NUMBER'
p502
S''
sS'INCIDENT INSTRUMENT ID'
p503
S''
sS'INCIDENT INSTRUMENT TYPE'
p504
S''
sS'PHYS TGT FOREIGN NATION'
p505
S''
sS'HUM TGT NUMBER'
p506
S'1 ANTONIO ROLDAN BETANCUR'
p507
sS'PHYS TGT TYPE'
p508
S''
sS'HUM TGT NAME'
p509
S'ANTONIO ROLDAN BETANCUR'
p510
sS'INCIDENT TYPE'
p511
S'ATTACK'
p512
sS'PHYS TGT NUMBER'
p513
S''
sS'PERP INDIVIDUAL ID'
p514
S''
sS'INCIDENT STAGE OF EXECUTION'
p515
S'ACCOMPLISHED'
p516
sS'HUM TGT DESCRIPTION'
p517
S'ANTIOQUIA DEPARTMENT GOVERNOR ANTIOQUIA GOVERNOR DEPARTMENT GOVERNOR GOVERNOR ANTONIO ROLDAN BETANCUR'
p518
sS'PHYS TGT EFFECT OF INCIDENT'
p519
S''
sS'HUM TGT FOREIGN NATION'
p520
S''
sS'INCIDENT DATE'
p521
S'18 AUG 89'
p522
sS'MESSAGE TEMPLATE'
p523
S'1'
sS'PHYS TGT TOTAL NUMBER'
p524
S''
ssS'TST1MUC30007'
p525
(dp526
S'PERP ORGANIZATION CONFIDENCE'
p527
S''
sS'HUM TGT EFFECT OF INCIDENT'
p528
S''
sS'INCIDENT LOCATION'
p529
S''
sS'PHYS TGT ID'
p530
S''
sS'PERP INCIDENT CATEGORY'
p531
S''
sS'PERP ORGANIZATION ID'
p532
S''
sS'HUM TGT TYPE'
p533
S''
sS'HUM TGT TOTAL NUMBER'
p534
S''
sS'INCIDENT INSTRUMENT ID'
p535
S''
sS'INCIDENT INSTRUMENT TYPE'
p536
S''
sS'PHYS TGT FOREIGN NATION'
p537
S''
sS'HUM TGT NUMBER'
p538
S''
sS'PHYS TGT TYPE'
p539
S''
sS'HUM TGT NAME'
p540
S''
sS'INCIDENT TYPE'
p541
S''
sS'PHYS TGT NUMBER'
p542
S''
sS'PERP INDIVIDUAL ID'
p543
S''
sS'INCIDENT STAGE OF EXECUTION'
p544
S''
sS'HUM TGT DESCRIPTION'
p545
S''
sS'PHYS TGT EFFECT OF INCIDENT'
p546
S''
sS'HUM TGT FOREIGN NATION'
p547
S''
sS'INCIDENT DATE'
p548
S''
sS'MESSAGE TEMPLATE'
p549
S''
sS'PHYS TGT TOTAL NUMBER'
p550
S''
ssS'TST1MUC30004'
p551
(dp552
S'PERP ORGANIZATION CONFIDENCE'
p553
S''
sS'HUM TGT EFFECT OF INCIDENT'
p554
S'NO INJURY OR DEATH PEOPLE'
p555
sS'INCIDENT LOCATION'
p556
S'COLOMBIA ANTIOQUIA DEPARTMENT'
p557
sS'PHYS TGT ID'
p558
S'ANTIOQUIA LIQUEUR PLANT LIQUEUR PLANT'
p559
sS'PERP INCIDENT CATEGORY'
p560
S'TERRORIST ACT'
p561
sS'PERP ORGANIZATION ID'
p562
S''
sS'HUM TGT TYPE'
p563
S'CIVILIAN PEOPLE'
p564
sS'HUM TGT TOTAL NUMBER'
p565
S''
sS'INCIDENT INSTRUMENT ID'
p566
S'FOUR POWERFUL ROCKETS POWERFUL ROCKETS ROCKETS'
p567
sS'INCIDENT INSTRUMENT TYPE'
p568
S'ROCKET FOUR POWERFUL ROCKETS POWERFUL ROCKETS ROCKETS'
p569
sS'PHYS TGT FOREIGN NATION'
p570
S''
sS'HUM TGT NUMBER'
p571
S'PLURAL PEOPLE'
p572
sS'PHYS TGT TYPE'
p573
S'COMMERCIAL ANTIOQUIA LIQUEUR PLANT LIQUEUR PLANT'
p574
sS'HUM TGT NAME'
p575
S''
sS'INCIDENT TYPE'
p576
S'BOMBING'
p577
sS'PHYS TGT NUMBER'
p578
S'1 ANTIOQUIA LIQUEUR PLANT LIQUEUR PLANT'
p579
sS'PERP INDIVIDUAL ID'
p580
S'MAN'
p581
sS'INCIDENT STAGE OF EXECUTION'
p582
S'ATTEMPTED'
p583
sS'HUM TGT DESCRIPTION'
p584
S'PEOPLE'
p585
sS'PHYS TGT EFFECT OF INCIDENT'
p586
S'NO DAMAGE ANTIOQUIA LIQUEUR PLANT LIQUEUR PLANT'
p587
sS'HUM TGT FOREIGN NATION'
p588
S''
sS'INCIDENT DATE'
p589
S'29 AUG 89'
p590
sS'MESSAGE TEMPLATE'
p591
S'1'
sS'PHYS TGT TOTAL NUMBER'
p592
S''
ssS'TST1MUC30005'
p593
(dp594
S'PERP ORGANIZATION CONFIDENCE'
p595
S''
sS'HUM TGT EFFECT OF INCIDENT'
p596
S''
sS'INCIDENT LOCATION'
p597
S''
sS'PHYS TGT ID'
p598
S''
sS'PERP INCIDENT CATEGORY'
p599
S''
sS'PERP ORGANIZATION ID'
p600
S''
sS'HUM TGT TYPE'
p601
S''
sS'HUM TGT TOTAL NUMBER'
p602
S''
sS'INCIDENT INSTRUMENT ID'
p603
S''
sS'INCIDENT INSTRUMENT TYPE'
p604
S''
sS'PHYS TGT FOREIGN NATION'
p605
S''
sS'HUM TGT NUMBER'
p606
S''
sS'PHYS TGT TYPE'
p607
S''
sS'HUM TGT NAME'
p608
S''
sS'INCIDENT TYPE'
p609
S''
sS'PHYS TGT NUMBER'
p610
S''
sS'PERP INDIVIDUAL ID'
p611
S''
sS'INCIDENT STAGE OF EXECUTION'
p612
S''
sS'HUM TGT DESCRIPTION'
p613
S''
sS'PHYS TGT EFFECT OF INCIDENT'
p614
S''
sS'HUM TGT FOREIGN NATION'
p615
S''
sS'INCIDENT DATE'
p616
S''
sS'MESSAGE TEMPLATE'
p617
S''
sS'PHYS TGT TOTAL NUMBER'
p618
S''
ssS'TST1MUC30099'
p619
(dp620
S'PERP ORGANIZATION CONFIDENCE'
p621
S'REPORTED AS FACT SHINING PATH'
p622
sS'HUM TGT EFFECT OF INCIDENT'
p623
S''
sS'INCIDENT LOCATION'
p624
S'PERU LIMA CITY'
p625
sS'PHYS TGT ID'
p626
S'BUSES'
p627
sS'PERP INCIDENT CATEGORY'
p628
S'TERRORIST ACT'
p629
sS'PERP ORGANIZATION ID'
p630
S'SHINING PATH'
p631
sS'HUM TGT TYPE'
p632
S''
sS'HUM TGT TOTAL NUMBER'
p633
S''
sS'INCIDENT INSTRUMENT ID'
p634
S''
sS'INCIDENT INSTRUMENT TYPE'
p635
S''
sS'PHYS TGT FOREIGN NATION'
p636
S''
sS'HUM TGT NUMBER'
p637
S''
sS'PHYS TGT TYPE'
p638
S'TRANSPORT VEHICLE BUSES'
p639
sS'HUM TGT NAME'
p640
S''
sS'INCIDENT TYPE'
p641
S'ARSON'
p642
sS'PHYS TGT NUMBER'
p643
S'10 BUSES'
p644
sS'PERP INDIVIDUAL ID'
p645
S''
sS'INCIDENT STAGE OF EXECUTION'
p646
S'ACCOMPLISHED'
p647
sS'HUM TGT DESCRIPTION'
p648
S''
sS'PHYS TGT EFFECT OF INCIDENT'
p649
S'SOME DAMAGE BUSES'
p650
sS'HUM TGT FOREIGN NATION'
p651
S''
sS'INCIDENT DATE'
p652
S'24 OCT 89'
p653
sS'MESSAGE TEMPLATE'
p654
S'3'
sS'PHYS TGT TOTAL NUMBER'
p655
S''
ssS'TST1MUC30098'
p656
(dp657
S'PERP ORGANIZATION CONFIDENCE'
p658
S''
sS'HUM TGT EFFECT OF INCIDENT'
p659
S''
sS'INCIDENT LOCATION'
p660
S''
sS'PHYS TGT ID'
p661
S''
sS'PERP INCIDENT CATEGORY'
p662
S''
sS'PERP ORGANIZATION ID'
p663
S''
sS'HUM TGT TYPE'
p664
S''
sS'HUM TGT TOTAL NUMBER'
p665
S''
sS'INCIDENT INSTRUMENT ID'
p666
S''
sS'INCIDENT INSTRUMENT TYPE'
p667
S''
sS'PHYS TGT FOREIGN NATION'
p668
S''
sS'HUM TGT NUMBER'
p669
S''
sS'PHYS TGT TYPE'
p670
S''
sS'HUM TGT NAME'
p671
S''
sS'INCIDENT TYPE'
p672
S''
sS'PHYS TGT NUMBER'
p673
S''
sS'PERP INDIVIDUAL ID'
p674
S''
sS'INCIDENT STAGE OF EXECUTION'
p675
S''
sS'HUM TGT DESCRIPTION'
p676
S''
sS'PHYS TGT EFFECT OF INCIDENT'
p677
S''
sS'HUM TGT FOREIGN NATION'
p678
S''
sS'INCIDENT DATE'
p679
S''
sS'MESSAGE TEMPLATE'
p680
S''
sS'PHYS TGT TOTAL NUMBER'
p681
S''
ssS'TST1MUC30095'
p682
(dp683
S'PERP ORGANIZATION CONFIDENCE'
p684
S''
sS'HUM TGT EFFECT OF INCIDENT'
p685
S''
sS'INCIDENT LOCATION'
p686
S''
sS'PHYS TGT ID'
p687
S''
sS'PERP INCIDENT CATEGORY'
p688
S''
sS'PERP ORGANIZATION ID'
p689
S''
sS'HUM TGT TYPE'
p690
S''
sS'HUM TGT TOTAL NUMBER'
p691
S''
sS'INCIDENT INSTRUMENT ID'
p692
S''
sS'INCIDENT INSTRUMENT TYPE'
p693
S''
sS'PHYS TGT FOREIGN NATION'
p694
S''
sS'HUM TGT NUMBER'
p695
S''
sS'PHYS TGT TYPE'
p696
S''
sS'HUM TGT NAME'
p697
S''
sS'INCIDENT TYPE'
p698
S''
sS'PHYS TGT NUMBER'
p699
S''
sS'PERP INDIVIDUAL ID'
p700
S''
sS'INCIDENT STAGE OF EXECUTION'
p701
S''
sS'HUM TGT DESCRIPTION'
p702
S''
sS'PHYS TGT EFFECT OF INCIDENT'
p703
S''
sS'HUM TGT FOREIGN NATION'
p704
S''
sS'INCIDENT DATE'
p705
S''
sS'MESSAGE TEMPLATE'
p706
S''
sS'PHYS TGT TOTAL NUMBER'
p707
S''
ssS'TST1MUC30094'
p708
(dp709
S'PERP ORGANIZATION CONFIDENCE'
p710
S''
sS'HUM TGT EFFECT OF INCIDENT'
p711
S''
sS'INCIDENT LOCATION'
p712
S''
sS'PHYS TGT ID'
p713
S''
sS'PERP INCIDENT CATEGORY'
p714
S''
sS'PERP ORGANIZATION ID'
p715
S''
sS'HUM TGT TYPE'
p716
S''
sS'HUM TGT TOTAL NUMBER'
p717
S''
sS'INCIDENT INSTRUMENT ID'
p718
S''
sS'INCIDENT INSTRUMENT TYPE'
p719
S''
sS'PHYS TGT FOREIGN NATION'
p720
S''
sS'HUM TGT NUMBER'
p721
S''
sS'PHYS TGT TYPE'
p722
S''
sS'HUM TGT NAME'
p723
S''
sS'INCIDENT TYPE'
p724
S''
sS'PHYS TGT NUMBER'
p725
S''
sS'PERP INDIVIDUAL ID'
p726
S''
sS'INCIDENT STAGE OF EXECUTION'
p727
S''
sS'HUM TGT DESCRIPTION'
p728
S''
sS'PHYS TGT EFFECT OF INCIDENT'
p729
S''
sS'HUM TGT FOREIGN NATION'
p730
S''
sS'INCIDENT DATE'
p731
S''
sS'MESSAGE TEMPLATE'
p732
S''
sS'PHYS TGT TOTAL NUMBER'
p733
S''
ssS'TST1MUC30097'
p734
(dp735
S'PERP ORGANIZATION CONFIDENCE'
p736
S''
sS'HUM TGT EFFECT OF INCIDENT'
p737
S''
sS'INCIDENT LOCATION'
p738
S''
sS'PHYS TGT ID'
p739
S''
sS'PERP INCIDENT CATEGORY'
p740
S''
sS'PERP ORGANIZATION ID'
p741
S''
sS'HUM TGT TYPE'
p742
S''
sS'HUM TGT TOTAL NUMBER'
p743
S''
sS'INCIDENT INSTRUMENT ID'
p744
S''
sS'INCIDENT INSTRUMENT TYPE'
p745
S''
sS'PHYS TGT FOREIGN NATION'
p746
S''
sS'HUM TGT NUMBER'
p747
S''
sS'PHYS TGT TYPE'
p748
S''
sS'HUM TGT NAME'
p749
S''
sS'INCIDENT TYPE'
p750
S''
sS'PHYS TGT NUMBER'
p751
S''
sS'PERP INDIVIDUAL ID'
p752
S''
sS'INCIDENT STAGE OF EXECUTION'
p753
S''
sS'HUM TGT DESCRIPTION'
p754
S''
sS'PHYS TGT EFFECT OF INCIDENT'
p755
S''
sS'HUM TGT FOREIGN NATION'
p756
S''
sS'INCIDENT DATE'
p757
S''
sS'MESSAGE TEMPLATE'
p758
S''
sS'PHYS TGT TOTAL NUMBER'
p759
S''
ssS'TST1MUC30096'
p760
(dp761
S'PERP ORGANIZATION CONFIDENCE'
p762
S''
sS'HUM TGT EFFECT OF INCIDENT'
p763
S''
sS'INCIDENT LOCATION'
p764
S''
sS'PHYS TGT ID'
p765
S''
sS'PERP INCIDENT CATEGORY'
p766
S''
sS'PERP ORGANIZATION ID'
p767
S''
sS'HUM TGT TYPE'
p768
S''
sS'HUM TGT TOTAL NUMBER'
p769
S''
sS'INCIDENT INSTRUMENT ID'
p770
S''
sS'INCIDENT INSTRUMENT TYPE'
p771
S''
sS'PHYS TGT FOREIGN NATION'
p772
S''
sS'HUM TGT NUMBER'
p773
S''
sS'PHYS TGT TYPE'
p774
S''
sS'HUM TGT NAME'
p775
S''
sS'INCIDENT TYPE'
p776
S''
sS'PHYS TGT NUMBER'
p777
S''
sS'PERP INDIVIDUAL ID'
p778
S''
sS'INCIDENT STAGE OF EXECUTION'
p779
S''
sS'HUM TGT DESCRIPTION'
p780
S''
sS'PHYS TGT EFFECT OF INCIDENT'
p781
S''
sS'HUM TGT FOREIGN NATION'
p782
S''
sS'INCIDENT DATE'
p783
S''
sS'MESSAGE TEMPLATE'
p784
S''
sS'PHYS TGT TOTAL NUMBER'
p785
S''
ssS'TST1MUC30091'
p786
(dp787
S'PERP ORGANIZATION CONFIDENCE'
p788
S''
sS'HUM TGT EFFECT OF INCIDENT'
p789
S''
sS'INCIDENT LOCATION'
p790
S''
sS'PHYS TGT ID'
p791
S''
sS'PERP INCIDENT CATEGORY'
p792
S''
sS'PERP ORGANIZATION ID'
p793
S''
sS'HUM TGT TYPE'
p794
S''
sS'HUM TGT TOTAL NUMBER'
p795
S''
sS'INCIDENT INSTRUMENT ID'
p796
S''
sS'INCIDENT INSTRUMENT TYPE'
p797
S''
sS'PHYS TGT FOREIGN NATION'
p798
S''
sS'HUM TGT NUMBER'
p799
S''
sS'PHYS TGT TYPE'
p800
S''
sS'HUM TGT NAME'
p801
S''
sS'INCIDENT TYPE'
p802
S''
sS'PHYS TGT NUMBER'
p803
S''
sS'PERP INDIVIDUAL ID'
p804
S''
sS'INCIDENT STAGE OF EXECUTION'
p805
S''
sS'HUM TGT DESCRIPTION'
p806
S''
sS'PHYS TGT EFFECT OF INCIDENT'
p807
S''
sS'HUM TGT FOREIGN NATION'
p808
S''
sS'INCIDENT DATE'
p809
S''
sS'MESSAGE TEMPLATE'
p810
S''
sS'PHYS TGT TOTAL NUMBER'
p811
S''
ssS'TST1MUC30090'
p812
(dp813
S'PERP ORGANIZATION CONFIDENCE'
p814
S'SUSPECTED OR ACCUSED FARABUNDO MARTI NATIONAL LIBERATION FRONT FMLN'
p815
sS'HUM TGT EFFECT OF INCIDENT'
p816
S'NO INJURY OR DEATH'
p817
sS'INCIDENT LOCATION'
p818
S'EL SALVADOR SAN SALVADOR CITY'
p819
sS'PHYS TGT ID'
p820
S'POWER TOWER'
p821
sS'PERP INCIDENT CATEGORY'
p822
S'TERRORIST ACT'
p823
sS'PERP ORGANIZATION ID'
p824
S'FARABUNDO MARTI NATIONAL LIBERATION FRONT FMLN'
p825
sS'HUM TGT TYPE'
p826
S''
sS'HUM TGT TOTAL NUMBER'
p827
S''
sS'INCIDENT INSTRUMENT ID'
p828
S'BOMB'
p829
sS'INCIDENT INSTRUMENT TYPE'
p830
S'BOMB BOMB'
p831
sS'PHYS TGT FOREIGN NATION'
p832
S''
sS'HUM TGT NUMBER'
p833
S''
sS'PHYS TGT TYPE'
p834
S'ENERGY POWER TOWER'
p835
sS'HUM TGT NAME'
p836
S''
sS'INCIDENT TYPE'
p837
S'BOMBING'
p838
sS'PHYS TGT NUMBER'
p839
S'1 POWER TOWER'
p840
sS'PERP INDIVIDUAL ID'
p841
S'URBAN GUERRILLA COMMANDOS'
p842
sS'INCIDENT STAGE OF EXECUTION'
p843
S'ACCOMPLISHED'
p844
sS'HUM TGT DESCRIPTION'
p845
S''
sS'PHYS TGT EFFECT OF INCIDENT'
p846
S'DESTROYED POWER TOWER'
p847
sS'HUM TGT FOREIGN NATION'
p848
S''
sS'INCIDENT DATE'
p849
S'19 MAR 90'
p850
sS'MESSAGE TEMPLATE'
p851
S'1'
sS'PHYS TGT TOTAL NUMBER'
p852
S''
ssS'TST1MUC30093'
p853
(dp854
S'PERP ORGANIZATION CONFIDENCE'
p855
S''
sS'HUM TGT EFFECT OF INCIDENT'
p856
S'DEATH JESUIT PRIESTS JESUIT PRIESTS PRIESTS'
p857
sS'INCIDENT LOCATION'
p858
S'EL SALVADOR SAN SALVADOR CITY DEPARTMENT'
p859
sS'PHYS TGT ID'
p860
S''
sS'PERP INCIDENT CATEGORY'
p861
S'STATESPONSORED VIOLENCE'
p862
sS'PERP ORGANIZATION ID'
p863
S''
sS'HUM TGT TYPE'
p864
S'CIVILIAN JESUIT PRIESTS JESUIT PRIESTS PRIESTS'
p865
sS'HUM TGT TOTAL NUMBER'
p866
S''
sS'INCIDENT INSTRUMENT ID'
p867
S''
sS'INCIDENT INSTRUMENT TYPE'
p868
S''
sS'PHYS TGT FOREIGN NATION'
p869
S''
sS'HUM TGT NUMBER'
p870
S'11 JESUIT PRIESTS JESUIT PRIESTS PRIESTS'
p871
sS'PHYS TGT TYPE'
p872
S''
sS'HUM TGT NAME'
p873
S''
sS'INCIDENT TYPE'
p874
S'ATTACK'
p875
sS'PHYS TGT NUMBER'
p876
S''
sS'PERP INDIVIDUAL ID'
p877
S'COLONEL PONCE'
p878
sS'INCIDENT STAGE OF EXECUTION'
p879
S'ACCOMPLISHED'
p880
sS'HUM TGT DESCRIPTION'
p881
S'JESUIT PRIESTS JESUIT PRIESTS PRIESTS'
p882
sS'PHYS TGT EFFECT OF INCIDENT'
p883
S''
sS'HUM TGT FOREIGN NATION'
p884
S''
sS'INCIDENT DATE'
p885
S''
sS'MESSAGE TEMPLATE'
p886
S'1'
sS'PHYS TGT TOTAL NUMBER'
p887
S''
ssS'TST1MUC30092'
p888
(dp889
S'PERP ORGANIZATION CONFIDENCE'
p890
S'CLAIMED OR ADMITTED FMLN'
p891
sS'HUM TGT EFFECT OF INCIDENT'
p892
S''
sS'INCIDENT LOCATION'
p893
S'EL SALVADOR SAN MIGUEL CITY'
p894
sS'PHYS TGT ID'
p895
S'PYLONS'
p896
sS'PERP INCIDENT CATEGORY'
p897
S'TERRORIST ACT'
p898
sS'PERP ORGANIZATION ID'
p899
S'FMLN'
p900
sS'HUM TGT TYPE'
p901
S''
sS'HUM TGT TOTAL NUMBER'
p902
S''
sS'INCIDENT INSTRUMENT ID'
p903
S''
sS'INCIDENT INSTRUMENT TYPE'
p904
S''
sS'PHYS TGT FOREIGN NATION'
p905
S''
sS'HUM TGT NUMBER'
p906
S''
sS'PHYS TGT TYPE'
p907
S'ENERGY OTHER TRANSFORMERS'
p908
sS'HUM TGT NAME'
p909
S''
sS'INCIDENT TYPE'
p910
S'ATTACK'
p911
sS'PHYS TGT NUMBER'
p912
S'PLURAL PYLONS'
p913
sS'PERP INDIVIDUAL ID'
p914
S'URBAN GUERRILLAS'
p915
sS'INCIDENT STAGE OF EXECUTION'
p916
S'ACCOMPLISHED'
p917
sS'HUM TGT DESCRIPTION'
p918
S''
sS'PHYS TGT EFFECT OF INCIDENT'
p919
S''
sS'HUM TGT FOREIGN NATION'
p920
S''
sS'INCIDENT DATE'
p921
S''
sS'MESSAGE TEMPLATE'
p922
S'1'
sS'PHYS TGT TOTAL NUMBER'
p923
S''
ssS'TST1MUC30015'
p924
(dp925
S'PERP ORGANIZATION CONFIDENCE'
p926
S''
sS'HUM TGT EFFECT OF INCIDENT'
p927
S''
sS'INCIDENT LOCATION'
p928
S''
sS'PHYS TGT ID'
p929
S''
sS'PERP INCIDENT CATEGORY'
p930
S''
sS'PERP ORGANIZATION ID'
p931
S''
sS'HUM TGT TYPE'
p932
S''
sS'HUM TGT TOTAL NUMBER'
p933
S''
sS'INCIDENT INSTRUMENT ID'
p934
S''
sS'INCIDENT INSTRUMENT TYPE'
p935
S''
sS'PHYS TGT FOREIGN NATION'
p936
S''
sS'HUM TGT NUMBER'
p937
S''
sS'PHYS TGT TYPE'
p938
S''
sS'HUM TGT NAME'
p939
S''
sS'INCIDENT TYPE'
p940
S''
sS'PHYS TGT NUMBER'
p941
S''
sS'PERP INDIVIDUAL ID'
p942
S''
sS'INCIDENT STAGE OF EXECUTION'
p943
S''
sS'HUM TGT DESCRIPTION'
p944
S''
sS'PHYS TGT EFFECT OF INCIDENT'
p945
S''
sS'HUM TGT FOREIGN NATION'
p946
S''
sS'INCIDENT DATE'
p947
S''
sS'MESSAGE TEMPLATE'
p948
S''
sS'PHYS TGT TOTAL NUMBER'
p949
S''
ssS'TST1MUC30014'
p950
(dp951
S'PERP ORGANIZATION CONFIDENCE'
p952
S''
sS'HUM TGT EFFECT OF INCIDENT'
p953
S''
sS'INCIDENT LOCATION'
p954
S''
sS'PHYS TGT ID'
p955
S''
sS'PERP INCIDENT CATEGORY'
p956
S''
sS'PERP ORGANIZATION ID'
p957
S''
sS'HUM TGT TYPE'
p958
S''
sS'HUM TGT TOTAL NUMBER'
p959
S''
sS'INCIDENT INSTRUMENT ID'
p960
S''
sS'INCIDENT INSTRUMENT TYPE'
p961
S''
sS'PHYS TGT FOREIGN NATION'
p962
S''
sS'HUM TGT NUMBER'
p963
S''
sS'PHYS TGT TYPE'
p964
S''
sS'HUM TGT NAME'
p965
S''
sS'INCIDENT TYPE'
p966
S''
sS'PHYS TGT NUMBER'
p967
S''
sS'PERP INDIVIDUAL ID'
p968
S''
sS'INCIDENT STAGE OF EXECUTION'
p969
S''
sS'HUM TGT DESCRIPTION'
p970
S''
sS'PHYS TGT EFFECT OF INCIDENT'
p971
S''
sS'HUM TGT FOREIGN NATION'
p972
S''
sS'INCIDENT DATE'
p973
S''
sS'MESSAGE TEMPLATE'
p974
S''
sS'PHYS TGT TOTAL NUMBER'
p975
S''
ssS'TST1MUC30017'
p976
(dp977
S'PERP ORGANIZATION CONFIDENCE'
p978
S''
sS'HUM TGT EFFECT OF INCIDENT'
p979
S''
sS'INCIDENT LOCATION'
p980
S''
sS'PHYS TGT ID'
p981
S''
sS'PERP INCIDENT CATEGORY'
p982
S''
sS'PERP ORGANIZATION ID'
p983
S''
sS'HUM TGT TYPE'
p984
S''
sS'HUM TGT TOTAL NUMBER'
p985
S''
sS'INCIDENT INSTRUMENT ID'
p986
S''
sS'INCIDENT INSTRUMENT TYPE'
p987
S''
sS'PHYS TGT FOREIGN NATION'
p988
S''
sS'HUM TGT NUMBER'
p989
S''
sS'PHYS TGT TYPE'
p990
S''
sS'HUM TGT NAME'
p991
S''
sS'INCIDENT TYPE'
p992
S''
sS'PHYS TGT NUMBER'
p993
S''
sS'PERP INDIVIDUAL ID'
p994
S''
sS'INCIDENT STAGE OF EXECUTION'
p995
S''
sS'HUM TGT DESCRIPTION'
p996
S''
sS'PHYS TGT EFFECT OF INCIDENT'
p997
S''
sS'HUM TGT FOREIGN NATION'
p998
S''
sS'INCIDENT DATE'
p999
S''
sS'MESSAGE TEMPLATE'
p1000
S''
sS'PHYS TGT TOTAL NUMBER'
p1001
S''
ssS'TST1MUC30016'
p1002
(dp1003
S'PERP ORGANIZATION CONFIDENCE'
p1004
S'POSSIBLE ARMY'
p1005
sS'HUM TGT EFFECT OF INCIDENT'
p1006
S''
sS'INCIDENT LOCATION'
p1007
S'EL SALVADOR ZACAMIL NEIGHBORHOOD'
p1008
sS'PHYS TGT ID'
p1009
S'HOUSES'
p1010
sS'PERP INCIDENT CATEGORY'
p1011
S'STATESPONSORED VIOLENCE'
p1012
sS'PERP ORGANIZATION ID'
p1013
S'ARMY'
p1014
sS'HUM TGT TYPE'
p1015
S''
sS'HUM TGT TOTAL NUMBER'
p1016
S''
sS'INCIDENT INSTRUMENT ID'
p1017
S'BOMBS'
p1018
sS'INCIDENT INSTRUMENT TYPE'
p1019
S'BOMB BOMBS'
p1020
sS'PHYS TGT FOREIGN NATION'
p1021
S''
sS'HUM TGT NUMBER'
p1022
S''
sS'PHYS TGT TYPE'
p1023
S'CIVILIAN RESIDENCE HOUSES'
p1024
sS'HUM TGT NAME'
p1025
S''
sS'INCIDENT TYPE'
p1026
S'BOMBING'
p1027
sS'PHYS TGT NUMBER'
p1028
S'500 HOUSES'
p1029
sS'PERP INDIVIDUAL ID'
p1030
S'OFFICERS'
p1031
sS'INCIDENT STAGE OF EXECUTION'
p1032
S'ACCOMPLISHED'
p1033
sS'HUM TGT DESCRIPTION'
p1034
S''
sS'PHYS TGT EFFECT OF INCIDENT'
p1035
S'DESTROYED HOUSES'
p1036
sS'HUM TGT FOREIGN NATION'
p1037
S''
sS'INCIDENT DATE'
p1038
S'23 NOV 89'
p1039
sS'MESSAGE TEMPLATE'
p1040
S'1'
sS'PHYS TGT TOTAL NUMBER'
p1041
S''
ssS'TST1MUC30011'
p1042
(dp1043
S'PERP ORGANIZATION CONFIDENCE'
p1044
S'REPORTED AS FACT CHILEAN GOVERNMENT'
p1045
sS'HUM TGT EFFECT OF INCIDENT'
p1046
S'DEATH ORLANDO LETELIER'
p1047
sS'INCIDENT LOCATION'
p1048
S'UNITED STATES WASHINGTON DC CITY'
p1049
sS'PHYS TGT ID'
p1050
S''
sS'PERP INCIDENT CATEGORY'
p1051
S'STATESPONSORED VIOLENCE'
p1052
sS'PERP ORGANIZATION ID'
p1053
S'CHILEAN GOVERNMENT'
p1054
sS'HUM TGT TYPE'
p1055
S'GOVERNMENT OFFICIAL ORLANDO LETELIER'
p1056
sS'HUM TGT TOTAL NUMBER'
p1057
S''
sS'INCIDENT INSTRUMENT ID'
p1058
S''
sS'INCIDENT INSTRUMENT TYPE'
p1059
S''
sS'PHYS TGT FOREIGN NATION'
p1060
S''
sS'HUM TGT NUMBER'
p1061
S'1 ORLANDO LETELIER'
p1062
sS'PHYS TGT TYPE'
p1063
S''
sS'HUM TGT NAME'
p1064
S'ORLANDO LETELIER'
p1065
sS'INCIDENT TYPE'
p1066
S'ATTACK'
p1067
sS'PHYS TGT NUMBER'
p1068
S''
sS'PERP INDIVIDUAL ID'
p1069
S''
sS'INCIDENT STAGE OF EXECUTION'
p1070
S'ACCOMPLISHED'
p1071
sS'HUM TGT DESCRIPTION'
p1072
S'FORMER CHILEAN FOREIGN MINISTER ORLANDO LETELIER'
p1073
sS'PHYS TGT EFFECT OF INCIDENT'
p1074
S''
sS'HUM TGT FOREIGN NATION'
p1075
S'CHILE ORLANDO LETELIER'
p1076
sS'RONNIE MOFFIT'
p1077
S''
sS'INCIDENT DATE'
p1078
S'18 MAY 90'
p1079
sS'MESSAGE TEMPLATE'
p1080
S'1'
sS'PHYS TGT TOTAL NUMBER'
p1081
S''
ssS'TST1MUC30010'
p1082
(dp1083
S'PERP ORGANIZATION CONFIDENCE'
p1084
S''
sS'HUM TGT EFFECT OF INCIDENT'
p1085
S''
sS'INCIDENT LOCATION'
p1086
S''
sS'PHYS TGT ID'
p1087
S''
sS'PERP INCIDENT CATEGORY'
p1088
S''
sS'PERP ORGANIZATION ID'
p1089
S''
sS'HUM TGT TYPE'
p1090
S''
sS'HUM TGT TOTAL NUMBER'
p1091
S''
sS'INCIDENT INSTRUMENT ID'
p1092
S''
sS'INCIDENT INSTRUMENT TYPE'
p1093
S''
sS'PHYS TGT FOREIGN NATION'
p1094
S''
sS'HUM TGT NUMBER'
p1095
S''
sS'PHYS TGT TYPE'
p1096
S''
sS'HUM TGT NAME'
p1097
S''
sS'INCIDENT TYPE'
p1098
S''
sS'PHYS TGT NUMBER'
p1099
S''
sS'PERP INDIVIDUAL ID'
p1100
S''
sS'INCIDENT STAGE OF EXECUTION'
p1101
S''
sS'HUM TGT DESCRIPTION'
p1102
S''
sS'PHYS TGT EFFECT OF INCIDENT'
p1103
S''
sS'HUM TGT FOREIGN NATION'
p1104
S''
sS'INCIDENT DATE'
p1105
S''
sS'MESSAGE TEMPLATE'
p1106
S''
sS'PHYS TGT TOTAL NUMBER'
p1107
S''
ssS'TST1MUC30013'
p1108
(dp1109
S'PERP ORGANIZATION CONFIDENCE'
p1110
S''
sS'HUM TGT EFFECT OF INCIDENT'
p1111
S''
sS'INCIDENT LOCATION'
p1112
S''
sS'PHYS TGT ID'
p1113
S''
sS'PERP INCIDENT CATEGORY'
p1114
S''
sS'PERP ORGANIZATION ID'
p1115
S''
sS'HUM TGT TYPE'
p1116
S''
sS'HUM TGT TOTAL NUMBER'
p1117
S''
sS'INCIDENT INSTRUMENT ID'
p1118
S''
sS'INCIDENT INSTRUMENT TYPE'
p1119
S''
sS'PHYS TGT FOREIGN NATION'
p1120
S''
sS'HUM TGT NUMBER'
p1121
S''
sS'PHYS TGT TYPE'
p1122
S''
sS'HUM TGT NAME'
p1123
S''
sS'INCIDENT TYPE'
p1124
S''
sS'PHYS TGT NUMBER'
p1125
S''
sS'PERP INDIVIDUAL ID'
p1126
S''
sS'INCIDENT STAGE OF EXECUTION'
p1127
S''
sS'HUM TGT DESCRIPTION'
p1128
S''
sS'PHYS TGT EFFECT OF INCIDENT'
p1129
S''
sS'HUM TGT FOREIGN NATION'
p1130
S''
sS'INCIDENT DATE'
p1131
S''
sS'MESSAGE TEMPLATE'
p1132
S''
sS'PHYS TGT TOTAL NUMBER'
p1133
S''
ssS'TST1MUC30012'
p1134
(dp1135
S'PERP ORGANIZATION CONFIDENCE'
p1136
S''
sS'HUM TGT EFFECT OF INCIDENT'
p1137
S''
sS'INCIDENT LOCATION'
p1138
S''
sS'PHYS TGT ID'
p1139
S''
sS'PERP INCIDENT CATEGORY'
p1140
S''
sS'PERP ORGANIZATION ID'
p1141
S''
sS'HUM TGT TYPE'
p1142
S''
sS'HUM TGT TOTAL NUMBER'
p1143
S''
sS'INCIDENT INSTRUMENT ID'
p1144
S''
sS'INCIDENT INSTRUMENT TYPE'
p1145
S''
sS'PHYS TGT FOREIGN NATION'
p1146
S''
sS'HUM TGT NUMBER'
p1147
S''
sS'PHYS TGT TYPE'
p1148
S''
sS'HUM TGT NAME'
p1149
S''
sS'INCIDENT TYPE'
p1150
S''
sS'PHYS TGT NUMBER'
p1151
S''
sS'PERP INDIVIDUAL ID'
p1152
S''
sS'INCIDENT STAGE OF EXECUTION'
p1153
S''
sS'HUM TGT DESCRIPTION'
p1154
S''
sS'PHYS TGT EFFECT OF INCIDENT'
p1155
S''
sS'HUM TGT FOREIGN NATION'
p1156
S''
sS'INCIDENT DATE'
p1157
S''
sS'MESSAGE TEMPLATE'
p1158
S''
sS'PHYS TGT TOTAL NUMBER'
p1159
S''
ssS'TST1MUC30019'
p1160
(dp1161
S'PERP ORGANIZATION CONFIDENCE'
p1162
S'REPORTED AS FACT ARMED FORCES'
p1163
sS'HUM TGT EFFECT OF INCIDENT'
p1164
S'DEATH JESUITS'
p1165
sS'INCIDENT LOCATION'
p1166
S'EL SALVADOR'
p1167
sS'PHYS TGT ID'
p1168
S''
sS'PERP INCIDENT CATEGORY'
p1169
S'STATESPONSORED VIOLENCE'
p1170
sS'PERP ORGANIZATION ID'
p1171
S'ARMED FORCES'
p1172
sS'HUM TGT TYPE'
p1173
S'CIVILIAN JESUITS'
p1174
sS'HUM TGT TOTAL NUMBER'
p1175
S''
sS'INCIDENT INSTRUMENT ID'
p1176
S''
sS'INCIDENT INSTRUMENT TYPE'
p1177
S''
sS'PHYS TGT FOREIGN NATION'
p1178
S''
sS'HUM TGT NUMBER'
p1179
S'6 JESUITS'
p1180
sS'PHYS TGT TYPE'
p1181
S''
sS'HUM TGT NAME'
p1182
S''
sS'INCIDENT TYPE'
p1183
S'ATTACK'
p1184
sS'PHYS TGT NUMBER'
p1185
S''
sS'PERP INDIVIDUAL ID'
p1186
S'MILITARY MEN'
p1187
sS'INCIDENT STAGE OF EXECUTION'
p1188
S'ACCOMPLISHED'
p1189
sS'HUM TGT DESCRIPTION'
p1190
S'JESUITS'
p1191
sS'PHYS TGT EFFECT OF INCIDENT'
p1192
S''
sS'HUM TGT FOREIGN NATION'
p1193
S''
sS'INCIDENT DATE'
p1194
S'26 JAN 90'
p1195
sS'MESSAGE TEMPLATE'
p1196
S'1'
sS'PHYS TGT TOTAL NUMBER'
p1197
S''
ssS'TST1MUC30018'
p1198
(dp1199
S'PERP ORGANIZATION CONFIDENCE'
p1200
S''
sS'HUM TGT EFFECT OF INCIDENT'
p1201
S'DEATH HILDA FLORES'
p1202
sS'INCIDENT LOCATION'
p1203
S'GUATEMALA GUATEMALA CITY CITY'
p1204
sS'PHYS TGT ID'
p1205
S''
sS'PERP INCIDENT CATEGORY'
p1206
S'STATESPONSORED VIOLENCE'
p1207
sS'PERP ORGANIZATION ID'
p1208
S''
sS'HUM TGT TYPE'
p1209
S'POLITICAL FIGURE HILDA FLORES'
p1210
sS'HUM TGT TOTAL NUMBER'
p1211
S''
sS'INCIDENT INSTRUMENT ID'
p1212
S''
sS'INCIDENT INSTRUMENT TYPE'
p1213
S''
sS'PHYS TGT FOREIGN NATION'
p1214
S''
sS'HILDA FLORES'
p1215
S''
sS'HUM TGT NUMBER'
p1216
S'1 HECTOR OQUELI COLINDRES'
p1217
sS'PHYS TGT TYPE'
p1218
S''
sS'HUM TGT NAME'
p1219
S'HECTOR OQUELI COLINDRES'
p1220
sS'INCIDENT TYPE'
p1221
S'KIDNAPPING'
p1222
sS'PHYS TGT NUMBER'
p1223
S''
sS'PERP INDIVIDUAL ID'
p1224
S'SALVADORAN RIGHTIST SECTORS'
p1225
sS'INCIDENT STAGE OF EXECUTION'
p1226
S'ACCOMPLISHED'
p1227
sS'HUM TGT DESCRIPTION'
p1228
S'SALVADORAN LEFTIST LEADER LEADER OF THE NATIONAL REVOLUTIONARY MOVEMENT MNR LEFTIST LEADER LEADER OF THE NATIONAL REVOLUTIONARY MOVEMENT HECTOR OQUELI COLINDRES'
p1229
sS'PHYS TGT EFFECT OF INCIDENT'
p1230
S''
sS'HUM TGT FOREIGN NATION'
p1231
S'EL SALVADOR HECTOR OQUELI COLINDRES'
p1232
sS'INCIDENT DATE'
p1233
S'01 JAN 90 31 JAN 90'
p1234
sS'MESSAGE TEMPLATE'
p1235
S'1'
sS'PHYS TGT TOTAL NUMBER'
p1236
S''
ssS'TST1MUC30060'
p1237
(dp1238
S'PERP ORGANIZATION CONFIDENCE'
p1239
S''
sS'HUM TGT EFFECT OF INCIDENT'
p1240
S''
sS'INCIDENT LOCATION'
p1241
S''
sS'PHYS TGT ID'
p1242
S''
sS'PERP INCIDENT CATEGORY'
p1243
S''
sS'PERP ORGANIZATION ID'
p1244
S''
sS'HUM TGT TYPE'
p1245
S''
sS'HUM TGT TOTAL NUMBER'
p1246
S''
sS'INCIDENT INSTRUMENT ID'
p1247
S''
sS'INCIDENT INSTRUMENT TYPE'
p1248
S''
sS'PHYS TGT FOREIGN NATION'
p1249
S''
sS'HUM TGT NUMBER'
p1250
S''
sS'PHYS TGT TYPE'
p1251
S''
sS'HUM TGT NAME'
p1252
S''
sS'INCIDENT TYPE'
p1253
S''
sS'PHYS TGT NUMBER'
p1254
S''
sS'PERP INDIVIDUAL ID'
p1255
S''
sS'INCIDENT STAGE OF EXECUTION'
p1256
S''
sS'HUM TGT DESCRIPTION'
p1257
S''
sS'PHYS TGT EFFECT OF INCIDENT'
p1258
S''
sS'HUM TGT FOREIGN NATION'
p1259
S''
sS'INCIDENT DATE'
p1260
S''
sS'MESSAGE TEMPLATE'
p1261
S''
sS'PHYS TGT TOTAL NUMBER'
p1262
S''
ssS'TST1MUC30061'
p1263
(dp1264
S'PERP ORGANIZATION CONFIDENCE'
p1265
S'SUSPECTED OR ACCUSED BY AUTHORITIES MEDELLIN CARTEL'
p1266
sS'HUM TGT EFFECT OF INCIDENT'
p1267
S'DEATH JAIME PARDO LEAL'
p1268
sS'INCIDENT LOCATION'
p1269
S'COLOMBIA'
p1270
sS'PHYS TGT ID'
p1271
S''
sS'PERP INCIDENT CATEGORY'
p1272
S'TERRORIST ACT'
p1273
sS'PERP ORGANIZATION ID'
p1274
S'MEDELLIN CARTEL'
p1275
sS'HUM TGT TYPE'
p1276
S'POLITICAL FIGURE JAIME PARDO LEAL'
p1277
sS'HUM TGT TOTAL NUMBER'
p1278
S''
sS'INCIDENT INSTRUMENT ID'
p1279
S''
sS'INCIDENT INSTRUMENT TYPE'
p1280
S''
sS'PHYS TGT FOREIGN NATION'
p1281
S''
sS'HUM TGT NUMBER'
p1282
S'1 JAIME PARDO LEAL'
p1283
sS'PHYS TGT TYPE'
p1284
S''
sS'HUM TGT NAME'
p1285
S'JAIME PARDO LEAL'
p1286
sS'INCIDENT TYPE'
p1287
S'ATTACK'
p1288
sS'PHYS TGT NUMBER'
p1289
S''
sS'PERP INDIVIDUAL ID'
p1290
S'GONZALO RODRIGUEZ GACHA GONZALO RODRIGUEZ GACHA ALIAS THE MEXICAN'
p1291
sS'INCIDENT STAGE OF EXECUTION'
p1292
S'ACCOMPLISHED'
p1293
sS'HUM TGT DESCRIPTION'
p1294
S'FOUNDER AND FIRST PRESIDENT OF UP JAIME PARDO LEAL'
p1295
sS'PHYS TGT EFFECT OF INCIDENT'
p1296
S''
sS'HUM TGT FOREIGN NATION'
p1297
S''
sS'INCIDENT DATE'
p1298
S'11 OCT 87'
p1299
sS'MESSAGE TEMPLATE'
p1300
S'1 OPTIONAL'
p1301
sS'PHYS TGT TOTAL NUMBER'
p1302
S''
ssS'TST1MUC30062'
p1303
(dp1304
S'PERP ORGANIZATION CONFIDENCE'
p1305
S'REPORTED AS FACT ARMY OF NATIONAL LIBERATION ELN'
p1306
sS'HUM TGT EFFECT OF INCIDENT'
p1307
S''
sS'INCIDENT LOCATION'
p1308
S'COLOMBIA'
p1309
sS'PHYS TGT ID'
p1310
S'OIL INSTALLATIONS'
p1311
sS'PERP INCIDENT CATEGORY'
p1312
S'TERRORIST ACT'
p1313
sS'PERP ORGANIZATION ID'
p1314
S'ARMY OF NATIONAL LIBERATION ELN'
p1315
sS'HUM TGT TYPE'
p1316
S''
sS'HUM TGT TOTAL NUMBER'
p1317
S''
sS'INCIDENT INSTRUMENT ID'
p1318
S'DYNAMITE DYNAMITE ATTACKS SEVERAL DYNAMITE ATTACKS'
p1319
sS'INCIDENT INSTRUMENT TYPE'
p1320
S'DYNAMITE DYNAMITE DYNAMITE ATTACKS SEVERAL DYNAMITE ATTACKS'
p1321
sS'PHYS TGT FOREIGN NATION'
p1322
S''
sS'HUM TGT NUMBER'
p1323
S''
sS'PHYS TGT TYPE'
p1324
S'ENERGY OIL INSTALLATIONS'
p1325
sS'HUM TGT NAME'
p1326
S''
sS'INCIDENT TYPE'
p1327
S'BOMBING'
p1328
sS'PHYS TGT NUMBER'
p1329
S'PLURAL OIL INSTALLATIONS'
p1330
sS'PERP INDIVIDUAL ID'
p1331
S''
sS'INCIDENT STAGE OF EXECUTION'
p1332
S'ACCOMPLISHED'
p1333
sS'HUM TGT DESCRIPTION'
p1334
S''
sS'PHYS TGT EFFECT OF INCIDENT'
p1335
S''
sS'HUM TGT FOREIGN NATION'
p1336
S''
sS'INCIDENT DATE'
p1337
S'01 FEB 89'
p1338
sS'MESSAGE TEMPLATE'
p1339
S'1 OPTIONAL'
p1340
sS'PHYS TGT TOTAL NUMBER'
p1341
S''
ssS'TST1MUC30063'
p1342
(dp1343
S'PERP ORGANIZATION CONFIDENCE'
p1344
S''
sS'HUM TGT EFFECT OF INCIDENT'
p1345
S''
sS'INCIDENT LOCATION'
p1346
S''
sS'PHYS TGT ID'
p1347
S''
sS'PERP INCIDENT CATEGORY'
p1348
S''
sS'PERP ORGANIZATION ID'
p1349
S''
sS'HUM TGT TYPE'
p1350
S''
sS'HUM TGT TOTAL NUMBER'
p1351
S''
sS'INCIDENT INSTRUMENT ID'
p1352
S''
sS'INCIDENT INSTRUMENT TYPE'
p1353
S''
sS'PHYS TGT FOREIGN NATION'
p1354
S''
sS'HUM TGT NUMBER'
p1355
S''
sS'PHYS TGT TYPE'
p1356
S''
sS'HUM TGT NAME'
p1357
S''
sS'INCIDENT TYPE'
p1358
S''
sS'PHYS TGT NUMBER'
p1359
S''
sS'PERP INDIVIDUAL ID'
p1360
S''
sS'INCIDENT STAGE OF EXECUTION'
p1361
S''
sS'HUM TGT DESCRIPTION'
p1362
S''
sS'PHYS TGT EFFECT OF INCIDENT'
p1363
S''
sS'HUM TGT FOREIGN NATION'
p1364
S''
sS'INCIDENT DATE'
p1365
S''
sS'MESSAGE TEMPLATE'
p1366
S''
sS'PHYS TGT TOTAL NUMBER'
p1367
S''
ssS'TST1MUC30064'
p1368
(dp1369
S'PERP ORGANIZATION CONFIDENCE'
p1370
S''
sS'HUM TGT EFFECT OF INCIDENT'
p1371
S''
sS'INCIDENT LOCATION'
p1372
S''
sS'PHYS TGT ID'
p1373
S''
sS'PERP INCIDENT CATEGORY'
p1374
S''
sS'PERP ORGANIZATION ID'
p1375
S''
sS'HUM TGT TYPE'
p1376
S''
sS'HUM TGT TOTAL NUMBER'
p1377
S''
sS'INCIDENT INSTRUMENT ID'
p1378
S''
sS'INCIDENT INSTRUMENT TYPE'
p1379
S''
sS'PHYS TGT FOREIGN NATION'
p1380
S''
sS'HUM TGT NUMBER'
p1381
S''
sS'PHYS TGT TYPE'
p1382
S''
sS'HUM TGT NAME'
p1383
S''
sS'INCIDENT TYPE'
p1384
S''
sS'PHYS TGT NUMBER'
p1385
S''
sS'PERP INDIVIDUAL ID'
p1386
S''
sS'INCIDENT STAGE OF EXECUTION'
p1387
S''
sS'HUM TGT DESCRIPTION'
p1388
S''
sS'PHYS TGT EFFECT OF INCIDENT'
p1389
S''
sS'HUM TGT FOREIGN NATION'
p1390
S''
sS'INCIDENT DATE'
p1391
S''
sS'MESSAGE TEMPLATE'
p1392
S''
sS'PHYS TGT TOTAL NUMBER'
p1393
S''
ssS'TST1MUC30065'
p1394
(dp1395
S'PERP ORGANIZATION CONFIDENCE'
p1396
S''
sS'HUM TGT EFFECT OF INCIDENT'
p1397
S''
sS'INCIDENT LOCATION'
p1398
S'COLOMBIA MEDELLIN CITY'
p1399
sS'PHYS TGT ID'
p1400
S''
sS'PERP INCIDENT CATEGORY'
p1401
S''
sS'PERP ORGANIZATION ID'
p1402
S''
sS'HUM TGT TYPE'
p1403
S'CIVILIAN FRANCISCO PUJA'
p1404
sS'HUM TGT TOTAL NUMBER'
p1405
S''
sS'INCIDENT INSTRUMENT ID'
p1406
S''
sS'INCIDENT INSTRUMENT TYPE'
p1407
S''
sS'PHYS TGT FOREIGN NATION'
p1408
S''
sS'HUM TGT NUMBER'
p1409
S'1 ROBERTO ROASCIO'
p1410
sS'PHYS TGT TYPE'
p1411
S''
sS'HUM TGT NAME'
p1412
S'ROBERTO ROASCIO'
p1413
sS'INCIDENT TYPE'
p1414
S'KIDNAPPING'
p1415
sS'PHYS TGT NUMBER'
p1416
S''
sS'FRANCISCO PUJA'
p1417
S''
sS'PERP INDIVIDUAL ID'
p1418
S''
sS'MARIO ACCURSO'
p1419
S''
sS'INCIDENT STAGE OF EXECUTION'
p1420
S'ACCOMPLISHED'
p1421
sS'HUM TGT DESCRIPTION'
p1422
S'ENGINEERS ROBERTO ROASCIO'
p1423
sS'PHYS TGT EFFECT OF INCIDENT'
p1424
S''
sS'HUM TGT FOREIGN NATION'
p1425
S'SPAIN FRANCISCO PUJA'
p1426
sS'INCIDENT DATE'
p1427
S'28 APR 89'
p1428
sS'MESSAGE TEMPLATE'
p1429
S'1'
sS'PHYS TGT TOTAL NUMBER'
p1430
S''
ssS'TST1MUC30066'
p1431
(dp1432
S'PERP ORGANIZATION CONFIDENCE'
p1433
S''
sS'HUM TGT EFFECT OF INCIDENT'
p1434
S''
sS'INCIDENT LOCATION'
p1435
S''
sS'PHYS TGT ID'
p1436
S''
sS'PERP INCIDENT CATEGORY'
p1437
S''
sS'PERP ORGANIZATION ID'
p1438
S''
sS'HUM TGT TYPE'
p1439
S''
sS'HUM TGT TOTAL NUMBER'
p1440
S''
sS'INCIDENT INSTRUMENT ID'
p1441
S''
sS'INCIDENT INSTRUMENT TYPE'
p1442
S''
sS'PHYS TGT FOREIGN NATION'
p1443
S''
sS'HUM TGT NUMBER'
p1444
S''
sS'PHYS TGT TYPE'
p1445
S''
sS'HUM TGT NAME'
p1446
S''
sS'INCIDENT TYPE'
p1447
S''
sS'PHYS TGT NUMBER'
p1448
S''
sS'PERP INDIVIDUAL ID'
p1449
S''
sS'INCIDENT STAGE OF EXECUTION'
p1450
S''
sS'HUM TGT DESCRIPTION'
p1451
S''
sS'PHYS TGT EFFECT OF INCIDENT'
p1452
S''
sS'HUM TGT FOREIGN NATION'
p1453
S''
sS'INCIDENT DATE'
p1454
S''
sS'MESSAGE TEMPLATE'
p1455
S''
sS'PHYS TGT TOTAL NUMBER'
p1456
S''
ssS'TST1MUC30067'
p1457
(dp1458
S'PERP ORGANIZATION CONFIDENCE'
p1459
S''
sS'HUM TGT EFFECT OF INCIDENT'
p1460
S''
sS'INCIDENT LOCATION'
p1461
S''
sS'PHYS TGT ID'
p1462
S''
sS'PERP INCIDENT CATEGORY'
p1463
S''
sS'PERP ORGANIZATION ID'
p1464
S''
sS'HUM TGT TYPE'
p1465
S''
sS'HUM TGT TOTAL NUMBER'
p1466
S''
sS'INCIDENT INSTRUMENT ID'
p1467
S''
sS'INCIDENT INSTRUMENT TYPE'
p1468
S''
sS'PHYS TGT FOREIGN NATION'
p1469
S''
sS'HUM TGT NUMBER'
p1470
S''
sS'PHYS TGT TYPE'
p1471
S''
sS'HUM TGT NAME'
p1472
S''
sS'INCIDENT TYPE'
p1473
S''
sS'PHYS TGT NUMBER'
p1474
S''
sS'PERP INDIVIDUAL ID'
p1475
S''
sS'INCIDENT STAGE OF EXECUTION'
p1476
S''
sS'HUM TGT DESCRIPTION'
p1477
S''
sS'PHYS TGT EFFECT OF INCIDENT'
p1478
S''
sS'HUM TGT FOREIGN NATION'
p1479
S''
sS'INCIDENT DATE'
p1480
S''
sS'MESSAGE TEMPLATE'
p1481
S''
sS'PHYS TGT TOTAL NUMBER'
p1482
S''
ssS'TST1MUC30068'
p1483
(dp1484
S'PERP ORGANIZATION CONFIDENCE'
p1485
S''
sS'HUM TGT EFFECT OF INCIDENT'
p1486
S'DEATH JESUITS'
p1487
sS'INCIDENT LOCATION'
p1488
S'EL SALVADOR'
p1489
sS'PHYS TGT ID'
p1490
S''
sS'PERP INCIDENT CATEGORY'
p1491
S''
sS'PERP ORGANIZATION ID'
p1492
S''
sS'HUM TGT TYPE'
p1493
S'CIVILIAN JESUITS'
p1494
sS'HUM TGT TOTAL NUMBER'
p1495
S''
sS'INCIDENT INSTRUMENT ID'
p1496
S''
sS'INCIDENT INSTRUMENT TYPE'
p1497
S''
sS'PHYS TGT FOREIGN NATION'
p1498
S''
sS'HUM TGT NUMBER'
p1499
S'PLURAL JESUITS'
p1500
sS'PHYS TGT TYPE'
p1501
S''
sS'HUM TGT NAME'
p1502
S''
sS'INCIDENT TYPE'
p1503
S'ATTACK'
p1504
sS'PHYS TGT NUMBER'
p1505
S''
sS'PERP INDIVIDUAL ID'
p1506
S'UNIFORMED INDIVIDUALS'
p1507
sS'INCIDENT STAGE OF EXECUTION'
p1508
S'ACCOMPLISHED'
p1509
sS'HUM TGT DESCRIPTION'
p1510
S'JESUITS'
p1511
sS'PHYS TGT EFFECT OF INCIDENT'
p1512
S''
sS'HUM TGT FOREIGN NATION'
p1513
S'SPAIN JESUITS'
p1514
sS'INCIDENT DATE'
p1515
S'17 NOV 89'
p1516
sS'MESSAGE TEMPLATE'
p1517
S'1'
sS'PHYS TGT TOTAL NUMBER'
p1518
S''
ssS'TST1MUC30069'
p1519
(dp1520
S'PERP ORGANIZATION CONFIDENCE'
p1521
S'SUSPECTED OR ACCUSED BY AUTHORITIES ARMED FORCES'
p1522
sS'HUM TGT EFFECT OF INCIDENT'
p1523
S'DEATH JOSE IGNACIO ELLACURIA'
p1524
sS'JOSE IGNACIO ELLACURIA'
p1525
S''
sS'INCIDENT LOCATION'
p1526
S'EL SALVADOR'
p1527
sS'PHYS TGT ID'
p1528
S''
sS'PERP INCIDENT CATEGORY'
p1529
S'STATESPONSORED VIOLENCE'
p1530
sS'PERP ORGANIZATION ID'
p1531
S'ARMED FORCES'
p1532
sS'HUM TGT TYPE'
p1533
S'CIVILIAN JOSE IGNACIO ELLACURIA'
p1534
sS'HUM TGT TOTAL NUMBER'
p1535
S''
sS'INCIDENT INSTRUMENT ID'
p1536
S''
sS'INCIDENT INSTRUMENT TYPE'
p1537
S''
sS'DAUGHTER'
p1538
S''
sS'PHYS TGT FOREIGN NATION'
p1539
S''
sS'HUM TGT NUMBER'
p1540
S'6 CLERGYMEN'
p1541
sS'PHYS TGT TYPE'
p1542
S''
sS'HUM TGT NAME'
p1543
S'JOSE IGNACIO ELLACURIA'
p1544
sS'INCIDENT TYPE'
p1545
S'ATTACK'
p1546
sS'PHYS TGT NUMBER'
p1547
S''
sS'PERP INDIVIDUAL ID'
p1548
S'45 SOLDIERS SOLDIERS'
p1549
sS'INCIDENT STAGE OF EXECUTION'
p1550
S'ACCOMPLISHED'
p1551
sS'HUM TGT DESCRIPTION'
p1552
S'CLERGYMEN'
p1553
sS'PHYS TGT EFFECT OF INCIDENT'
p1554
S''
sS'HUM TGT FOREIGN NATION'
p1555
S''
sS'MAID'
p1556
S''
sS'INCIDENT DATE'
p1557
S'16 NOV 89'
p1558
sS'MESSAGE TEMPLATE'
p1559
S'1'
sS'PHYS TGT TOTAL NUMBER'
p1560
S''
ssS'TST1MUC30073'
p1561
(dp1562
S'PERP ORGANIZATION CONFIDENCE'
p1563
S'POSSIBLE MANUEL RODRIGUEZ PATRIOTIC FRONT FPMR'
p1564
sS'HUM TGT EFFECT OF INCIDENT'
p1565
S''
sS'INCIDENT LOCATION'
p1566
S'CHILE TEMUCO CITY'
p1567
sS'PHYS TGT ID'
p1568
S'CHILEANUS CULTURAL INSTITUTES CULTURAL INSTITUTES'
p1569
sS'PERP INCIDENT CATEGORY'
p1570
S'TERRORIST ACT'
p1571
sS'PERP ORGANIZATION ID'
p1572
S'MANUEL RODRIGUEZ PATRIOTIC FRONT FPMR'
p1573
sS'HUM TGT TYPE'
p1574
S''
sS'HUM TGT TOTAL NUMBER'
p1575
S''
sS'INCIDENT INSTRUMENT ID'
p1576
S'BOMB BOMB ATTACKS'
p1577
sS'INCIDENT INSTRUMENT TYPE'
p1578
S'BOMB BOMB BOMB ATTACKS'
p1579
sS'PHYS TGT FOREIGN NATION'
p1580
S'UNITED STATES CHILEANUS CULTURAL INSTITUTES CULTURAL INSTITUTES'
p1581
sS'HUM TGT NUMBER'
p1582
S''
sS'PHYS TGT TYPE'
p1583
S'ORGANIZATION OFFICE CHILEANUS CULTURAL INSTITUTES CULTURAL INSTITUTES'
p1584
sS'HUM TGT NAME'
p1585
S''
sS'INCIDENT TYPE'
p1586
S'BOMBING'
p1587
sS'PHYS TGT NUMBER'
p1588
S'1 PLURAL CHILEANUS CULTURAL INSTITUTES CULTURAL INSTITUTES'
p1589
sS'PERP INDIVIDUAL ID'
p1590
S''
sS'INCIDENT STAGE OF EXECUTION'
p1591
S'ACCOMPLISHED'
p1592
sS'HUM TGT DESCRIPTION'
p1593
S''
sS'PHYS TGT EFFECT OF INCIDENT'
p1594
S''
sS'HUM TGT FOREIGN NATION'
p1595
S''
sS'INCIDENT DATE'
p1596
S'29 DEC 89'
p1597
sS'MESSAGE TEMPLATE'
p1598
S'7'
sS'PHYS TGT TOTAL NUMBER'
p1599
S''
ssS'TST1MUC30072'
p1600
(dp1601
S'PERP ORGANIZATION CONFIDENCE'
p1602
S''
sS'HUM TGT EFFECT OF INCIDENT'
p1603
S''
sS'INCIDENT LOCATION'
p1604
S'CHILE COPIAPO CITY TALCA CITY'
p1605
sS'PHYS TGT ID'
p1606
S'MAIN POWERLINE POWERLINE'
p1607
sS'PERP INCIDENT CATEGORY'
p1608
S'TERRORIST ACT'
p1609
sS'PERP ORGANIZATION ID'
p1610
S''
sS'HUM TGT TYPE'
p1611
S''
sS'HUM TGT TOTAL NUMBER'
p1612
S''
sS'INCIDENT INSTRUMENT ID'
p1613
S''
sS'INCIDENT INSTRUMENT TYPE'
p1614
S''
sS'PHYS TGT FOREIGN NATION'
p1615
S''
sS'HUM TGT NUMBER'
p1616
S''
sS'PHYS TGT TYPE'
p1617
S'ENERGY MAIN POWERLINE POWERLINE'
p1618
sS'HUM TGT NAME'
p1619
S''
sS'INCIDENT TYPE'
p1620
S'ATTACK'
p1621
sS'PHYS TGT NUMBER'
p1622
S'1 MAIN POWERLINE POWERLINE'
p1623
sS'PERP INDIVIDUAL ID'
p1624
S'TERRORIST'
p1625
sS'INCIDENT STAGE OF EXECUTION'
p1626
S'ACCOMPLISHED'
p1627
sS'HUM TGT DESCRIPTION'
p1628
S''
sS'PHYS TGT EFFECT OF INCIDENT'
p1629
S'SOME DAMAGE MAIN POWERLINE POWERLINE'
p1630
sS'HUM TGT FOREIGN NATION'
p1631
S''
sS'INCIDENT DATE'
p1632
S'27 NOV 89'
p1633
sS'MESSAGE TEMPLATE'
p1634
S'1 OPTIONAL'
p1635
sS'PHYS TGT TOTAL NUMBER'
p1636
S''
ssS'TST1MUC30071'
p1637
(dp1638
S'PERP ORGANIZATION CONFIDENCE'
p1639
S'CLAIMED OR ADMITTED ZARATE WILKA ARMED FORCES OF LIBERATION FAL'
p1640
sS'HUM TGT EFFECT OF INCIDENT'
p1641
S'DEATH TODD RAY WILSON BURDENSON'
p1642
sS'INCIDENT LOCATION'
p1643
S'BOLIVIA LA PAZ CITY'
p1644
sS'PHYS TGT ID'
p1645
S''
sS'PERP INCIDENT CATEGORY'
p1646
S'TERRORIST ACT'
p1647
sS'PERP ORGANIZATION ID'
p1648
S'ZARATE WILKA ARMED FORCES OF LIBERATION FAL'
p1649
sS'HUM TGT TYPE'
p1650
S'CIVILIAN TODD RAY WILSON BURDENSON'
p1651
sS'HUM TGT TOTAL NUMBER'
p1652
S'2'
sS'INCIDENT INSTRUMENT ID'
p1653
S'MACHINEGUN MACHINEGUN FIRE TWO BURSTS OF MACHINEGUN FIRE'
p1654
sS'INCIDENT INSTRUMENT TYPE'
p1655
S'MACHINE GUN MACHINEGUN MACHINEGUN FIRE TWO BURSTS OF MACHINEGUN FIRE'
p1656
sS'PHYS TGT FOREIGN NATION'
p1657
S''
sS'JEFFREY BRENT BALL'
p1658
S''
sS'HUM TGT NUMBER'
p1659
S'1 TODD RAY WILSON BURDENSON'
p1660
sS'PHYS TGT TYPE'
p1661
S''
sS'HUM TGT NAME'
p1662
S'TODD RAY WILSON BURDENSON'
p1663
sS'INCIDENT TYPE'
p1664
S'ATTACK'
p1665
sS'PHYS TGT NUMBER'
p1666
S''
sS'PERP INDIVIDUAL ID'
p1667
S'GROUP OF TERRORISTS TERRORISTS'
p1668
sS'INCIDENT STAGE OF EXECUTION'
p1669
S'ACCOMPLISHED'
p1670
sS'HUM TGT DESCRIPTION'
p1671
S'MORMON MISSIONARIES MISSIONARIES OF THE CHRISTIAN CHURCH OF LATTER DAY SAINTS MISSIONARIES TODD RAY WILSON BURDENSON'
p1672
sS'PHYS TGT EFFECT OF INCIDENT'
p1673
S''
sS'HUM TGT FOREIGN NATION'
p1674
S'UNITED STATES TODD RAY WILSON BURDENSON'
p1675
sS'INCIDENT DATE'
p1676
S'24 MAY 89'
p1677
sS'MESSAGE TEMPLATE'
p1678
S'1'
sS'PHYS TGT TOTAL NUMBER'
p1679
S''
ssS'TST1MUC30070'
p1680
(dp1681
S'PERP ORGANIZATION CONFIDENCE'
p1682
S''
sS'HUM TGT EFFECT OF INCIDENT'
p1683
S''
sS'INCIDENT LOCATION'
p1684
S''
sS'PHYS TGT ID'
p1685
S''
sS'PERP INCIDENT CATEGORY'
p1686
S''
sS'PERP ORGANIZATION ID'
p1687
S''
sS'HUM TGT TYPE'
p1688
S''
sS'HUM TGT TOTAL NUMBER'
p1689
S''
sS'INCIDENT INSTRUMENT ID'
p1690
S''
sS'INCIDENT INSTRUMENT TYPE'
p1691
S''
sS'PHYS TGT FOREIGN NATION'
p1692
S''
sS'HUM TGT NUMBER'
p1693
S''
sS'PHYS TGT TYPE'
p1694
S''
sS'HUM TGT NAME'
p1695
S''
sS'INCIDENT TYPE'
p1696
S''
sS'PHYS TGT NUMBER'
p1697
S''
sS'PERP INDIVIDUAL ID'
p1698
S''
sS'INCIDENT STAGE OF EXECUTION'
p1699
S''
sS'HUM TGT DESCRIPTION'
p1700
S''
sS'PHYS TGT EFFECT OF INCIDENT'
p1701
S''
sS'HUM TGT FOREIGN NATION'
p1702
S''
sS'INCIDENT DATE'
p1703
S''
sS'MESSAGE TEMPLATE'
p1704
S''
sS'PHYS TGT TOTAL NUMBER'
p1705
S''
ssS'TST1MUC30077'
p1706
(dp1707
S'PERP ORGANIZATION CONFIDENCE'
p1708
S''
sS'HUM TGT EFFECT OF INCIDENT'
p1709
S''
sS'INCIDENT LOCATION'
p1710
S''
sS'PHYS TGT ID'
p1711
S''
sS'PERP INCIDENT CATEGORY'
p1712
S''
sS'PERP ORGANIZATION ID'
p1713
S''
sS'HUM TGT TYPE'
p1714
S''
sS'HUM TGT TOTAL NUMBER'
p1715
S''
sS'INCIDENT INSTRUMENT ID'
p1716
S''
sS'INCIDENT INSTRUMENT TYPE'
p1717
S''
sS'PHYS TGT FOREIGN NATION'
p1718
S''
sS'HUM TGT NUMBER'
p1719
S''
sS'PHYS TGT TYPE'
p1720
S''
sS'HUM TGT NAME'
p1721
S''
sS'INCIDENT TYPE'
p1722
S''
sS'PHYS TGT NUMBER'
p1723
S''
sS'PERP INDIVIDUAL ID'
p1724
S''
sS'INCIDENT STAGE OF EXECUTION'
p1725
S''
sS'HUM TGT DESCRIPTION'
p1726
S''
sS'PHYS TGT EFFECT OF INCIDENT'
p1727
S''
sS'HUM TGT FOREIGN NATION'
p1728
S''
sS'INCIDENT DATE'
p1729
S''
sS'MESSAGE TEMPLATE'
p1730
S''
sS'PHYS TGT TOTAL NUMBER'
p1731
S''
ssS'TST1MUC30076'
p1732
(dp1733
S'PERP ORGANIZATION CONFIDENCE'
p1734
S''
sS'HUM TGT EFFECT OF INCIDENT'
p1735
S'DEATH ANGELA PIEDAD DE GUERRERO'
p1736
sS'INCIDENT LOCATION'
p1737
S'COLOMBIA BOGOTA CITY'
p1738
sS'PHYS TGT ID'
p1739
S''
sS'PERP INCIDENT CATEGORY'
p1740
S''
sS'PERP ORGANIZATION ID'
p1741
S''
sS'HUM TGT TYPE'
p1742
S'CIVILIAN ANGELA PIEDAD DE GUERRERO'
p1743
sS'HUM TGT TOTAL NUMBER'
p1744
S''
sS'INCIDENT INSTRUMENT ID'
p1745
S''
sS'INCIDENT INSTRUMENT TYPE'
p1746
S'GUN'
p1747
sS'PHYS TGT FOREIGN NATION'
p1748
S''
sS'HUM TGT NUMBER'
p1749
S'1 ANGELA PIEDAD DE GUERRERO'
p1750
sS'PHYS TGT TYPE'
p1751
S''
sS'HUM TGT NAME'
p1752
S'ANGELA PIEDAD DE GUERRERO'
p1753
sS'INCIDENT TYPE'
p1754
S'ATTACK'
p1755
sS'PHYS TGT NUMBER'
p1756
S''
sS'PERP INDIVIDUAL ID'
p1757
S''
sS'INCIDENT STAGE OF EXECUTION'
p1758
S'ACCOMPLISHED'
p1759
sS'HUM TGT DESCRIPTION'
p1760
S'ARMY COLONEL CARLOS GUERREROS WIFE ANGELA PIEDAD DE GUERRERO'
p1761
sS'PHYS TGT EFFECT OF INCIDENT'
p1762
S''
sS'HUM TGT FOREIGN NATION'
p1763
S''
sS'INCIDENT DATE'
p1764
S'05 AUG 89'
p1765
sS'MESSAGE TEMPLATE'
p1766
S'3'
sS'PHYS TGT TOTAL NUMBER'
p1767
S''
ssS'TST1MUC30075'
p1768
(dp1769
S'PERP ORGANIZATION CONFIDENCE'
p1770
S''
sS'HUM TGT EFFECT OF INCIDENT'
p1771
S''
sS'INCIDENT LOCATION'
p1772
S'COLOMBIA'
p1773
sS'PHYS TGT ID'
p1774
S''
sS'PERP INCIDENT CATEGORY'
p1775
S''
sS'PERP ORGANIZATION ID'
p1776
S''
sS'HUM TGT TYPE'
p1777
S'LEGAL OR JUDICIAL MARIA ELENA DIAZ PEREZ'
p1778
sS'HUM TGT TOTAL NUMBER'
p1779
S''
sS'INCIDENT INSTRUMENT ID'
p1780
S''
sS'INCIDENT INSTRUMENT TYPE'
p1781
S''
sS'PHYS TGT FOREIGN NATION'
p1782
S''
sS'HUM TGT NUMBER'
p1783
S'1 MARIA ELENA DIAZ PEREZ'
p1784
sS'PHYS TGT TYPE'
p1785
S''
sS'HUM TGT NAME'
p1786
S'MARIA ELENA DIAZ PEREZ'
p1787
sS'INCIDENT TYPE'
p1788
S'ATTACK'
p1789
sS'PHYS TGT NUMBER'
p1790
S''
sS'PERP INDIVIDUAL ID'
p1791
S''
sS'INCIDENT STAGE OF EXECUTION'
p1792
S'THREATENED'
p1793
sS'HUM TGT DESCRIPTION'
p1794
S'THIRD JUDGE OF PUBLIC ORDER JUDGE MARIA ELENA DIAZ PEREZ'
p1795
sS'PHYS TGT EFFECT OF INCIDENT'
p1796
S''
sS'HUM TGT FOREIGN NATION'
p1797
S''
sS'INCIDENT DATE'
p1798
S'28 JUL 89'
p1799
sS'MESSAGE TEMPLATE'
p1800
S'2 OPTIONAL'
p1801
sS'PHYS TGT TOTAL NUMBER'
p1802
S''
ssS'TST1MUC30074'
p1803
(dp1804
S'PERP ORGANIZATION CONFIDENCE'
p1805
S''
sS'HUM TGT EFFECT OF INCIDENT'
p1806
S'DEATH MARIELA ESPINOSA ARANGO'
p1807
sS'INCIDENT LOCATION'
p1808
S'COLOMBIA MEDELLIN CITY'
p1809
sS'PHYS TGT ID'
p1810
S''
sS'PERP INCIDENT CATEGORY'
p1811
S''
sS'PERP ORGANIZATION ID'
p1812
S''
sS'HUM TGT TYPE'
p1813
S'LEGAL OR JUDICIAL MARIELA ESPINOSA ARANGO'
p1814
sS'HUM TGT TOTAL NUMBER'
p1815
S''
sS'INCIDENT INSTRUMENT ID'
p1816
S''
sS'INCIDENT INSTRUMENT TYPE'
p1817
S''
sS'PHYS TGT FOREIGN NATION'
p1818
S''
sS'HUM TGT NUMBER'
p1819
S'1 MARIELA ESPINOSA ARANGO'
p1820
sS'PHYS TGT TYPE'
p1821
S''
sS'HUM TGT NAME'
p1822
S'MARIELA ESPINOSA ARANGO'
p1823
sS'INCIDENT TYPE'
p1824
S'ATTACK'
p1825
sS'PHYS TGT NUMBER'
p1826
S''
sS'PERP INDIVIDUAL ID'
p1827
S''
sS'INCIDENT STAGE OF EXECUTION'
p1828
S'ACCOMPLISHED'
p1829
sS'HUM TGT DESCRIPTION'
p1830
S'JUDGE MARIELA ESPINOSA ARANGO'
p1831
sS'PHYS TGT EFFECT OF INCIDENT'
p1832
S''
sS'HUM TGT FOREIGN NATION'
p1833
S''
sS'INCIDENT DATE'
p1834
S'01 NOV 89'
p1835
sS'MESSAGE TEMPLATE'
p1836
S'1'
sS'PHYS TGT TOTAL NUMBER'
p1837
S''
ssS'TST1MUC30079'
p1838
(dp1839
S'PERP ORGANIZATION CONFIDENCE'
p1840
S''
sS'HUM TGT EFFECT OF INCIDENT'
p1841
S''
sS'INCIDENT LOCATION'
p1842
S''
sS'PHYS TGT ID'
p1843
S''
sS'PERP INCIDENT CATEGORY'
p1844
S''
sS'PERP ORGANIZATION ID'
p1845
S''
sS'HUM TGT TYPE'
p1846
S''
sS'HUM TGT TOTAL NUMBER'
p1847
S''
sS'INCIDENT INSTRUMENT ID'
p1848
S''
sS'INCIDENT INSTRUMENT TYPE'
p1849
S''
sS'PHYS TGT FOREIGN NATION'
p1850
S''
sS'HUM TGT NUMBER'
p1851
S''
sS'PHYS TGT TYPE'
p1852
S''
sS'HUM TGT NAME'
p1853
S''
sS'INCIDENT TYPE'
p1854
S''
sS'PHYS TGT NUMBER'
p1855
S''
sS'PERP INDIVIDUAL ID'
p1856
S''
sS'INCIDENT STAGE OF EXECUTION'
p1857
S''
sS'HUM TGT DESCRIPTION'
p1858
S''
sS'PHYS TGT EFFECT OF INCIDENT'
p1859
S''
sS'HUM TGT FOREIGN NATION'
p1860
S''
sS'INCIDENT DATE'
p1861
S''
sS'MESSAGE TEMPLATE'
p1862
S''
sS'PHYS TGT TOTAL NUMBER'
p1863
S''
ssS'TST1MUC30078'
p1864
(dp1865
S'PERP ORGANIZATION CONFIDENCE'
p1866
S''
sS'HUM TGT EFFECT OF INCIDENT'
p1867
S''
sS'INCIDENT LOCATION'
p1868
S''
sS'PHYS TGT ID'
p1869
S''
sS'PERP INCIDENT CATEGORY'
p1870
S''
sS'PERP ORGANIZATION ID'
p1871
S''
sS'HUM TGT TYPE'
p1872
S''
sS'HUM TGT TOTAL NUMBER'
p1873
S''
sS'INCIDENT INSTRUMENT ID'
p1874
S''
sS'INCIDENT INSTRUMENT TYPE'
p1875
S''
sS'PHYS TGT FOREIGN NATION'
p1876
S''
sS'HUM TGT NUMBER'
p1877
S''
sS'PHYS TGT TYPE'
p1878
S''
sS'HUM TGT NAME'
p1879
S''
sS'INCIDENT TYPE'
p1880
S''
sS'PHYS TGT NUMBER'
p1881
S''
sS'PERP INDIVIDUAL ID'
p1882
S''
sS'INCIDENT STAGE OF EXECUTION'
p1883
S''
sS'HUM TGT DESCRIPTION'
p1884
S''
sS'PHYS TGT EFFECT OF INCIDENT'
p1885
S''
sS'HUM TGT FOREIGN NATION'
p1886
S''
sS'INCIDENT DATE'
p1887
S''
sS'MESSAGE TEMPLATE'
p1888
S''
sS'PHYS TGT TOTAL NUMBER'
p1889
S''
ssS'TST1MUC30048'
p1890
(dp1891
S'PERP ORGANIZATION CONFIDENCE'
p1892
S''
sS'HUM TGT EFFECT OF INCIDENT'
p1893
S'DEATH PERSON'
p1894
sS'INCIDENT LOCATION'
p1895
S'ECUADOR CARCHI PROVINCE TULCAN CITY'
p1896
sS'PHYS TGT ID'
p1897
S''
sS'PERP INCIDENT CATEGORY'
p1898
S''
sS'PERP ORGANIZATION ID'
p1899
S''
sS'HUM TGT TYPE'
p1900
S'CIVILIAN PERSON'
p1901
sS'HUM TGT TOTAL NUMBER'
p1902
S''
sS'INCIDENT INSTRUMENT ID'
p1903
S''
sS'INCIDENT INSTRUMENT TYPE'
p1904
S''
sS'PHYS TGT FOREIGN NATION'
p1905
S''
sS'HUM TGT NUMBER'
p1906
S'1 PERSON'
p1907
sS'PHYS TGT TYPE'
p1908
S''
sS'HUM TGT NAME'
p1909
S''
sS'INCIDENT TYPE'
p1910
S'ATTACK'
p1911
sS'PHYS TGT NUMBER'
p1912
S''
sS'PERP INDIVIDUAL ID'
p1913
S''
sS'INCIDENT STAGE OF EXECUTION'
p1914
S'ACCOMPLISHED'
p1915
sS'HUM TGT DESCRIPTION'
p1916
S'PERSON'
p1917
sS'PHYS TGT EFFECT OF INCIDENT'
p1918
S''
sS'HUM TGT FOREIGN NATION'
p1919
S''
sS'INCIDENT DATE'
p1920
S'06 JUN 89'
p1921
sS'MESSAGE TEMPLATE'
p1922
S'1'
sS'PHYS TGT TOTAL NUMBER'
p1923
S''
ssS'TST1MUC30049'
p1924
(dp1925
S'PERP ORGANIZATION CONFIDENCE'
p1926
S'REPORTED AS FACT REVOLUTIONARY ARMED FORCES OF COLOMBIA FARC'
p1927
sS'HUM TGT EFFECT OF INCIDENT'
p1928
S''
sS'FUEL TRUCK FUEL TRUCK CARRYI'
p1929
S'NG 3000 GALLONS OF GASOLINE TRUCK'
p1930
sS'INCIDENT LOCATION'
p1931
S'COLOMBIA'
p1932
sS'PHYS TGT ID'
p1933
S'BALBOA HOSPITAL AMBULANCE AMBULANCE'
p1934
sS'PERP INCIDENT CATEGORY'
p1935
S'TERRORIST ACT'
p1936
sS'PERP ORGANIZATION ID'
p1937
S'REVOLUTIONARY ARMED FORCES OF COLOMBIA FARC'
p1938
sS'HUM TGT TYPE'
p1939
S''
sS'HUM TGT TOTAL NUMBER'
p1940
S''
sS'INCIDENT INSTRUMENT ID'
p1941
S''
sS'INCIDENT INSTRUMENT TYPE'
p1942
S''
sS'PHYS TGT FOREIGN NATION'
p1943
S''
sS'HUM TGT NUMBER'
p1944
S''
sS'PHYS TGT TYPE'
p1945
S'TRANSPORT VEHICLE STATION WAGON'
p1946
sS'HUM TGT NAME'
p1947
S''
sS'INCIDENT TYPE'
p1948
S'ARSON'
p1949
sS'PHYS TGT NUMBER'
p1950
S'1 BALBOA HOSPITAL AMBULANCE AMBULANCE'
p1951
sS'PERP INDIVIDUAL ID'
p1952
S'MEMBERS OF THE 8TH FRONT'
p1953
sS'INCIDENT STAGE OF EXECUTION'
p1954
S'ACCOMPLISHED'
p1955
sS'HUM TGT DESCRIPTION'
p1956
S''
sS'PHYS TGT EFFECT OF INCIDENT'
p1957
S'SOME DAMAGE STATION WAGON'
p1958
sS'HUM TGT FOREIGN NATION'
p1959
S''
sS'STATION WAGON'
p1960
S''
sS'INCIDENT DATE'
p1961
S'23 MAR 90'
p1962
sS'MESSAGE TEMPLATE'
p1963
S'3'
sS'PHYS TGT TOTAL NUMBER'
p1964
S'3'
ssS'TST1MUC30046'
p1965
(dp1966
S'PERP ORGANIZATION CONFIDENCE'
p1967
S'REPORTED AS FACT ARENA NATIONALIST REPUBLICAN ALLIANCE GOVERNMENT'
p1968
sS'HUM TGT EFFECT OF INCIDENT'
p1969
S''
sS'INCIDENT LOCATION'
p1970
S'EL SALVADOR'
p1971
sS'PHYS TGT ID'
p1972
S''
sS'PERP INCIDENT CATEGORY'
p1973
S'STATESPONSORED VIOLENCE'
p1974
sS'PERP ORGANIZATION ID'
p1975
S'ARENA NATIONALIST REPUBLICAN ALLIANCE GOVERNMENT'
p1976
sS'HUM TGT TYPE'
p1977
S'GOVERNMENT OFFICIAL ANTONIO RODRIGUEZ PORTH'
p1978
sS'HUM TGT TOTAL NUMBER'
p1979
S''
sS'INCIDENT INSTRUMENT ID'
p1980
S''
sS'INCIDENT INSTRUMENT TYPE'
p1981
S''
sS'PHYS TGT FOREIGN NATION'
p1982
S''
sS'EDGAR CHACON'
p1983
S''
sS'HUM TGT NUMBER'
p1984
S'1 ANTONIO RODRIGUEZ PORTH'
p1985
sS'PHYS TGT TYPE'
p1986
S''
sS'HUM TGT NAME'
p1987
S'ANTONIO RODRIGUEZ PORTH'
p1988
sS'INCIDENT TYPE'
p1989
S'ATTACK'
p1990
sS'PHYS TGT NUMBER'
p1991
S''
sS'PERP INDIVIDUAL ID'
p1992
S''
sS'INCIDENT STAGE OF EXECUTION'
p1993
S'ACCOMPLISHED'
p1994
sS'HUM TGT DESCRIPTION'
p1995
S'PRESIDENCY MINISTER PRESIDENCY MINISTER ANTONIO RODRIGUEZ PORTH'
p1996
sS'PHYS TGT EFFECT OF INCIDENT'
p1997
S''
sS'HUM TGT FOREIGN NATION'
p1998
S''
sS'INCIDENT DATE'
p1999
S'06 JUL 89'
p2000
sS'MESSAGE TEMPLATE'
p2001
S'5'
sS'PHYS TGT TOTAL NUMBER'
p2002
S''
ssS'TST1MUC30047'
p2003
(dp2004
S'PERP ORGANIZATION CONFIDENCE'
p2005
S''
sS'HUM TGT EFFECT OF INCIDENT'
p2006
S''
sS'INCIDENT LOCATION'
p2007
S''
sS'PHYS TGT ID'
p2008
S''
sS'PERP INCIDENT CATEGORY'
p2009
S''
sS'PERP ORGANIZATION ID'
p2010
S''
sS'HUM TGT TYPE'
p2011
S''
sS'HUM TGT TOTAL NUMBER'
p2012
S''
sS'INCIDENT INSTRUMENT ID'
p2013
S''
sS'INCIDENT INSTRUMENT TYPE'
p2014
S''
sS'PHYS TGT FOREIGN NATION'
p2015
S''
sS'HUM TGT NUMBER'
p2016
S''
sS'PHYS TGT TYPE'
p2017
S''
sS'HUM TGT NAME'
p2018
S''
sS'INCIDENT TYPE'
p2019
S''
sS'PHYS TGT NUMBER'
p2020
S''
sS'PERP INDIVIDUAL ID'
p2021
S''
sS'INCIDENT STAGE OF EXECUTION'
p2022
S''
sS'HUM TGT DESCRIPTION'
p2023
S''
sS'PHYS TGT EFFECT OF INCIDENT'
p2024
S''
sS'HUM TGT FOREIGN NATION'
p2025
S''
sS'INCIDENT DATE'
p2026
S''
sS'MESSAGE TEMPLATE'
p2027
S''
sS'PHYS TGT TOTAL NUMBER'
p2028
S''
ssS'TST1MUC30044'
p2029
(dp2030
S'PERP ORGANIZATION CONFIDENCE'
p2031
S'SUSPECTED OR ACCUSED ARMED FORCES'
p2032
sS'HUM TGT EFFECT OF INCIDENT'
p2033
S'DEATH JESUIT PRIESTS PRIESTS'
p2034
sS'INCIDENT LOCATION'
p2035
S'EL SALVADOR'
p2036
sS'PHYS TGT ID'
p2037
S''
sS'PERP INCIDENT CATEGORY'
p2038
S'STATESPONSORED VIOLENCE'
p2039
sS'PERP ORGANIZATION ID'
p2040
S'ARMED FORCES'
p2041
sS'HUM TGT TYPE'
p2042
S'CIVILIAN JESUIT PRIESTS PRIESTS'
p2043
sS'HUM TGT TOTAL NUMBER'
p2044
S''
sS'INCIDENT INSTRUMENT ID'
p2045
S''
sS'INCIDENT INSTRUMENT TYPE'
p2046
S''
sS'PHYS TGT FOREIGN NATION'
p2047
S''
sS'HUM TGT NUMBER'
p2048
S'PLURAL JESUIT PRIESTS PRIESTS'
p2049
sS'PHYS TGT TYPE'
p2050
S''
sS'HUM TGT NAME'
p2051
S''
sS'INCIDENT TYPE'
p2052
S'ATTACK'
p2053
sS'PHYS TGT NUMBER'
p2054
S''
sS'PERP INDIVIDUAL ID'
p2055
S'SOME MEMBERS OF THE INSTITUTION SOME ARMED FORCES MEMBERS'
p2056
sS'INCIDENT STAGE OF EXECUTION'
p2057
S'ACCOMPLISHED'
p2058
sS'HUM TGT DESCRIPTION'
p2059
S'JESUIT PRIESTS PRIESTS'
p2060
sS'PHYS TGT EFFECT OF INCIDENT'
p2061
S''
sS'HUM TGT FOREIGN NATION'
p2062
S''
sS'INCIDENT DATE'
p2063
S'02 MAY 90'
p2064
sS'MESSAGE TEMPLATE'
p2065
S'1'
sS'PHYS TGT TOTAL NUMBER'
p2066
S''
ssS'TST1MUC30045'
p2067
(dp2068
S'PERP ORGANIZATION CONFIDENCE'
p2069
S'SUSPECTED OR ACCUSED BY AUTHORITIES ARMED FORCES TREASURY POLICE'
p2070
sS'HUM TGT EFFECT OF INCIDENT'
p2071
S'DEATH PERSONS'
p2072
sS'INCIDENT LOCATION'
p2073
S'EL SALVADOR'
p2074
sS'PHYS TGT ID'
p2075
S''
sS'PERP INCIDENT CATEGORY'
p2076
S'STATESPONSORED VIOLENCE'
p2077
sS'PERP ORGANIZATION ID'
p2078
S'ARMED FORCES TREASURY POLICE'
p2079
sS'HUM TGT TYPE'
p2080
S'CIVILIAN PERSONS'
p2081
sS'HUM TGT TOTAL NUMBER'
p2082
S''
sS'INCIDENT INSTRUMENT ID'
p2083
S''
sS'INCIDENT INSTRUMENT TYPE'
p2084
S'GUN'
p2085
sS'PHYS TGT FOREIGN NATION'
p2086
S''
sS'HUM TGT NUMBER'
p2087
S'6 JESUITS'
p2088
sS'PHYS TGT TYPE'
p2089
S''
sS'HUM TGT NAME'
p2090
S''
sS'INCIDENT TYPE'
p2091
S'ATTACK'
p2092
sS'PHYS TGT NUMBER'
p2093
S''
sS'PERP INDIVIDUAL ID'
p2094
S'TROOPS FROM THAT SECURITY CORPS GROUP OF ARMED INDIVIDUALS WEARING MILITARY UNIFORMS ARMED INDIVIDUALS ARMED INDIVIDUALS WEARING MILITARY UNIFORMS'
p2095
sS'INCIDENT STAGE OF EXECUTION'
p2096
S'ACCOMPLISHED'
p2097
sS'HUM TGT DESCRIPTION'
p2098
S'JESUITS'
p2099
sS'PHYS TGT EFFECT OF INCIDENT'
p2100
S''
sS'HUM TGT FOREIGN NATION'
p2101
S''
sS'PERSONS'
p2102
S''
sS'INCIDENT DATE'
p2103
S'16 NOV 89'
p2104
sS'MESSAGE TEMPLATE'
p2105
S'1'
sS'PHYS TGT TOTAL NUMBER'
p2106
S''
ssS'TST1MUC30042'
p2107
(dp2108
S'PERP ORGANIZATION CONFIDENCE'
p2109
S''
sS'HUM TGT EFFECT OF INCIDENT'
p2110
S''
sS'INCIDENT LOCATION'
p2111
S''
sS'PHYS TGT ID'
p2112
S''
sS'PERP INCIDENT CATEGORY'
p2113
S''
sS'PERP ORGANIZATION ID'
p2114
S''
sS'HUM TGT TYPE'
p2115
S''
sS'HUM TGT TOTAL NUMBER'
p2116
S''
sS'INCIDENT INSTRUMENT ID'
p2117
S''
sS'INCIDENT INSTRUMENT TYPE'
p2118
S''
sS'PHYS TGT FOREIGN NATION'
p2119
S''
sS'HUM TGT NUMBER'
p2120
S''
sS'PHYS TGT TYPE'
p2121
S''
sS'HUM TGT NAME'
p2122
S''
sS'INCIDENT TYPE'
p2123
S''
sS'PHYS TGT NUMBER'
p2124
S''
sS'PERP INDIVIDUAL ID'
p2125
S''
sS'INCIDENT STAGE OF EXECUTION'
p2126
S''
sS'HUM TGT DESCRIPTION'
p2127
S''
sS'PHYS TGT EFFECT OF INCIDENT'
p2128
S''
sS'HUM TGT FOREIGN NATION'
p2129
S''
sS'INCIDENT DATE'
p2130
S''
sS'MESSAGE TEMPLATE'
p2131
S''
sS'PHYS TGT TOTAL NUMBER'
p2132
S''
ssS'TST1MUC30043'
p2133
(dp2134
S'PERP ORGANIZATION CONFIDENCE'
p2135
S''
sS'HUM TGT EFFECT OF INCIDENT'
p2136
S''
sS'INCIDENT LOCATION'
p2137
S''
sS'PHYS TGT ID'
p2138
S''
sS'PERP INCIDENT CATEGORY'
p2139
S''
sS'PERP ORGANIZATION ID'
p2140
S''
sS'HUM TGT TYPE'
p2141
S''
sS'HUM TGT TOTAL NUMBER'
p2142
S''
sS'INCIDENT INSTRUMENT ID'
p2143
S''
sS'INCIDENT INSTRUMENT TYPE'
p2144
S''
sS'PHYS TGT FOREIGN NATION'
p2145
S''
sS'HUM TGT NUMBER'
p2146
S''
sS'PHYS TGT TYPE'
p2147
S''
sS'HUM TGT NAME'
p2148
S''
sS'INCIDENT TYPE'
p2149
S''
sS'PHYS TGT NUMBER'
p2150
S''
sS'PERP INDIVIDUAL ID'
p2151
S''
sS'INCIDENT STAGE OF EXECUTION'
p2152
S''
sS'HUM TGT DESCRIPTION'
p2153
S''
sS'PHYS TGT EFFECT OF INCIDENT'
p2154
S''
sS'HUM TGT FOREIGN NATION'
p2155
S''
sS'INCIDENT DATE'
p2156
S''
sS'MESSAGE TEMPLATE'
p2157
S''
sS'PHYS TGT TOTAL NUMBER'
p2158
S''
ssS'TST1MUC30040'
p2159
(dp2160
S'PERP ORGANIZATION CONFIDENCE'
p2161
S'POSSIBLE REPORTED AS FACT THE EXTRADITABLES THE EXTRADITABLES'
p2162
sS'HUM TGT EFFECT OF INCIDENT'
p2163
S'DEATH DEAD'
p2164
sS'INCIDENT LOCATION'
p2165
S'COLOMBIA BOGOTA CITY'
p2166
sS'PHYS TGT ID'
p2167
S'ADMINISTRATIVE DEPARTMENT OF SECURITY DAS'
p2168
sS'PERP INCIDENT CATEGORY'
p2169
S'TERRORIST ACT'
p2170
sS'PERP ORGANIZATION ID'
p2171
S'THE EXTRADITABLES THE EXTRADITABLES'
p2172
sS'HUM TGT TYPE'
p2173
S'LAW ENFORCEMENT CIVILIAN DEAD'
p2174
sS'HUM TGT TOTAL NUMBER'
p2175
S''
sS'INCIDENT INSTRUMENT ID'
p2176
S'BUS BOMB CAR BOMBS'
p2177
sS'INCIDENT INSTRUMENT TYPE'
p2178
S'VEHICLE BOMB BUS BOMB CAR BOMBS'
p2179
sS'PHYS TGT FOREIGN NATION'
p2180
S''
sS'HUM TGT NUMBER'
p2181
S'67 DEAD'
p2182
sS'PHYS TGT TYPE'
p2183
S'LAW ENFORCEMENT FACILITY ADMINISTRATIVE DEPARTMENT OF SECURITY DAS'
p2184
sS'HUM TGT NAME'
p2185
S''
sS'INCIDENT TYPE'
p2186
S'BOMBING'
p2187
sS'PHYS TGT NUMBER'
p2188
S'1 ADMINISTRATIVE DEPARTMENT OF SECURITY DAS'
p2189
sS'PERP INDIVIDUAL ID'
p2190
S'DRUG TRAFFICKERS'
p2191
sS'INCIDENT STAGE OF EXECUTION'
p2192
S'ACCOMPLISHED'
p2193
sS'HUM TGT DESCRIPTION'
p2194
S'DEAD'
p2195
sS'PHYS TGT EFFECT OF INCIDENT'
p2196
S'DESTROYED ADMINISTRATIVE DEPARTMENT OF SECURITY DAS'
p2197
sS'HUM TGT FOREIGN NATION'
p2198
S''
sS'INCIDENT DATE'
p2199
S'27 NOV 89 04 JAN 90'
p2200
sS'MESSAGE TEMPLATE'
p2201
S'3'
sS'PHYS TGT TOTAL NUMBER'
p2202
S'1'
ssS'TST1MUC30041'
p2203
(dp2204
S'PERP ORGANIZATION CONFIDENCE'
p2205
S''
sS'HUM TGT EFFECT OF INCIDENT'
p2206
S''
sS'INCIDENT LOCATION'
p2207
S''
sS'PHYS TGT ID'
p2208
S''
sS'PERP INCIDENT CATEGORY'
p2209
S''
sS'PERP ORGANIZATION ID'
p2210
S''
sS'HUM TGT TYPE'
p2211
S''
sS'HUM TGT TOTAL NUMBER'
p2212
S''
sS'INCIDENT INSTRUMENT ID'
p2213
S''
sS'INCIDENT INSTRUMENT TYPE'
p2214
S''
sS'PHYS TGT FOREIGN NATION'
p2215
S''
sS'HUM TGT NUMBER'
p2216
S''
sS'PHYS TGT TYPE'
p2217
S''
sS'HUM TGT NAME'
p2218
S''
sS'INCIDENT TYPE'
p2219
S''
sS'PHYS TGT NUMBER'
p2220
S''
sS'PERP INDIVIDUAL ID'
p2221
S''
sS'INCIDENT STAGE OF EXECUTION'
p2222
S''
sS'HUM TGT DESCRIPTION'
p2223
S''
sS'PHYS TGT EFFECT OF INCIDENT'
p2224
S''
sS'HUM TGT FOREIGN NATION'
p2225
S''
sS'INCIDENT DATE'
p2226
S''
sS'MESSAGE TEMPLATE'
p2227
S''
sS'PHYS TGT TOTAL NUMBER'
p2228
S''
ssS'TST1MUC30059'
p2229
(dp2230
S'PERP ORGANIZATION CONFIDENCE'
p2231
S'SUSPECTED OR ACCUSED BY AUTHORITIES FARABUNDO MARTI NATIONAL LIBERATION FRONT FMLN'
p2232
sS'HUM TGT EFFECT OF INCIDENT'
p2233
S'DEATH JOSE ANTONIO RODRIGUEZ PORTH'
p2234
sS'INCIDENT LOCATION'
p2235
S'EL SALVADOR'
p2236
sS'PHYS TGT ID'
p2237
S''
sS'PERP INCIDENT CATEGORY'
p2238
S'TERRORIST ACT'
p2239
sS'PERP ORGANIZATION ID'
p2240
S'FARABUNDO MARTI NATIONAL LIBERATION FRONT FMLN'
p2241
sS'HUM TGT TYPE'
p2242
S'GOVERNMENT OFFICIAL JOSE ANTONIO RODRIGUEZ PORTH'
p2243
sS'HUM TGT TOTAL NUMBER'
p2244
S''
sS'INCIDENT INSTRUMENT ID'
p2245
S''
sS'INCIDENT INSTRUMENT TYPE'
p2246
S''
sS'PHYS TGT FOREIGN NATION'
p2247
S''
sS'HUM TGT NUMBER'
p2248
S'1 JOSE ANTONIO RODRIGUEZ PORTH'
p2249
sS'PHYS TGT TYPE'
p2250
S''
sS'HUM TGT NAME'
p2251
S'JOSE ANTONIO RODRIGUEZ PORTH'
p2252
sS'INCIDENT TYPE'
p2253
S'ATTACK'
p2254
sS'PHYS TGT NUMBER'
p2255
S''
sS'PERP INDIVIDUAL ID'
p2256
S'REBELS'
p2257
sS'INCIDENT STAGE OF EXECUTION'
p2258
S'ACCOMPLISHED'
p2259
sS'HUM TGT DESCRIPTION'
p2260
S'DR MINISTER JOSE ANTONIO RODRIGUEZ PORTH'
p2261
sS'PHYS TGT EFFECT OF INCIDENT'
p2262
S''
sS'HUM TGT FOREIGN NATION'
p2263
S''
sS'INCIDENT DATE'
p2264
S'09 JUN 89'
p2265
sS'MESSAGE TEMPLATE'
p2266
S'1'
sS'PHYS TGT TOTAL NUMBER'
p2267
S''
ssS'TST1MUC30058'
p2268
(dp2269
S'PERP ORGANIZATION CONFIDENCE'
p2270
S''
sS'HUM TGT EFFECT OF INCIDENT'
p2271
S''
sS'INCIDENT LOCATION'
p2272
S''
sS'PHYS TGT ID'
p2273
S''
sS'PERP INCIDENT CATEGORY'
p2274
S''
sS'PERP ORGANIZATION ID'
p2275
S''
sS'HUM TGT TYPE'
p2276
S''
sS'HUM TGT TOTAL NUMBER'
p2277
S''
sS'INCIDENT INSTRUMENT ID'
p2278
S''
sS'INCIDENT INSTRUMENT TYPE'
p2279
S''
sS'PHYS TGT FOREIGN NATION'
p2280
S''
sS'HUM TGT NUMBER'
p2281
S''
sS'PHYS TGT TYPE'
p2282
S''
sS'HUM TGT NAME'
p2283
S''
sS'INCIDENT TYPE'
p2284
S''
sS'PHYS TGT NUMBER'
p2285
S''
sS'PERP INDIVIDUAL ID'
p2286
S''
sS'INCIDENT STAGE OF EXECUTION'
p2287
S''
sS'HUM TGT DESCRIPTION'
p2288
S''
sS'PHYS TGT EFFECT OF INCIDENT'
p2289
S''
sS'HUM TGT FOREIGN NATION'
p2290
S''
sS'INCIDENT DATE'
p2291
S''
sS'MESSAGE TEMPLATE'
p2292
S''
sS'PHYS TGT TOTAL NUMBER'
p2293
S''
ssS'TST1MUC30051'
p2294
(dp2295
S'PERP ORGANIZATION CONFIDENCE'
p2296
S''
sS'HUM TGT EFFECT OF INCIDENT'
p2297
S''
sS'INCIDENT LOCATION'
p2298
S''
sS'PHYS TGT ID'
p2299
S''
sS'PERP INCIDENT CATEGORY'
p2300
S''
sS'PERP ORGANIZATION ID'
p2301
S''
sS'HUM TGT TYPE'
p2302
S''
sS'HUM TGT TOTAL NUMBER'
p2303
S''
sS'INCIDENT INSTRUMENT ID'
p2304
S''
sS'INCIDENT INSTRUMENT TYPE'
p2305
S''
sS'PHYS TGT FOREIGN NATION'
p2306
S''
sS'HUM TGT NUMBER'
p2307
S''
sS'PHYS TGT TYPE'
p2308
S''
sS'HUM TGT NAME'
p2309
S''
sS'INCIDENT TYPE'
p2310
S''
sS'PHYS TGT NUMBER'
p2311
S''
sS'PERP INDIVIDUAL ID'
p2312
S''
sS'INCIDENT STAGE OF EXECUTION'
p2313
S''
sS'HUM TGT DESCRIPTION'
p2314
S''
sS'PHYS TGT EFFECT OF INCIDENT'
p2315
S''
sS'HUM TGT FOREIGN NATION'
p2316
S''
sS'INCIDENT DATE'
p2317
S''
sS'MESSAGE TEMPLATE'
p2318
S''
sS'PHYS TGT TOTAL NUMBER'
p2319
S''
ssS'TST1MUC30050'
p2320
(dp2321
S'PERP ORGANIZATION CONFIDENCE'
p2322
S''
sS'HUM TGT EFFECT OF INCIDENT'
p2323
S'DEATH WOMEN'
p2324
sS'INCIDENT LOCATION'
p2325
S'EL SALVADOR'
p2326
sS'PHYS TGT ID'
p2327
S''
sS'PERP INCIDENT CATEGORY'
p2328
S''
sS'IGNACIO ELLACURIA'
p2329
S''
sS'PERP ORGANIZATION ID'
p2330
S''
sS'HUM TGT TYPE'
p2331
S'CIVILIAN WOMEN'
p2332
sS'HUM TGT TOTAL NUMBER'
p2333
S'8'
sS'INCIDENT INSTRUMENT ID'
p2334
S''
sS'INCIDENT INSTRUMENT TYPE'
p2335
S''
sS'PHYS TGT FOREIGN NATION'
p2336
S''
sS'HUM TGT NUMBER'
p2337
S'6 JESUITS'
p2338
sS'PHYS TGT TYPE'
p2339
S''
sS'HUM TGT NAME'
p2340
S'IGNACIO ELLACURIA'
p2341
sS'WOMEN'
p2342
S''
sS'INCIDENT TYPE'
p2343
S'ATTACK'
p2344
sS'PHYS TGT NUMBER'
p2345
S''
sS'PRIESTS'
p2346
S''
sS'PERP INDIVIDUAL ID'
p2347
S'MEN WEARING MILITARY UNIFORMS MEN'
p2348
sS'INCIDENT STAGE OF EXECUTION'
p2349
S'ACCOMPLISHED'
p2350
sS'HUM TGT DESCRIPTION'
p2351
S'JESUITS'
p2352
sS'PHYS TGT EFFECT OF INCIDENT'
p2353
S''
sS'HUM TGT FOREIGN NATION'
p2354
S'SPAIN IGNACIO ELLACURIA'
p2355
sS'INCIDENT DATE'
p2356
S'16 NOV 89'
p2357
sS'MESSAGE TEMPLATE'
p2358
S'1'
sS'PHYS TGT TOTAL NUMBER'
p2359
S''
ssS'TST1MUC30053'
p2360
(dp2361
S'PERP ORGANIZATION CONFIDENCE'
p2362
S''
sS'HUM TGT EFFECT OF INCIDENT'
p2363
S'INJURY CIVILIANS'
p2364
sS'INCIDENT LOCATION'
p2365
S'EL SALVADOR'
p2366
sS'PHYS TGT ID'
p2367
S'HOUSES'
p2368
sS'PERP INCIDENT CATEGORY'
p2369
S''
sS'PERP ORGANIZATION ID'
p2370
S''
sS'HUM TGT TYPE'
p2371
S'CIVILIAN CIVILIANS'
p2372
sS'HUM TGT TOTAL NUMBER'
p2373
S''
sS'INCIDENT INSTRUMENT ID'
p2374
S'90MM 60MM AND 81MM MORTARS MORTARS'
p2375
sS'INCIDENT INSTRUMENT TYPE'
p2376
S'MORTAR 90MM 60MM AND 81MM MORTARS MORTARS'
p2377
sS'PHYS TGT FOREIGN NATION'
p2378
S''
sS'HUM TGT NUMBER'
p2379
S'PLURAL CIVILIANS'
p2380
sS'PHYS TGT TYPE'
p2381
S'CIVILIAN RESIDENCE HOUSES'
p2382
sS'HUM TGT NAME'
p2383
S''
sS'INCIDENT TYPE'
p2384
S'ATTACK'
p2385
sS'PHYS TGT NUMBER'
p2386
S'PLURAL HOUSES'
p2387
sS'PERP INDIVIDUAL ID'
p2388
S'COL VARGAS'
p2389
sS'INCIDENT STAGE OF EXECUTION'
p2390
S'ACCOMPLISHED'
p2391
sS'HUM TGT DESCRIPTION'
p2392
S'CIVILIANS'
p2393
sS'PHYS TGT EFFECT OF INCIDENT'
p2394
S'DESTROYED HOUSES'
p2395
sS'HUM TGT FOREIGN NATION'
p2396
S''
sS'INCIDENT DATE'
p2397
S''
sS'MESSAGE TEMPLATE'
p2398
S'1'
sS'PHYS TGT TOTAL NUMBER'
p2399
S''
ssS'TST1MUC30052'
p2400
(dp2401
S'PERP ORGANIZATION CONFIDENCE'
p2402
S''
sS'HUM TGT EFFECT OF INCIDENT'
p2403
S''
sS'INCIDENT LOCATION'
p2404
S''
sS'PHYS TGT ID'
p2405
S''
sS'PERP INCIDENT CATEGORY'
p2406
S''
sS'PERP ORGANIZATION ID'
p2407
S''
sS'HUM TGT TYPE'
p2408
S''
sS'HUM TGT TOTAL NUMBER'
p2409
S''
sS'INCIDENT INSTRUMENT ID'
p2410
S''
sS'INCIDENT INSTRUMENT TYPE'
p2411
S''
sS'PHYS TGT FOREIGN NATION'
p2412
S''
sS'HUM TGT NUMBER'
p2413
S''
sS'PHYS TGT TYPE'
p2414
S''
sS'HUM TGT NAME'
p2415
S''
sS'INCIDENT TYPE'
p2416
S''
sS'PHYS TGT NUMBER'
p2417
S''
sS'PERP INDIVIDUAL ID'
p2418
S''
sS'INCIDENT STAGE OF EXECUTION'
p2419
S''
sS'HUM TGT DESCRIPTION'
p2420
S''
sS'PHYS TGT EFFECT OF INCIDENT'
p2421
S''
sS'HUM TGT FOREIGN NATION'
p2422
S''
sS'INCIDENT DATE'
p2423
S''
sS'MESSAGE TEMPLATE'
p2424
S''
sS'PHYS TGT TOTAL NUMBER'
p2425
S''
ssS'TST1MUC30055'
p2426
(dp2427
S'PERP ORGANIZATION CONFIDENCE'
p2428
S''
sS'HUM TGT EFFECT OF INCIDENT'
p2429
S''
sS'INCIDENT LOCATION'
p2430
S''
sS'PHYS TGT ID'
p2431
S''
sS'PERP INCIDENT CATEGORY'
p2432
S''
sS'PERP ORGANIZATION ID'
p2433
S''
sS'HUM TGT TYPE'
p2434
S''
sS'HUM TGT TOTAL NUMBER'
p2435
S''
sS'INCIDENT INSTRUMENT ID'
p2436
S''
sS'INCIDENT INSTRUMENT TYPE'
p2437
S''
sS'PHYS TGT FOREIGN NATION'
p2438
S''
sS'HUM TGT NUMBER'
p2439
S''
sS'PHYS TGT TYPE'
p2440
S''
sS'HUM TGT NAME'
p2441
S''
sS'INCIDENT TYPE'
p2442
S''
sS'PHYS TGT NUMBER'
p2443
S''
sS'PERP INDIVIDUAL ID'
p2444
S''
sS'INCIDENT STAGE OF EXECUTION'
p2445
S''
sS'HUM TGT DESCRIPTION'
p2446
S''
sS'PHYS TGT EFFECT OF INCIDENT'
p2447
S''
sS'HUM TGT FOREIGN NATION'
p2448
S''
sS'INCIDENT DATE'
p2449
S''
sS'MESSAGE TEMPLATE'
p2450
S''
sS'PHYS TGT TOTAL NUMBER'
p2451
S''
ssS'TST1MUC30054'
p2452
(dp2453
S'PERP ORGANIZATION CONFIDENCE'
p2454
S''
sS'HUM TGT EFFECT OF INCIDENT'
p2455
S''
sS'INCIDENT LOCATION'
p2456
S''
sS'PHYS TGT ID'
p2457
S''
sS'PERP INCIDENT CATEGORY'
p2458
S''
sS'PERP ORGANIZATION ID'
p2459
S''
sS'HUM TGT TYPE'
p2460
S''
sS'HUM TGT TOTAL NUMBER'
p2461
S''
sS'INCIDENT INSTRUMENT ID'
p2462
S''
sS'INCIDENT INSTRUMENT TYPE'
p2463
S''
sS'PHYS TGT FOREIGN NATION'
p2464
S''
sS'HUM TGT NUMBER'
p2465
S''
sS'PHYS TGT TYPE'
p2466
S''
sS'HUM TGT NAME'
p2467
S''
sS'INCIDENT TYPE'
p2468
S''
sS'PHYS TGT NUMBER'
p2469
S''
sS'PERP INDIVIDUAL ID'
p2470
S''
sS'INCIDENT STAGE OF EXECUTION'
p2471
S''
sS'HUM TGT DESCRIPTION'
p2472
S''
sS'PHYS TGT EFFECT OF INCIDENT'
p2473
S''
sS'HUM TGT FOREIGN NATION'
p2474
S''
sS'INCIDENT DATE'
p2475
S''
sS'MESSAGE TEMPLATE'
p2476
S''
sS'PHYS TGT TOTAL NUMBER'
p2477
S''
ssS'TST1MUC30057'
p2478
(dp2479
S'PERP ORGANIZATION CONFIDENCE'
p2480
S''
sS'HUM TGT EFFECT OF INCIDENT'
p2481
S''
sS'INCIDENT LOCATION'
p2482
S''
sS'PHYS TGT ID'
p2483
S''
sS'PERP INCIDENT CATEGORY'
p2484
S''
sS'PERP ORGANIZATION ID'
p2485
S''
sS'HUM TGT TYPE'
p2486
S''
sS'HUM TGT TOTAL NUMBER'
p2487
S''
sS'INCIDENT INSTRUMENT ID'
p2488
S''
sS'INCIDENT INSTRUMENT TYPE'
p2489
S''
sS'PHYS TGT FOREIGN NATION'
p2490
S''
sS'HUM TGT NUMBER'
p2491
S''
sS'PHYS TGT TYPE'
p2492
S''
sS'HUM TGT NAME'
p2493
S''
sS'INCIDENT TYPE'
p2494
S''
sS'PHYS TGT NUMBER'
p2495
S''
sS'PERP INDIVIDUAL ID'
p2496
S''
sS'INCIDENT STAGE OF EXECUTION'
p2497
S''
sS'HUM TGT DESCRIPTION'
p2498
S''
sS'PHYS TGT EFFECT OF INCIDENT'
p2499
S''
sS'HUM TGT FOREIGN NATION'
p2500
S''
sS'INCIDENT DATE'
p2501
S''
sS'MESSAGE TEMPLATE'
p2502
S''
sS'PHYS TGT TOTAL NUMBER'
p2503
S''
ssS'TST1MUC30056'
p2504
(dp2505
S'PERP ORGANIZATION CONFIDENCE'
p2506
S''
sS'HUM TGT EFFECT OF INCIDENT'
p2507
S'NO INJURY OR DEATH SHERATON HOTELS SECURITY CORPS SECURITY CORPS'
p2508
sS'INCIDENT LOCATION'
p2509
S'EL SALVADOR'
p2510
sS'PHYS TGT ID'
p2511
S'PRESIDENTIAL RESIDENCE'
p2512
sS'PERP INCIDENT CATEGORY'
p2513
S''
sS'PERP ORGANIZATION ID'
p2514
S''
sS'HUM TGT TYPE'
p2515
S'SECURITY GUARD SHERATON HOTELS SECURITY CORPS SECURITY CORPS'
p2516
sS'HUM TGT TOTAL NUMBER'
p2517
S''
sS'INCIDENT INSTRUMENT ID'
p2518
S''
sS'INCIDENT INSTRUMENT TYPE'
p2519
S''
sS'PHYS TGT FOREIGN NATION'
p2520
S''
sS'HUM TGT NUMBER'
p2521
S'PLURAL SHERATON HOTELS SECURITY CORPS SECURITY CORPS'
p2522
sS'PUBLIC WORKS MINISTER MAURICIO S'
p2523
S'TUBIGS RESIDENCE'
p2524
sS'PHYS TGT TYPE'
p2525
S'GOVERNMENT OFFICE OR RESIDENCE PRESIDENTIAL RESIDENCE'
p2526
sS'PHYS TGT EFFECT OF INCIDENT'
p2527
S'SOME DAMAGE CENTRAL ELECTORAL COUNCIL'
p2528
sS'CENTRAL ELECTORAL COUNCIL'
p2529
S''
sS'INCIDENT TYPE'
p2530
S'ATTACK'
p2531
sS'PHYS TGT NUMBER'
p2532
S'1 PRESIDENTIAL RESIDENCE'
p2533
sS'SHERATON HOTEL HOTEL'
p2534
S''
sS'PERP INDIVIDUAL ID'
p2535
S''
sS'INCIDENT STAGE OF EXECUTION'
p2536
S'ACCOMPLISHED'
p2537
sS'HUM TGT DESCRIPTION'
p2538
S'SHERATON HOTELS SECURITY CORPS SECURITY CORPS'
p2539
sS'HUM TGT NAME'
p2540
S''
sS'HUM TGT FOREIGN NATION'
p2541
S''
sS'INCIDENT DATE'
p2542
S'02 MAY 90'
p2543
sS'MESSAGE TEMPLATE'
p2544
S'3'
sS'PHYS TGT TOTAL NUMBER'
p2545
S''
ssS'TST1MUC30100'
p2546
(dp2547
S'PERP ORGANIZATION CONFIDENCE'
p2548
S'REPORTED AS FACT SHINING PATH'
p2549
sS'HUM TGT EFFECT OF INCIDENT'
p2550
S''
sS'INCIDENT LOCATION'
p2551
S'PERU BARRANCA TOWN'
p2552
sS'PHYS TGT ID'
p2553
S'RADIO STATION'
p2554
sS'PERP INCIDENT CATEGORY'
p2555
S'TERRORIST ACT'
p2556
sS'PERP ORGANIZATION ID'
p2557
S'SHINING PATH'
p2558
sS'DRUGSTORE'
p2559
S''
sS'HUM TGT TYPE'
p2560
S''
sS'HUM TGT TOTAL NUMBER'
p2561
S''
sS'INCIDENT INSTRUMENT ID'
p2562
S''
sS'INCIDENT INSTRUMENT TYPE'
p2563
S'BOMB'
p2564
sS'PHYS TGT FOREIGN NATION'
p2565
S''
sS'HUM TGT NUMBER'
p2566
S''
sS'PHYS TGT TYPE'
p2567
S'COMMUNICATIONS RADIO STATION'
p2568
sS'PHYS TGT EFFECT OF INCIDENT'
p2569
S''
sS'INCIDENT TYPE'
p2570
S'BOMBING'
p2571
sS'PHYS TGT NUMBER'
p2572
S'1 RADIO STATION'
p2573
sS'PERP INDIVIDUAL ID'
p2574
S'TERRORISTS'
p2575
sS'INCIDENT STAGE OF EXECUTION'
p2576
S'ACCOMPLISHED'
p2577
sS'HUM TGT DESCRIPTION'
p2578
S''
sS'HUM TGT NAME'
p2579
S''
sS'HUM TGT FOREIGN NATION'
p2580
S''
sS'INCIDENT DATE'
p2581
S'31 MAR 90 01 APR 90'
p2582
sS'MESSAGE TEMPLATE'
p2583
S'6'
sS'PHYS TGT TOTAL NUMBER'
p2584
S''
ssS'TST1MUC30028'
p2585
(dp2586
S'PERP ORGANIZATION CONFIDENCE'
p2587
S''
sS'HUM TGT EFFECT OF INCIDENT'
p2588
S''
sS'INCIDENT LOCATION'
p2589
S''
sS'PHYS TGT ID'
p2590
S''
sS'PERP INCIDENT CATEGORY'
p2591
S''
sS'PERP ORGANIZATION ID'
p2592
S''
sS'HUM TGT TYPE'
p2593
S''
sS'HUM TGT TOTAL NUMBER'
p2594
S''
sS'INCIDENT INSTRUMENT ID'
p2595
S''
sS'INCIDENT INSTRUMENT TYPE'
p2596
S''
sS'PHYS TGT FOREIGN NATION'
p2597
S''
sS'HUM TGT NUMBER'
p2598
S''
sS'PHYS TGT TYPE'
p2599
S''
sS'HUM TGT NAME'
p2600
S''
sS'INCIDENT TYPE'
p2601
S''
sS'PHYS TGT NUMBER'
p2602
S''
sS'PERP INDIVIDUAL ID'
p2603
S''
sS'INCIDENT STAGE OF EXECUTION'
p2604
S''
sS'HUM TGT DESCRIPTION'
p2605
S''
sS'PHYS TGT EFFECT OF INCIDENT'
p2606
S''
sS'HUM TGT FOREIGN NATION'
p2607
S''
sS'INCIDENT DATE'
p2608
S''
sS'MESSAGE TEMPLATE'
p2609
S''
sS'PHYS TGT TOTAL NUMBER'
p2610
S''
ssS'TST1MUC30029'
p2611
(dp2612
S'PERP ORGANIZATION CONFIDENCE'
p2613
S''
sS'HUM TGT EFFECT OF INCIDENT'
p2614
S''
sS'INCIDENT LOCATION'
p2615
S''
sS'PHYS TGT ID'
p2616
S''
sS'PERP INCIDENT CATEGORY'
p2617
S''
sS'PERP ORGANIZATION ID'
p2618
S''
sS'HUM TGT TYPE'
p2619
S''
sS'HUM TGT TOTAL NUMBER'
p2620
S''
sS'INCIDENT INSTRUMENT ID'
p2621
S''
sS'INCIDENT INSTRUMENT TYPE'
p2622
S''
sS'PHYS TGT FOREIGN NATION'
p2623
S''
sS'HUM TGT NUMBER'
p2624
S''
sS'PHYS TGT TYPE'
p2625
S''
sS'HUM TGT NAME'
p2626
S''
sS'INCIDENT TYPE'
p2627
S''
sS'PHYS TGT NUMBER'
p2628
S''
sS'PERP INDIVIDUAL ID'
p2629
S''
sS'INCIDENT STAGE OF EXECUTION'
p2630
S''
sS'HUM TGT DESCRIPTION'
p2631
S''
sS'PHYS TGT EFFECT OF INCIDENT'
p2632
S''
sS'HUM TGT FOREIGN NATION'
p2633
S''
sS'INCIDENT DATE'
p2634
S''
sS'MESSAGE TEMPLATE'
p2635
S''
sS'PHYS TGT TOTAL NUMBER'
p2636
S''
ssS'TST1MUC30024'
p2637
(dp2638
S'PERP ORGANIZATION CONFIDENCE'
p2639
S'REPORTED AS FACT MEDELLIN CARTEL'
p2640
sS'HUM TGT EFFECT OF INCIDENT'
p2641
S'DEATH VICTIMS'
p2642
sS'INCIDENT LOCATION'
p2643
S'COLOMBIA'
p2644
sS'PHYS TGT ID'
p2645
S'BUILDING THAT HOUSES THE ADMINISTRATIVE DEPARTMENT OF SECURITY HEADQUARTERS OF THE COUNTRYS PRINCIPAL SECURITY ORGANIZATION'
p2646
sS'PERP INCIDENT CATEGORY'
p2647
S'TERRORIST ACT'
p2648
sS'PERP ORGANIZATION ID'
p2649
S'MEDELLIN CARTEL'
p2650
sS'HUM TGT TYPE'
p2651
S'LAW ENFORCEMENT MIGUEL MAZA MARQUEZ'
p2652
sS'HUM TGT TOTAL NUMBER'
p2653
S''
sS'INCIDENT INSTRUMENT ID'
p2654
S'CAR BOMB BUS CAR'
p2655
sS'INCIDENT INSTRUMENT TYPE'
p2656
S'VEHICLE BOMB CAR BOMB BUS CAR'
p2657
sS'VICTIMS'
p2658
S''
sS'PHYS TGT FOREIGN NATION'
p2659
S''
sS'HUM TGT NUMBER'
p2660
S'1 MIGUEL MAZA MARQUEZ'
p2661
sS'PHYS TGT TYPE'
p2662
S'LAW ENFORCEMENT FACILITY BUILDING THAT HOUSES THE ADMINISTRATIVE DEPARTMENT OF SECURITY HEADQUARTERS OF THE COUNTRYS PRINCIPAL SECURITY ORGANIZATION'
p2663
sS'HUM TGT NAME'
p2664
S'MIGUEL MAZA MARQUEZ'
p2665
sS'INCIDENT TYPE'
p2666
S'BOMBING'
p2667
sS'PHYS TGT NUMBER'
p2668
S'1 BUILDING THAT HOUSES THE ADMINISTRATIVE DEPARTMENT OF SECURITY HEADQUARTERS OF THE COUNTRYS PRINCIPAL SECURITY ORGANIZATION'
p2669
sS'PERP INDIVIDUAL ID'
p2670
S'MAN WHO IS A NATIVE OF MEDELLIN MEMBER OF THE SINISTER MEDELLIN CARTEL'
p2671
sS'INCIDENT STAGE OF EXECUTION'
p2672
S'ACCOMPLISHED'
p2673
sS'HUM TGT DESCRIPTION'
p2674
S'DAS DIRECTOR BRIGADIER GENERAL DAS DIRECTOR BRIGADIER GENERAL MIGUEL MAZA MARQUEZ'
p2675
sS'PHYS TGT EFFECT OF INCIDENT'
p2676
S'DESTROYED BUILDING THAT HOUSES THE ADMINISTRATIVE DEPARTMENT OF SECURITY HEADQUARTERS OF THE COUNTRYS PRINCIPAL SECURITY ORGANIZATION'
p2677
sS'HUM TGT FOREIGN NATION'
p2678
S''
sS'INCIDENT DATE'
p2679
S'06 DEC 89'
p2680
sS'MESSAGE TEMPLATE'
p2681
S'1'
sS'PHYS TGT TOTAL NUMBER'
p2682
S''
ssS'TST1MUC30025'
p2683
(dp2684
S'PERP ORGANIZATION CONFIDENCE'
p2685
S''
sS'HUM TGT EFFECT OF INCIDENT'
p2686
S''
sS'INCIDENT LOCATION'
p2687
S''
sS'PHYS TGT ID'
p2688
S''
sS'PERP INCIDENT CATEGORY'
p2689
S''
sS'PERP ORGANIZATION ID'
p2690
S''
sS'HUM TGT TYPE'
p2691
S''
sS'HUM TGT TOTAL NUMBER'
p2692
S''
sS'INCIDENT INSTRUMENT ID'
p2693
S''
sS'INCIDENT INSTRUMENT TYPE'
p2694
S''
sS'PHYS TGT FOREIGN NATION'
p2695
S''
sS'HUM TGT NUMBER'
p2696
S''
sS'PHYS TGT TYPE'
p2697
S''
sS'HUM TGT NAME'
p2698
S''
sS'INCIDENT TYPE'
p2699
S''
sS'PHYS TGT NUMBER'
p2700
S''
sS'PERP INDIVIDUAL ID'
p2701
S''
sS'INCIDENT STAGE OF EXECUTION'
p2702
S''
sS'HUM TGT DESCRIPTION'
p2703
S''
sS'PHYS TGT EFFECT OF INCIDENT'
p2704
S''
sS'HUM TGT FOREIGN NATION'
p2705
S''
sS'INCIDENT DATE'
p2706
S''
sS'MESSAGE TEMPLATE'
p2707
S''
sS'PHYS TGT TOTAL NUMBER'
p2708
S''
ssS'TST1MUC30026'
p2709
(dp2710
S'PERP ORGANIZATION CONFIDENCE'
p2711
S'SUSPECTED OR ACCUSED BY AUTHORITIES MOVEMENT OF NATIONAL RESTORATION MORENA'
p2712
sS'HUM TGT EFFECT OF INCIDENT'
p2713
S'DEATH PEASANTS'
p2714
sS'INCIDENT LOCATION'
p2715
S'COLOMBIA URABA REGION CITY'
p2716
sS'PHYS TGT ID'
p2717
S''
sS'PERP INCIDENT CATEGORY'
p2718
S''
sS'PERP ORGANIZATION ID'
p2719
S'ASSOCIATION OF MIDDLE MAGDALENA CATTLEMEN ACDEGAM'
p2720
sS'HUM TGT TYPE'
p2721
S'CIVILIAN PEASANTS'
p2722
sS'HUM TGT TOTAL NUMBER'
p2723
S''
sS'INCIDENT INSTRUMENT ID'
p2724
S''
sS'INCIDENT INSTRUMENT TYPE'
p2725
S''
sS'PHYS TGT FOREIGN NATION'
p2726
S''
sS'HUM TGT NUMBER'
p2727
S'PLURAL PEASANTS'
p2728
sS'PHYS TGT TYPE'
p2729
S''
sS'HUM TGT NAME'
p2730
S''
sS'INCIDENT TYPE'
p2731
S'ATTACK'
p2732
sS'PHYS TGT NUMBER'
p2733
S''
sS'PERP INDIVIDUAL ID'
p2734
S'GONZALO DE JESUS PEREZ'
p2735
sS'INCIDENT STAGE OF EXECUTION'
p2736
S'ACCOMPLISHED'
p2737
sS'HUM TGT DESCRIPTION'
p2738
S'PEASANTS'
p2739
sS'PHYS TGT EFFECT OF INCIDENT'
p2740
S''
sS'HUM TGT FOREIGN NATION'
p2741
S''
sS'INCIDENT DATE'
p2742
S'24 AUG 89'
p2743
sS'MESSAGE TEMPLATE'
p2744
S'1'
sS'PHYS TGT TOTAL NUMBER'
p2745
S''
ssS'TST1MUC30027'
p2746
(dp2747
S'PERP ORGANIZATION CONFIDENCE'
p2748
S''
sS'HUM TGT EFFECT OF INCIDENT'
p2749
S''
sS'INCIDENT LOCATION'
p2750
S'PERU YUNGUYO CITY'
p2751
sS'PHYS TGT ID'
p2752
S'OFFICES OF THE DEPUTY MAYOR A CIVILIAN OFFICE OCCUPIED BY THE PROVINCIAL GOVERNOR'
p2753
sS'PERP INCIDENT CATEGORY'
p2754
S'TERRORIST ACT'
p2755
sS'PERP ORGANIZATION ID'
p2756
S''
sS'HUM TGT TYPE'
p2757
S''
sS'HUM TGT TOTAL NUMBER'
p2758
S''
sS'INCIDENT INSTRUMENT ID'
p2759
S'BOMB'
p2760
sS'INCIDENT INSTRUMENT TYPE'
p2761
S'BOMB BOMB'
p2762
sS'PHYS TGT FOREIGN NATION'
p2763
S''
sS'HUM TGT NUMBER'
p2764
S''
sS'PHYS TGT TYPE'
p2765
S'GOVERNMENT OFFICE OR RESIDENCE OFFICES OF THE DEPUTY MAYOR A CIVILIAN OFFICE OCCUPIED BY THE PROVINCIAL GOVERNOR'
p2766
sS'HUM TGT NAME'
p2767
S''
sS'INCIDENT TYPE'
p2768
S'BOMBING'
p2769
sS'PHYS TGT NUMBER'
p2770
S'1 PLURAL OFFICES OF THE DEPUTY MAYOR A CIVILIAN OFFICE OCCUPIED BY THE PROVINCIAL GOVERNOR'
p2771
sS'PERP INDIVIDUAL ID'
p2772
S'TERRORIST'
p2773
sS'INCIDENT STAGE OF EXECUTION'
p2774
S'ACCOMPLISHED'
p2775
sS'HUM TGT DESCRIPTION'
p2776
S''
sS'PHYS TGT EFFECT OF INCIDENT'
p2777
S''
sS'HUM TGT FOREIGN NATION'
p2778
S''
sS'INCIDENT DATE'
p2779
S'18 OCT 89'
p2780
sS'MESSAGE TEMPLATE'
p2781
S'1'
sS'PHYS TGT TOTAL NUMBER'
p2782
S''
ssS'TST1MUC30020'
p2783
(dp2784
S'PERP ORGANIZATION CONFIDENCE'
p2785
S''
sS'HUM TGT EFFECT OF INCIDENT'
p2786
S''
sS'INCIDENT LOCATION'
p2787
S''
sS'PHYS TGT ID'
p2788
S''
sS'PERP INCIDENT CATEGORY'
p2789
S''
sS'PERP ORGANIZATION ID'
p2790
S''
sS'HUM TGT TYPE'
p2791
S''
sS'HUM TGT TOTAL NUMBER'
p2792
S''
sS'INCIDENT INSTRUMENT ID'
p2793
S''
sS'INCIDENT INSTRUMENT TYPE'
p2794
S''
sS'PHYS TGT FOREIGN NATION'
p2795
S''
sS'HUM TGT NUMBER'
p2796
S''
sS'PHYS TGT TYPE'
p2797
S''
sS'HUM TGT NAME'
p2798
S''
sS'INCIDENT TYPE'
p2799
S''
sS'PHYS TGT NUMBER'
p2800
S''
sS'PERP INDIVIDUAL ID'
p2801
S''
sS'INCIDENT STAGE OF EXECUTION'
p2802
S''
sS'HUM TGT DESCRIPTION'
p2803
S''
sS'PHYS TGT EFFECT OF INCIDENT'
p2804
S''
sS'HUM TGT FOREIGN NATION'
p2805
S''
sS'INCIDENT DATE'
p2806
S''
sS'MESSAGE TEMPLATE'
p2807
S''
sS'PHYS TGT TOTAL NUMBER'
p2808
S''
ssS'TST1MUC30021'
p2809
(dp2810
S'PERP ORGANIZATION CONFIDENCE'
p2811
S''
sS'HUM TGT EFFECT OF INCIDENT'
p2812
S''
sS'INCIDENT LOCATION'
p2813
S''
sS'PHYS TGT ID'
p2814
S''
sS'PERP INCIDENT CATEGORY'
p2815
S''
sS'PERP ORGANIZATION ID'
p2816
S''
sS'HUM TGT TYPE'
p2817
S''
sS'HUM TGT TOTAL NUMBER'
p2818
S''
sS'INCIDENT INSTRUMENT ID'
p2819
S''
sS'INCIDENT INSTRUMENT TYPE'
p2820
S''
sS'PHYS TGT FOREIGN NATION'
p2821
S''
sS'HUM TGT NUMBER'
p2822
S''
sS'PHYS TGT TYPE'
p2823
S''
sS'HUM TGT NAME'
p2824
S''
sS'INCIDENT TYPE'
p2825
S''
sS'PHYS TGT NUMBER'
p2826
S''
sS'PERP INDIVIDUAL ID'
p2827
S''
sS'INCIDENT STAGE OF EXECUTION'
p2828
S''
sS'HUM TGT DESCRIPTION'
p2829
S''
sS'PHYS TGT EFFECT OF INCIDENT'
p2830
S''
sS'HUM TGT FOREIGN NATION'
p2831
S''
sS'INCIDENT DATE'
p2832
S''
sS'MESSAGE TEMPLATE'
p2833
S''
sS'PHYS TGT TOTAL NUMBER'
p2834
S''
ssS'TST1MUC30022'
p2835
(dp2836
S'PERP ORGANIZATION CONFIDENCE'
p2837
S''
sS'HUM TGT EFFECT OF INCIDENT'
p2838
S'DEATH FATHERS'
p2839
sS'INCIDENT LOCATION'
p2840
S'EL SALVADOR'
p2841
sS'PHYS TGT ID'
p2842
S''
sS'PERP INCIDENT CATEGORY'
p2843
S'STATESPONSORED VIOLENCE'
p2844
sS'PERP ORGANIZATION ID'
p2845
S''
sS'HUM TGT TYPE'
p2846
S'CIVILIAN FATHERS'
p2847
sS'HUM TGT TOTAL NUMBER'
p2848
S''
sS'INCIDENT INSTRUMENT ID'
p2849
S''
sS'INCIDENT INSTRUMENT TYPE'
p2850
S''
sS'PHYS TGT FOREIGN NATION'
p2851
S''
sS'HUM TGT NUMBER'
p2852
S'PLURAL FATHERS'
p2853
sS'PHYS TGT TYPE'
p2854
S''
sS'HUM TGT NAME'
p2855
S''
sS'INCIDENT TYPE'
p2856
S'ATTACK'
p2857
sS'PHYS TGT NUMBER'
p2858
S''
sS'PERP INDIVIDUAL ID'
p2859
S'SECURITY FORCES'
p2860
sS'INCIDENT STAGE OF EXECUTION'
p2861
S'ACCOMPLISHED'
p2862
sS'HUM TGT DESCRIPTION'
p2863
S'FATHERS'
p2864
sS'PHYS TGT EFFECT OF INCIDENT'
p2865
S''
sS'HUM TGT FOREIGN NATION'
p2866
S''
sS'INCIDENT DATE'
p2867
S'15 MAR 89'
p2868
sS'MESSAGE TEMPLATE'
p2869
S'1 OPTIONAL'
p2870
sS'PHYS TGT TOTAL NUMBER'
p2871
S''
ssS'TST1MUC30023'
p2872
(dp2873
S'PERP ORGANIZATION CONFIDENCE'
p2874
S''
sS'HUM TGT EFFECT OF INCIDENT'
p2875
S''
sS'INCIDENT LOCATION'
p2876
S''
sS'PHYS TGT ID'
p2877
S''
sS'PERP INCIDENT CATEGORY'
p2878
S''
sS'PERP ORGANIZATION ID'
p2879
S''
sS'HUM TGT TYPE'
p2880
S''
sS'HUM TGT TOTAL NUMBER'
p2881
S''
sS'INCIDENT INSTRUMENT ID'
p2882
S''
sS'INCIDENT INSTRUMENT TYPE'
p2883
S''
sS'PHYS TGT FOREIGN NATION'
p2884
S''
sS'HUM TGT NUMBER'
p2885
S''
sS'PHYS TGT TYPE'
p2886
S''
sS'HUM TGT NAME'
p2887
S''
sS'INCIDENT TYPE'
p2888
S''
sS'PHYS TGT NUMBER'
p2889
S''
sS'PERP INDIVIDUAL ID'
p2890
S''
sS'INCIDENT STAGE OF EXECUTION'
p2891
S''
sS'HUM TGT DESCRIPTION'
p2892
S''
sS'PHYS TGT EFFECT OF INCIDENT'
p2893
S''
sS'HUM TGT FOREIGN NATION'
p2894
S''
sS'INCIDENT DATE'
p2895
S''
sS'MESSAGE TEMPLATE'
p2896
S''
sS'PHYS TGT TOTAL NUMBER'
p2897
S''
ssS'TST1MUC30039'
p2898
(dp2899
S'PERP ORGANIZATION CONFIDENCE'
p2900
S''
sS'HUM TGT EFFECT OF INCIDENT'
p2901
S''
sS'INCIDENT LOCATION'
p2902
S'CHILE'
p2903
sS'PHYS TGT ID'
p2904
S''
sS'PERP INCIDENT CATEGORY'
p2905
S''
sS'PERP ORGANIZATION ID'
p2906
S''
sS'HUM TGT TYPE'
p2907
S'SECURITY GUARD GUARD'
p2908
sS'HUM TGT TOTAL NUMBER'
p2909
S''
sS'INCIDENT INSTRUMENT ID'
p2910
S'STONES'
p2911
sS'INCIDENT INSTRUMENT TYPE'
p2912
S'STONE STONES'
p2913
sS'PHYS TGT FOREIGN NATION'
p2914
S''
sS'HUM TGT NUMBER'
p2915
S'1 GUARD'
p2916
sS'PHYS TGT TYPE'
p2917
S''
sS'HUM TGT NAME'
p2918
S''
sS'INCIDENT TYPE'
p2919
S'ATTACK'
p2920
sS'PHYS TGT NUMBER'
p2921
S''
sS'PERP INDIVIDUAL ID'
p2922
S'SOME 100 STUDENTS FROM THE APPLICATIONS SCHOOL DEMONSTRATORS STUDENTS'
p2923
sS'INCIDENT STAGE OF EXECUTION'
p2924
S'THREATENED'
p2925
sS'HUM TGT DESCRIPTION'
p2926
S'GUARD'
p2927
sS'PHYS TGT EFFECT OF INCIDENT'
p2928
S''
sS'HUM TGT FOREIGN NATION'
p2929
S'BRAZIL GUARD'
p2930
sS'INCIDENT DATE'
p2931
S'28 MAR 89'
p2932
sS'MESSAGE TEMPLATE'
p2933
S'3'
sS'PHYS TGT TOTAL NUMBER'
p2934
S''
ssS'TST1MUC30038'
p2935
(dp2936
S'PERP ORGANIZATION CONFIDENCE'
p2937
S''
sS'HUM TGT EFFECT OF INCIDENT'
p2938
S'REGAINED FREEDOM ERNESTINA UMANZOR'
p2939
sS'INCIDENT LOCATION'
p2940
S'HONDURAS CIFUENTES TOWN'
p2941
sS'PHYS TGT ID'
p2942
S''
sS'PERP INCIDENT CATEGORY'
p2943
S''
sS'PERP ORGANIZATION ID'
p2944
S''
sS'HUM TGT TYPE'
p2945
S'CIVILIAN ERNESTINA UMANZOR'
p2946
sS'HUM TGT TOTAL NUMBER'
p2947
S''
sS'INCIDENT INSTRUMENT ID'
p2948
S''
sS'INCIDENT INSTRUMENT TYPE'
p2949
S''
sS'PHYS TGT FOREIGN NATION'
p2950
S''
sS'HUM TGT NUMBER'
p2951
S'1 ERNESTINA UMANZOR'
p2952
sS'PHYS TGT TYPE'
p2953
S''
sS'HUM TGT NAME'
p2954
S'ERNESTINA UMANZOR'
p2955
sS'INCIDENT TYPE'
p2956
S'KIDNAPPING'
p2957
sS'PHYS TGT NUMBER'
p2958
S''
sS'PERP INDIVIDUAL ID'
p2959
S''
sS'INCIDENT STAGE OF EXECUTION'
p2960
S'ACCOMPLISHED'
p2961
sS'HUM TGT DESCRIPTION'
p2962
S''
sS'PHYS TGT EFFECT OF INCIDENT'
p2963
S''
sS'HUM TGT FOREIGN NATION'
p2964
S'NICARAGUA ERNESTINA UMANZOR'
p2965
sS'INCIDENT DATE'
p2966
S'23 AUG 89'
p2967
sS'MESSAGE TEMPLATE'
p2968
S'1'
sS'PHYS TGT TOTAL NUMBER'
p2969
S''
ssS'TST1MUC30037'
p2970
(dp2971
S'PERP ORGANIZATION CONFIDENCE'
p2972
S''
sS'HUM TGT EFFECT OF INCIDENT'
p2973
S'INJURY NADINE ELKASHES'
p2974
sS'INCIDENT LOCATION'
p2975
S'EL SALVADOR'
p2976
sS'PHYS TGT ID'
p2977
S''
sS'PERP INCIDENT CATEGORY'
p2978
S''
sS'PERP ORGANIZATION ID'
p2979
S''
sS'HUM TGT TYPE'
p2980
S'CIVILIAN NADINE ELKASHES'
p2981
sS'HUM TGT TOTAL NUMBER'
p2982
S''
sS'INCIDENT INSTRUMENT ID'
p2983
S''
sS'INCIDENT INSTRUMENT TYPE'
p2984
S''
sS'PHYS TGT FOREIGN NATION'
p2985
S''
sS'HUM TGT NUMBER'
p2986
S'1 NADINE ELKASHES'
p2987
sS'PHYS TGT TYPE'
p2988
S''
sS'HUM TGT NAME'
p2989
S'NADINE ELKASHES'
p2990
sS'INCIDENT TYPE'
p2991
S'ATTACK'
p2992
sS'PHYS TGT NUMBER'
p2993
S''
sS'PERP INDIVIDUAL ID'
p2994
S''
sS'INCIDENT STAGE OF EXECUTION'
p2995
S'ACCOMPLISHED'
p2996
sS'HUM TGT DESCRIPTION'
p2997
S'DAUGHTER OF THE EGYPTIAN AMBASSADOR NADINE ELKASHES'
p2998
sS'PHYS TGT EFFECT OF INCIDENT'
p2999
S''
sS'HUM TGT FOREIGN NATION'
p3000
S'EGYPT NADINE ELKASHES'
p3001
sS'INCIDENT DATE'
p3002
S'13 NOV 89'
p3003
sS'MESSAGE TEMPLATE'
p3004
S'4'
sS'PHYS TGT TOTAL NUMBER'
p3005
S''
ssS'TST1MUC30036'
p3006
(dp3007
S'PERP ORGANIZATION CONFIDENCE'
p3008
S''
sS'HUM TGT EFFECT OF INCIDENT'
p3009
S'INJURY SOLDIERS GROUP OF NINE US SOLDIERS GROUP OF NINE US SOLDIERS STATIONED AT THE PALMEROLA BASE WHO WERE VISITING THE CITY OF LA CEIBA SOLDIERS FROM PALMEROLA BASE'
p3010
sS'INCIDENT LOCATION'
p3011
S'HONDURAS LA CEIBA CITY'
p3012
sS'PHYS TGT ID'
p3013
S''
sS'PERP INCIDENT CATEGORY'
p3014
S''
sS'PERP ORGANIZATION ID'
p3015
S''
sS'HUM TGT TYPE'
p3016
S'ACTIVE MILITARY SOLDIERS GROUP OF NINE US SOLDIERS GROUP OF NINE US SOLDIERS STATIONED AT THE PALMEROLA BASE WHO WERE VISITING THE CITY OF LA CEIBA SOLDIERS FROM PALMEROLA BASE'
p3017
sS'HUM TGT TOTAL NUMBER'
p3018
S''
sS'INCIDENT INSTRUMENT ID'
p3019
S'HOMEMADE BOMB BOMB'
p3020
sS'INCIDENT INSTRUMENT TYPE'
p3021
S'BOMB HOMEMADE BOMB BOMB'
p3022
sS'PHYS TGT FOREIGN NATION'
p3023
S''
sS'HUM TGT NUMBER'
p3024
S'9 SOLDIERS GROUP OF NINE US SOLDIERS GROUP OF NINE US SOLDIERS STATIONED AT THE PALMEROLA BASE WHO WERE VISITING THE CITY OF LA CEIBA SOLDIERS FROM PALMEROLA BASE'
p3025
sS'PHYS TGT TYPE'
p3026
S''
sS'HUM TGT NAME'
p3027
S''
sS'INCIDENT TYPE'
p3028
S'BOMBING'
p3029
sS'PHYS TGT NUMBER'
p3030
S''
sS'PERP INDIVIDUAL ID'
p3031
S'SUSPECTS'
p3032
sS'INCIDENT STAGE OF EXECUTION'
p3033
S'ACCOMPLISHED'
p3034
sS'HUM TGT DESCRIPTION'
p3035
S'SOLDIERS GROUP OF NINE US SOLDIERS GROUP OF NINE US SOLDIERS STATIONED AT THE PALMEROLA BASE WHO WERE VISITING THE CITY OF LA CEIBA SOLDIERS FROM PALMEROLA BASE'
p3036
sS'PHYS TGT EFFECT OF INCIDENT'
p3037
S''
sS'HUM TGT FOREIGN NATION'
p3038
S'UNITED STATES SOLDIERS GROUP OF NINE US SOLDIERS GROUP OF NINE US SOLDIERS STATIONED AT THE PALMEROLA BASE WHO WERE VISITING THE CITY OF LA CEIBA SOLDIERS FROM PALMEROLA BASE'
p3039
sS'INCIDENT DATE'
p3040
S'13 JUL 89'
p3041
sS'MESSAGE TEMPLATE'
p3042
S'1'
sS'PHYS TGT TOTAL NUMBER'
p3043
S''
ssS'TST1MUC30035'
p3044
(dp3045
S'PERP ORGANIZATION CONFIDENCE'
p3046
S'CLAIMED OR ADMITTED FARABUNDO MARTI NATIONAL LIBERATION FRONT FMLN'
p3047
sS'HUM TGT EFFECT OF INCIDENT'
p3048
S''
sS'INCIDENT LOCATION'
p3049
S'EL SALVADOR SAN SALVADOR CITY'
p3050
sS'PHYS TGT ID'
p3051
S'ELECTRICAL SYSTEM'
p3052
sS'PERP INCIDENT CATEGORY'
p3053
S'TERRORIST ACT'
p3054
sS'PERP ORGANIZATION ID'
p3055
S'FARABUNDO MARTI NATIONAL LIBERATION FRONT FMLN'
p3056
sS'HUM TGT TYPE'
p3057
S''
sS'HUM TGT TOTAL NUMBER'
p3058
S''
sS'INCIDENT INSTRUMENT ID'
p3059
S''
sS'INCIDENT INSTRUMENT TYPE'
p3060
S''
sS'PHYS TGT FOREIGN NATION'
p3061
S''
sS'HUM TGT NUMBER'
p3062
S''
sS'PHYS TGT TYPE'
p3063
S'ENERGY ELECTRICAL SYSTEM'
p3064
sS'HUM TGT NAME'
p3065
S''
sS'INCIDENT TYPE'
p3066
S'ATTACK'
p3067
sS'PHYS TGT NUMBER'
p3068
S'1 ELECTRICAL SYSTEM'
p3069
sS'PERP INDIVIDUAL ID'
p3070
S'URBAN COMMANDO UNITS UNITS'
p3071
sS'INCIDENT STAGE OF EXECUTION'
p3072
S'ACCOMPLISHED'
p3073
sS'HUM TGT DESCRIPTION'
p3074
S''
sS'PHYS TGT EFFECT OF INCIDENT'
p3075
S''
sS'HUM TGT FOREIGN NATION'
p3076
S''
sS'INCIDENT DATE'
p3077
S'25 MAY 89 26 MAY 89 25 MAY 89'
p3078
sS'MESSAGE TEMPLATE'
p3079
S'1'
sS'PHYS TGT TOTAL NUMBER'
p3080
S''
ssS'TST1MUC30034'
p3081
(dp3082
S'PERP ORGANIZATION CONFIDENCE'
p3083
S''
sS'HUM TGT EFFECT OF INCIDENT'
p3084
S''
sS'INCIDENT LOCATION'
p3085
S''
sS'PHYS TGT ID'
p3086
S''
sS'PERP INCIDENT CATEGORY'
p3087
S''
sS'PERP ORGANIZATION ID'
p3088
S''
sS'HUM TGT TYPE'
p3089
S''
sS'HUM TGT TOTAL NUMBER'
p3090
S''
sS'INCIDENT INSTRUMENT ID'
p3091
S''
sS'INCIDENT INSTRUMENT TYPE'
p3092
S''
sS'PHYS TGT FOREIGN NATION'
p3093
S''
sS'HUM TGT NUMBER'
p3094
S''
sS'PHYS TGT TYPE'
p3095
S''
sS'HUM TGT NAME'
p3096
S''
sS'INCIDENT TYPE'
p3097
S''
sS'PHYS TGT NUMBER'
p3098
S''
sS'PERP INDIVIDUAL ID'
p3099
S''
sS'INCIDENT STAGE OF EXECUTION'
p3100
S''
sS'HUM TGT DESCRIPTION'
p3101
S''
sS'PHYS TGT EFFECT OF INCIDENT'
p3102
S''
sS'HUM TGT FOREIGN NATION'
p3103
S''
sS'INCIDENT DATE'
p3104
S''
sS'MESSAGE TEMPLATE'
p3105
S''
sS'PHYS TGT TOTAL NUMBER'
p3106
S''
ssS'TST1MUC30033'
p3107
(dp3108
S'PERP ORGANIZATION CONFIDENCE'
p3109
S''
sS'HUM TGT EFFECT OF INCIDENT'
p3110
S''
sS'INCIDENT LOCATION'
p3111
S''
sS'PHYS TGT ID'
p3112
S''
sS'PERP INCIDENT CATEGORY'
p3113
S''
sS'PERP ORGANIZATION ID'
p3114
S''
sS'HUM TGT TYPE'
p3115
S''
sS'HUM TGT TOTAL NUMBER'
p3116
S''
sS'INCIDENT INSTRUMENT ID'
p3117
S''
sS'INCIDENT INSTRUMENT TYPE'
p3118
S''
sS'PHYS TGT FOREIGN NATION'
p3119
S''
sS'HUM TGT NUMBER'
p3120
S''
sS'PHYS TGT TYPE'
p3121
S''
sS'HUM TGT NAME'
p3122
S''
sS'INCIDENT TYPE'
p3123
S''
sS'PHYS TGT NUMBER'
p3124
S''
sS'PERP INDIVIDUAL ID'
p3125
S''
sS'INCIDENT STAGE OF EXECUTION'
p3126
S''
sS'HUM TGT DESCRIPTION'
p3127
S''
sS'PHYS TGT EFFECT OF INCIDENT'
p3128
S''
sS'HUM TGT FOREIGN NATION'
p3129
S''
sS'INCIDENT DATE'
p3130
S''
sS'MESSAGE TEMPLATE'
p3131
S''
sS'PHYS TGT TOTAL NUMBER'
p3132
S''
ssS'TST1MUC30032'
p3133
(dp3134
S'PERP ORGANIZATION CONFIDENCE'
p3135
S''
sS'HUM TGT EFFECT OF INCIDENT'
p3136
S''
sS'INCIDENT LOCATION'
p3137
S''
sS'PHYS TGT ID'
p3138
S''
sS'PERP INCIDENT CATEGORY'
p3139
S''
sS'PERP ORGANIZATION ID'
p3140
S''
sS'HUM TGT TYPE'
p3141
S''
sS'HUM TGT TOTAL NUMBER'
p3142
S''
sS'INCIDENT INSTRUMENT ID'
p3143
S''
sS'INCIDENT INSTRUMENT TYPE'
p3144
S''
sS'PHYS TGT FOREIGN NATION'
p3145
S''
sS'HUM TGT NUMBER'
p3146
S''
sS'PHYS TGT TYPE'
p3147
S''
sS'HUM TGT NAME'
p3148
S''
sS'INCIDENT TYPE'
p3149
S''
sS'PHYS TGT NUMBER'
p3150
S''
sS'PERP INDIVIDUAL ID'
p3151
S''
sS'INCIDENT STAGE OF EXECUTION'
p3152
S''
sS'HUM TGT DESCRIPTION'
p3153
S''
sS'PHYS TGT EFFECT OF INCIDENT'
p3154
S''
sS'HUM TGT FOREIGN NATION'
p3155
S''
sS'INCIDENT DATE'
p3156
S''
sS'MESSAGE TEMPLATE'
p3157
S''
sS'PHYS TGT TOTAL NUMBER'
p3158
S''
ssS'TST1MUC30031'
p3159
(dp3160
S'PERP ORGANIZATION CONFIDENCE'
p3161
S''
sS'HUM TGT EFFECT OF INCIDENT'
p3162
S''
sS'INCIDENT LOCATION'
p3163
S''
sS'PHYS TGT ID'
p3164
S''
sS'PERP INCIDENT CATEGORY'
p3165
S''
sS'PERP ORGANIZATION ID'
p3166
S''
sS'HUM TGT TYPE'
p3167
S''
sS'HUM TGT TOTAL NUMBER'
p3168
S''
sS'INCIDENT INSTRUMENT ID'
p3169
S''
sS'INCIDENT INSTRUMENT TYPE'
p3170
S''
sS'PHYS TGT FOREIGN NATION'
p3171
S''
sS'HUM TGT NUMBER'
p3172
S''
sS'PHYS TGT TYPE'
p3173
S''
sS'HUM TGT NAME'
p3174
S''
sS'INCIDENT TYPE'
p3175
S''
sS'PHYS TGT NUMBER'
p3176
S''
sS'PERP INDIVIDUAL ID'
p3177
S''
sS'INCIDENT STAGE OF EXECUTION'
p3178
S''
sS'HUM TGT DESCRIPTION'
p3179
S''
sS'PHYS TGT EFFECT OF INCIDENT'
p3180
S''
sS'HUM TGT FOREIGN NATION'
p3181
S''
sS'INCIDENT DATE'
p3182
S''
sS'MESSAGE TEMPLATE'
p3183
S''
sS'PHYS TGT TOTAL NUMBER'
p3184
S''
ssS'TST1MUC30030'
p3185
(dp3186
S'PERP ORGANIZATION CONFIDENCE'
p3187
S''
sS'HUM TGT EFFECT OF INCIDENT'
p3188
S'DEATH CARLOS GALAN'
p3189
sS'INCIDENT LOCATION'
p3190
S'COLOMBIA'
p3191
sS'PHYS TGT ID'
p3192
S''
sS'PERP INCIDENT CATEGORY'
p3193
S'TERRORIST ACT'
p3194
sS'PERP ORGANIZATION ID'
p3195
S''
sS'HUM TGT TYPE'
p3196
S'POLITICAL FIGURE CARLOS GALAN'
p3197
sS'HUM TGT TOTAL NUMBER'
p3198
S''
sS'INCIDENT INSTRUMENT ID'
p3199
S''
sS'INCIDENT INSTRUMENT TYPE'
p3200
S''
sS'PHYS TGT FOREIGN NATION'
p3201
S''
sS'HUM TGT NUMBER'
p3202
S'1 CARLOS GALAN'
p3203
sS'PHYS TGT TYPE'
p3204
S''
sS'HUM TGT NAME'
p3205
S'CARLOS GALAN'
p3206
sS'INCIDENT TYPE'
p3207
S'ATTACK'
p3208
sS'PHYS TGT NUMBER'
p3209
S''
sS'PERP INDIVIDUAL ID'
p3210
S'DRUG TRAFFICKING BANDS'
p3211
sS'INCIDENT STAGE OF EXECUTION'
p3212
S'ACCOMPLISHED'
p3213
sS'HUM TGT DESCRIPTION'
p3214
S'GREAT COLOMBIAN LEADER LEADER CARLOS GALAN'
p3215
sS'PHYS TGT EFFECT OF INCIDENT'
p3216
S''
sS'HUM TGT FOREIGN NATION'
p3217
S''
sS'INCIDENT DATE'
p3218
S'16 SEP 89'
p3219
sS'MESSAGE TEMPLATE'
p3220
S'1'
sS'PHYS TGT TOTAL NUMBER'
p3221
S''
ss.