(dp1
S'TST1-MUC3-0059'
p2
(dp3
S'PERP ORGANIZATION CONFIDENCE'
p4
S'SUSPECTED OR ACCUSED BY AUTHORITIES FARABUNDO MARTI NATIONAL LIBERATION FRONT FMLN'
p5
sS'HUM TGT EFFECT OF INCIDENT'
p6
S'DEATH JOSE ANTONIO RODRIGUEZ PORTH'
p7
sS'INCIDENT LOCATION'
p8
S'EL SALVADOR'
p9
sS'PHYS TGT ID'
p10
S''
sS'PERP INCIDENT CATEGORY'
p11
S'TERRORIST ACT'
p12
sS'PERP ORGANIZATION ID'
p13
S'FARABUNDO MARTI NATIONAL LIBERATION FRONT FMLN'
p14
sS'HUM TGT TYPE'
p15
S'GOVERNMENT OFFICIAL JOSE ANTONIO RODRIGUEZ PORTH'
p16
sS'HUM TGT TOTAL NUMBER'
p17
S''
sS'INCIDENT INSTRUMENT ID'
p18
S''
sS'INCIDENT INSTRUMENT TYPE'
p19
S''
sS'PHYS TGT FOREIGN NATION'
p20
S''
sS'HUM TGT NUMBER'
p21
S'1 JOSE ANTONIO RODRIGUEZ PORTH'
p22
sS'PHYS TGT TYPE'
p23
S''
sS'HUM TGT NAME'
p24
S'JOSE ANTONIO RODRIGUEZ PORTH'
p25
sS'INCIDENT TYPE'
p26
S'ATTACK'
p27
sS'PHYS TGT NUMBER'
p28
S''
sS'PERP INDIVIDUAL ID'
p29
S'REBELS'
p30
sS'INCIDENT STAGE OF EXECUTION'
p31
S'ACCOMPLISHED'
p32
sS'HUM TGT DESCRIPTION'
p33
S'DR MINISTER JOSE ANTONIO RODRIGUEZ PORTH'
p34
sS'PHYS TGT EFFECT OF INCIDENT'
p35
S''
sS'HUM TGT FOREIGN NATION'
p36
S''
sS'INCIDENT DATE'
p37
S'09 JUN 89'
p38
sS'MESSAGE TEMPLATE'
p39
S'1'
sS'PHYS TGT TOTAL NUMBER'
p40
S''
ssS'TST1-MUC3-0058'
p41
(dp42
S'PERP ORGANIZATION CONFIDENCE'
p43
S''
sS'HUM TGT EFFECT OF INCIDENT'
p44
S''
sS'INCIDENT LOCATION'
p45
S''
sS'PHYS TGT ID'
p46
S''
sS'PERP INCIDENT CATEGORY'
p47
S''
sS'PERP ORGANIZATION ID'
p48
S''
sS'HUM TGT TYPE'
p49
S''
sS'HUM TGT TOTAL NUMBER'
p50
S''
sS'INCIDENT INSTRUMENT ID'
p51
S''
sS'INCIDENT INSTRUMENT TYPE'
p52
S''
sS'PHYS TGT FOREIGN NATION'
p53
S''
sS'HUM TGT NUMBER'
p54
S''
sS'PHYS TGT TYPE'
p55
S''
sS'HUM TGT NAME'
p56
S''
sS'INCIDENT TYPE'
p57
S''
sS'PHYS TGT NUMBER'
p58
S''
sS'PERP INDIVIDUAL ID'
p59
S''
sS'INCIDENT STAGE OF EXECUTION'
p60
S''
sS'HUM TGT DESCRIPTION'
p61
S''
sS'PHYS TGT EFFECT OF INCIDENT'
p62
S''
sS'HUM TGT FOREIGN NATION'
p63
S''
sS'INCIDENT DATE'
p64
S''
sS'MESSAGE TEMPLATE'
p65
S''
sS'PHYS TGT TOTAL NUMBER'
p66
S''
ssS'TST1-MUC3-0055'
p67
(dp68
S'PERP ORGANIZATION CONFIDENCE'
p69
S''
sS'HUM TGT EFFECT OF INCIDENT'
p70
S''
sS'INCIDENT LOCATION'
p71
S''
sS'PHYS TGT ID'
p72
S''
sS'PERP INCIDENT CATEGORY'
p73
S''
sS'PERP ORGANIZATION ID'
p74
S''
sS'HUM TGT TYPE'
p75
S''
sS'HUM TGT TOTAL NUMBER'
p76
S''
sS'INCIDENT INSTRUMENT ID'
p77
S''
sS'INCIDENT INSTRUMENT TYPE'
p78
S''
sS'PHYS TGT FOREIGN NATION'
p79
S''
sS'HUM TGT NUMBER'
p80
S''
sS'PHYS TGT TYPE'
p81
S''
sS'HUM TGT NAME'
p82
S''
sS'INCIDENT TYPE'
p83
S''
sS'PHYS TGT NUMBER'
p84
S''
sS'PERP INDIVIDUAL ID'
p85
S''
sS'INCIDENT STAGE OF EXECUTION'
p86
S''
sS'HUM TGT DESCRIPTION'
p87
S''
sS'PHYS TGT EFFECT OF INCIDENT'
p88
S''
sS'HUM TGT FOREIGN NATION'
p89
S''
sS'INCIDENT DATE'
p90
S''
sS'MESSAGE TEMPLATE'
p91
S''
sS'PHYS TGT TOTAL NUMBER'
p92
S''
ssS'TST1-MUC3-0054'
p93
(dp94
S'PERP ORGANIZATION CONFIDENCE'
p95
S''
sS'HUM TGT EFFECT OF INCIDENT'
p96
S''
sS'INCIDENT LOCATION'
p97
S''
sS'PHYS TGT ID'
p98
S''
sS'PERP INCIDENT CATEGORY'
p99
S''
sS'PERP ORGANIZATION ID'
p100
S''
sS'HUM TGT TYPE'
p101
S''
sS'HUM TGT TOTAL NUMBER'
p102
S''
sS'INCIDENT INSTRUMENT ID'
p103
S''
sS'INCIDENT INSTRUMENT TYPE'
p104
S''
sS'PHYS TGT FOREIGN NATION'
p105
S''
sS'HUM TGT NUMBER'
p106
S''
sS'PHYS TGT TYPE'
p107
S''
sS'HUM TGT NAME'
p108
S''
sS'INCIDENT TYPE'
p109
S''
sS'PHYS TGT NUMBER'
p110
S''
sS'PERP INDIVIDUAL ID'
p111
S''
sS'INCIDENT STAGE OF EXECUTION'
p112
S''
sS'HUM TGT DESCRIPTION'
p113
S''
sS'PHYS TGT EFFECT OF INCIDENT'
p114
S''
sS'HUM TGT FOREIGN NATION'
p115
S''
sS'INCIDENT DATE'
p116
S''
sS'MESSAGE TEMPLATE'
p117
S''
sS'PHYS TGT TOTAL NUMBER'
p118
S''
ssS'TST1-MUC3-0057'
p119
(dp120
S'PERP ORGANIZATION CONFIDENCE'
p121
S''
sS'HUM TGT EFFECT OF INCIDENT'
p122
S''
sS'INCIDENT LOCATION'
p123
S''
sS'PHYS TGT ID'
p124
S''
sS'PERP INCIDENT CATEGORY'
p125
S''
sS'PERP ORGANIZATION ID'
p126
S''
sS'HUM TGT TYPE'
p127
S''
sS'HUM TGT TOTAL NUMBER'
p128
S''
sS'INCIDENT INSTRUMENT ID'
p129
S''
sS'INCIDENT INSTRUMENT TYPE'
p130
S''
sS'PHYS TGT FOREIGN NATION'
p131
S''
sS'HUM TGT NUMBER'
p132
S''
sS'PHYS TGT TYPE'
p133
S''
sS'HUM TGT NAME'
p134
S''
sS'INCIDENT TYPE'
p135
S''
sS'PHYS TGT NUMBER'
p136
S''
sS'PERP INDIVIDUAL ID'
p137
S''
sS'INCIDENT STAGE OF EXECUTION'
p138
S''
sS'HUM TGT DESCRIPTION'
p139
S''
sS'PHYS TGT EFFECT OF INCIDENT'
p140
S''
sS'HUM TGT FOREIGN NATION'
p141
S''
sS'INCIDENT DATE'
p142
S''
sS'MESSAGE TEMPLATE'
p143
S''
sS'PHYS TGT TOTAL NUMBER'
p144
S''
ssS'TST1-MUC3-0056'
p145
(dp146
S'PERP ORGANIZATION CONFIDENCE'
p147
S''
sS'HUM TGT EFFECT OF INCIDENT'
p148
S'NO INJURY OR DEATH SHERATON HOTELS SECURITY CORPS SECURITY CORPS'
p149
sS'INCIDENT LOCATION'
p150
S'EL SALVADOR'
p151
sS'PHYS TGT ID'
p152
S'PRESIDENTIAL RESIDENCE'
p153
sS'PERP INCIDENT CATEGORY'
p154
S''
sS'PERP ORGANIZATION ID'
p155
S''
sS'HUM TGT TYPE'
p156
S'SECURITY GUARD SHERATON HOTELS SECURITY CORPS SECURITY CORPS'
p157
sS'HUM TGT TOTAL NUMBER'
p158
S''
sS'INCIDENT INSTRUMENT ID'
p159
S''
sS'INCIDENT INSTRUMENT TYPE'
p160
S''
sS'PHYS TGT FOREIGN NATION'
p161
S''
sS'HUM TGT NUMBER'
p162
S'PLURAL SHERATON HOTELS SECURITY CORPS SECURITY CORPS'
p163
sS'PUBLIC WORKS MINISTER MAURICIO S'
p164
S'TUBIGS RESIDENCE'
p165
sS'PHYS TGT TYPE'
p166
S'GOVERNMENT OFFICE OR RESIDENCE PRESIDENTIAL RESIDENCE'
p167
sS'PHYS TGT EFFECT OF INCIDENT'
p168
S'SOME DAMAGE CENTRAL ELECTORAL COUNCIL'
p169
sS'CENTRAL ELECTORAL COUNCIL'
p170
S''
sS'INCIDENT TYPE'
p171
S'ATTACK'
p172
sS'PHYS TGT NUMBER'
p173
S'1 PRESIDENTIAL RESIDENCE'
p174
sS'SHERATON HOTEL HOTEL'
p175
S''
sS'PERP INDIVIDUAL ID'
p176
S''
sS'INCIDENT STAGE OF EXECUTION'
p177
S'ACCOMPLISHED'
p178
sS'HUM TGT DESCRIPTION'
p179
S'SHERATON HOTELS SECURITY CORPS SECURITY CORPS'
p180
sS'HUM TGT NAME'
p181
S''
sS'HUM TGT FOREIGN NATION'
p182
S''
sS'INCIDENT DATE'
p183
S'02 MAY 90'
p184
sS'MESSAGE TEMPLATE'
p185
S'3'
sS'PHYS TGT TOTAL NUMBER'
p186
S''
ssS'TST1-MUC3-0051'
p187
(dp188
S'PERP ORGANIZATION CONFIDENCE'
p189
S''
sS'HUM TGT EFFECT OF INCIDENT'
p190
S''
sS'INCIDENT LOCATION'
p191
S''
sS'PHYS TGT ID'
p192
S''
sS'PERP INCIDENT CATEGORY'
p193
S''
sS'PERP ORGANIZATION ID'
p194
S''
sS'HUM TGT TYPE'
p195
S''
sS'HUM TGT TOTAL NUMBER'
p196
S''
sS'INCIDENT INSTRUMENT ID'
p197
S''
sS'INCIDENT INSTRUMENT TYPE'
p198
S''
sS'PHYS TGT FOREIGN NATION'
p199
S''
sS'HUM TGT NUMBER'
p200
S''
sS'PHYS TGT TYPE'
p201
S''
sS'HUM TGT NAME'
p202
S''
sS'INCIDENT TYPE'
p203
S''
sS'PHYS TGT NUMBER'
p204
S''
sS'PERP INDIVIDUAL ID'
p205
S''
sS'INCIDENT STAGE OF EXECUTION'
p206
S''
sS'HUM TGT DESCRIPTION'
p207
S''
sS'PHYS TGT EFFECT OF INCIDENT'
p208
S''
sS'HUM TGT FOREIGN NATION'
p209
S''
sS'INCIDENT DATE'
p210
S''
sS'MESSAGE TEMPLATE'
p211
S''
sS'PHYS TGT TOTAL NUMBER'
p212
S''
ssS'TST1-MUC3-0050'
p213
(dp214
S'PERP ORGANIZATION CONFIDENCE'
p215
S''
sS'HUM TGT EFFECT OF INCIDENT'
p216
S'DEATH WOMEN'
p217
sS'INCIDENT LOCATION'
p218
S'EL SALVADOR'
p219
sS'PHYS TGT ID'
p220
S''
sS'PERP INCIDENT CATEGORY'
p221
S''
sS'IGNACIO ELLACURIA'
p222
S''
sS'PERP ORGANIZATION ID'
p223
S''
sS'HUM TGT TYPE'
p224
S'CIVILIAN WOMEN'
p225
sS'HUM TGT TOTAL NUMBER'
p226
S'8'
sS'INCIDENT INSTRUMENT ID'
p227
S''
sS'INCIDENT INSTRUMENT TYPE'
p228
S''
sS'PHYS TGT FOREIGN NATION'
p229
S''
sS'HUM TGT NUMBER'
p230
S'6 JESUITS'
p231
sS'PHYS TGT TYPE'
p232
S''
sS'HUM TGT NAME'
p233
S'IGNACIO ELLACURIA'
p234
sS'WOMEN'
p235
S''
sS'INCIDENT TYPE'
p236
S'ATTACK'
p237
sS'PHYS TGT NUMBER'
p238
S''
sS'PRIESTS'
p239
S''
sS'PERP INDIVIDUAL ID'
p240
S'MEN WEARING MILITARY UNIFORMS MEN'
p241
sS'INCIDENT STAGE OF EXECUTION'
p242
S'ACCOMPLISHED'
p243
sS'HUM TGT DESCRIPTION'
p244
S'JESUITS'
p245
sS'PHYS TGT EFFECT OF INCIDENT'
p246
S''
sS'HUM TGT FOREIGN NATION'
p247
S'SPAIN IGNACIO ELLACURIA'
p248
sS'INCIDENT DATE'
p249
S'16 NOV 89'
p250
sS'MESSAGE TEMPLATE'
p251
S'1'
sS'PHYS TGT TOTAL NUMBER'
p252
S''
ssS'TST1-MUC3-0053'
p253
(dp254
S'PERP ORGANIZATION CONFIDENCE'
p255
S''
sS'HUM TGT EFFECT OF INCIDENT'
p256
S'INJURY CIVILIANS'
p257
sS'INCIDENT LOCATION'
p258
S'EL SALVADOR'
p259
sS'PHYS TGT ID'
p260
S'HOUSES'
p261
sS'PERP INCIDENT CATEGORY'
p262
S''
sS'PERP ORGANIZATION ID'
p263
S''
sS'HUM TGT TYPE'
p264
S'CIVILIAN CIVILIANS'
p265
sS'HUM TGT TOTAL NUMBER'
p266
S''
sS'INCIDENT INSTRUMENT ID'
p267
S'90MM 60MM AND 81MM MORTARS MORTARS'
p268
sS'INCIDENT INSTRUMENT TYPE'
p269
S'MORTAR 90MM 60MM AND 81MM MORTARS MORTARS'
p270
sS'PHYS TGT FOREIGN NATION'
p271
S''
sS'HUM TGT NUMBER'
p272
S'PLURAL CIVILIANS'
p273
sS'PHYS TGT TYPE'
p274
S'CIVILIAN RESIDENCE HOUSES'
p275
sS'HUM TGT NAME'
p276
S''
sS'INCIDENT TYPE'
p277
S'ATTACK'
p278
sS'PHYS TGT NUMBER'
p279
S'PLURAL HOUSES'
p280
sS'PERP INDIVIDUAL ID'
p281
S'COL VARGAS'
p282
sS'INCIDENT STAGE OF EXECUTION'
p283
S'ACCOMPLISHED'
p284
sS'HUM TGT DESCRIPTION'
p285
S'CIVILIANS'
p286
sS'PHYS TGT EFFECT OF INCIDENT'
p287
S'DESTROYED HOUSES'
p288
sS'HUM TGT FOREIGN NATION'
p289
S''
sS'INCIDENT DATE'
p290
S''
sS'MESSAGE TEMPLATE'
p291
S'1'
sS'PHYS TGT TOTAL NUMBER'
p292
S''
ssS'TST1-MUC3-0052'
p293
(dp294
S'PERP ORGANIZATION CONFIDENCE'
p295
S''
sS'HUM TGT EFFECT OF INCIDENT'
p296
S''
sS'INCIDENT LOCATION'
p297
S''
sS'PHYS TGT ID'
p298
S''
sS'PERP INCIDENT CATEGORY'
p299
S''
sS'PERP ORGANIZATION ID'
p300
S''
sS'HUM TGT TYPE'
p301
S''
sS'HUM TGT TOTAL NUMBER'
p302
S''
sS'INCIDENT INSTRUMENT ID'
p303
S''
sS'INCIDENT INSTRUMENT TYPE'
p304
S''
sS'PHYS TGT FOREIGN NATION'
p305
S''
sS'HUM TGT NUMBER'
p306
S''
sS'PHYS TGT TYPE'
p307
S''
sS'HUM TGT NAME'
p308
S''
sS'INCIDENT TYPE'
p309
S''
sS'PHYS TGT NUMBER'
p310
S''
sS'PERP INDIVIDUAL ID'
p311
S''
sS'INCIDENT STAGE OF EXECUTION'
p312
S''
sS'HUM TGT DESCRIPTION'
p313
S''
sS'PHYS TGT EFFECT OF INCIDENT'
p314
S''
sS'HUM TGT FOREIGN NATION'
p315
S''
sS'INCIDENT DATE'
p316
S''
sS'MESSAGE TEMPLATE'
p317
S''
sS'PHYS TGT TOTAL NUMBER'
p318
S''
ssS'TST1-MUC3-0100'
p319
(dp320
S'PERP ORGANIZATION CONFIDENCE'
p321
S'REPORTED AS FACT SHINING PATH'
p322
sS'HUM TGT EFFECT OF INCIDENT'
p323
S''
sS'INCIDENT LOCATION'
p324
S'PERU BARRANCA TOWN'
p325
sS'PHYS TGT ID'
p326
S'RADIO STATION'
p327
sS'PERP INCIDENT CATEGORY'
p328
S'TERRORIST ACT'
p329
sS'PERP ORGANIZATION ID'
p330
S'SHINING PATH'
p331
sS'DRUGSTORE'
p332
S''
sS'HUM TGT TYPE'
p333
S''
sS'HUM TGT TOTAL NUMBER'
p334
S''
sS'INCIDENT INSTRUMENT ID'
p335
S''
sS'INCIDENT INSTRUMENT TYPE'
p336
S'BOMB'
p337
sS'PHYS TGT FOREIGN NATION'
p338
S''
sS'HUM TGT NUMBER'
p339
S''
sS'PHYS TGT TYPE'
p340
S'COMMUNICATIONS RADIO STATION'
p341
sS'PHYS TGT EFFECT OF INCIDENT'
p342
S''
sS'INCIDENT TYPE'
p343
S'BOMBING'
p344
sS'PHYS TGT NUMBER'
p345
S'1 RADIO STATION'
p346
sS'PERP INDIVIDUAL ID'
p347
S'TERRORISTS'
p348
sS'INCIDENT STAGE OF EXECUTION'
p349
S'ACCOMPLISHED'
p350
sS'HUM TGT DESCRIPTION'
p351
S''
sS'HUM TGT NAME'
p352
S''
sS'HUM TGT FOREIGN NATION'
p353
S''
sS'INCIDENT DATE'
p354
S'31 MAR 90 01 APR 90'
p355
sS'MESSAGE TEMPLATE'
p356
S'6'
sS'PHYS TGT TOTAL NUMBER'
p357
S''
ssS'TST1-MUC3-0068'
p358
(dp359
S'PERP ORGANIZATION CONFIDENCE'
p360
S''
sS'HUM TGT EFFECT OF INCIDENT'
p361
S'DEATH JESUITS'
p362
sS'INCIDENT LOCATION'
p363
S'EL SALVADOR'
p364
sS'PHYS TGT ID'
p365
S''
sS'PERP INCIDENT CATEGORY'
p366
S''
sS'PERP ORGANIZATION ID'
p367
S''
sS'HUM TGT TYPE'
p368
S'CIVILIAN JESUITS'
p369
sS'HUM TGT TOTAL NUMBER'
p370
S''
sS'INCIDENT INSTRUMENT ID'
p371
S''
sS'INCIDENT INSTRUMENT TYPE'
p372
S''
sS'PHYS TGT FOREIGN NATION'
p373
S''
sS'HUM TGT NUMBER'
p374
S'PLURAL JESUITS'
p375
sS'PHYS TGT TYPE'
p376
S''
sS'HUM TGT NAME'
p377
S''
sS'INCIDENT TYPE'
p378
S'ATTACK'
p379
sS'PHYS TGT NUMBER'
p380
S''
sS'PERP INDIVIDUAL ID'
p381
S'UNIFORMED INDIVIDUALS'
p382
sS'INCIDENT STAGE OF EXECUTION'
p383
S'ACCOMPLISHED'
p384
sS'HUM TGT DESCRIPTION'
p385
S'JESUITS'
p386
sS'PHYS TGT EFFECT OF INCIDENT'
p387
S''
sS'HUM TGT FOREIGN NATION'
p388
S'SPAIN JESUITS'
p389
sS'INCIDENT DATE'
p390
S'17 NOV 89'
p391
sS'MESSAGE TEMPLATE'
p392
S'1'
sS'PHYS TGT TOTAL NUMBER'
p393
S''
ssS'TST1-MUC3-0069'
p394
(dp395
S'PERP ORGANIZATION CONFIDENCE'
p396
S'SUSPECTED OR ACCUSED BY AUTHORITIES ARMED FORCES'
p397
sS'HUM TGT EFFECT OF INCIDENT'
p398
S'DEATH JOSE IGNACIO ELLACURIA'
p399
sS'JOSE IGNACIO ELLACURIA'
p400
S''
sS'INCIDENT LOCATION'
p401
S'EL SALVADOR'
p402
sS'PHYS TGT ID'
p403
S''
sS'PERP INCIDENT CATEGORY'
p404
S'STATESPONSORED VIOLENCE'
p405
sS'PERP ORGANIZATION ID'
p406
S'ARMED FORCES'
p407
sS'HUM TGT TYPE'
p408
S'CIVILIAN JOSE IGNACIO ELLACURIA'
p409
sS'HUM TGT TOTAL NUMBER'
p410
S''
sS'INCIDENT INSTRUMENT ID'
p411
S''
sS'INCIDENT INSTRUMENT TYPE'
p412
S''
sS'DAUGHTER'
p413
S''
sS'PHYS TGT FOREIGN NATION'
p414
S''
sS'HUM TGT NUMBER'
p415
S'6 CLERGYMEN'
p416
sS'PHYS TGT TYPE'
p417
S''
sS'HUM TGT NAME'
p418
S'JOSE IGNACIO ELLACURIA'
p419
sS'INCIDENT TYPE'
p420
S'ATTACK'
p421
sS'PHYS TGT NUMBER'
p422
S''
sS'PERP INDIVIDUAL ID'
p423
S'45 SOLDIERS SOLDIERS'
p424
sS'INCIDENT STAGE OF EXECUTION'
p425
S'ACCOMPLISHED'
p426
sS'HUM TGT DESCRIPTION'
p427
S'CLERGYMEN'
p428
sS'PHYS TGT EFFECT OF INCIDENT'
p429
S''
sS'HUM TGT FOREIGN NATION'
p430
S''
sS'MAID'
p431
S''
sS'INCIDENT DATE'
p432
S'16 NOV 89'
p433
sS'MESSAGE TEMPLATE'
p434
S'1'
sS'PHYS TGT TOTAL NUMBER'
p435
S''
ssS'TST1-MUC3-0060'
p436
(dp437
S'PERP ORGANIZATION CONFIDENCE'
p438
S''
sS'HUM TGT EFFECT OF INCIDENT'
p439
S''
sS'INCIDENT LOCATION'
p440
S''
sS'PHYS TGT ID'
p441
S''
sS'PERP INCIDENT CATEGORY'
p442
S''
sS'PERP ORGANIZATION ID'
p443
S''
sS'HUM TGT TYPE'
p444
S''
sS'HUM TGT TOTAL NUMBER'
p445
S''
sS'INCIDENT INSTRUMENT ID'
p446
S''
sS'INCIDENT INSTRUMENT TYPE'
p447
S''
sS'PHYS TGT FOREIGN NATION'
p448
S''
sS'HUM TGT NUMBER'
p449
S''
sS'PHYS TGT TYPE'
p450
S''
sS'HUM TGT NAME'
p451
S''
sS'INCIDENT TYPE'
p452
S''
sS'PHYS TGT NUMBER'
p453
S''
sS'PERP INDIVIDUAL ID'
p454
S''
sS'INCIDENT STAGE OF EXECUTION'
p455
S''
sS'HUM TGT DESCRIPTION'
p456
S''
sS'PHYS TGT EFFECT OF INCIDENT'
p457
S''
sS'HUM TGT FOREIGN NATION'
p458
S''
sS'INCIDENT DATE'
p459
S''
sS'MESSAGE TEMPLATE'
p460
S''
sS'PHYS TGT TOTAL NUMBER'
p461
S''
ssS'TST1-MUC3-0061'
p462
(dp463
S'PERP ORGANIZATION CONFIDENCE'
p464
S'SUSPECTED OR ACCUSED BY AUTHORITIES MEDELLIN CARTEL'
p465
sS'HUM TGT EFFECT OF INCIDENT'
p466
S'DEATH JAIME PARDO LEAL'
p467
sS'INCIDENT LOCATION'
p468
S'COLOMBIA'
p469
sS'PHYS TGT ID'
p470
S''
sS'PERP INCIDENT CATEGORY'
p471
S'TERRORIST ACT'
p472
sS'PERP ORGANIZATION ID'
p473
S'MEDELLIN CARTEL'
p474
sS'HUM TGT TYPE'
p475
S'POLITICAL FIGURE JAIME PARDO LEAL'
p476
sS'HUM TGT TOTAL NUMBER'
p477
S''
sS'INCIDENT INSTRUMENT ID'
p478
S''
sS'INCIDENT INSTRUMENT TYPE'
p479
S''
sS'PHYS TGT FOREIGN NATION'
p480
S''
sS'HUM TGT NUMBER'
p481
S'1 JAIME PARDO LEAL'
p482
sS'PHYS TGT TYPE'
p483
S''
sS'HUM TGT NAME'
p484
S'JAIME PARDO LEAL'
p485
sS'INCIDENT TYPE'
p486
S'ATTACK'
p487
sS'PHYS TGT NUMBER'
p488
S''
sS'PERP INDIVIDUAL ID'
p489
S'GONZALO RODRIGUEZ GACHA GONZALO RODRIGUEZ GACHA ALIAS THE MEXICAN'
p490
sS'INCIDENT STAGE OF EXECUTION'
p491
S'ACCOMPLISHED'
p492
sS'HUM TGT DESCRIPTION'
p493
S'FOUNDER AND FIRST PRESIDENT OF UP JAIME PARDO LEAL'
p494
sS'PHYS TGT EFFECT OF INCIDENT'
p495
S''
sS'HUM TGT FOREIGN NATION'
p496
S''
sS'INCIDENT DATE'
p497
S'11 OCT 87'
p498
sS'MESSAGE TEMPLATE'
p499
S'1 OPTIONAL'
p500
sS'PHYS TGT TOTAL NUMBER'
p501
S''
ssS'TST1-MUC3-0062'
p502
(dp503
S'PERP ORGANIZATION CONFIDENCE'
p504
S'REPORTED AS FACT ARMY OF NATIONAL LIBERATION ELN'
p505
sS'HUM TGT EFFECT OF INCIDENT'
p506
S''
sS'INCIDENT LOCATION'
p507
S'COLOMBIA'
p508
sS'PHYS TGT ID'
p509
S'OIL INSTALLATIONS'
p510
sS'PERP INCIDENT CATEGORY'
p511
S'TERRORIST ACT'
p512
sS'PERP ORGANIZATION ID'
p513
S'ARMY OF NATIONAL LIBERATION ELN'
p514
sS'HUM TGT TYPE'
p515
S''
sS'HUM TGT TOTAL NUMBER'
p516
S''
sS'INCIDENT INSTRUMENT ID'
p517
S'DYNAMITE DYNAMITE ATTACKS SEVERAL DYNAMITE ATTACKS'
p518
sS'INCIDENT INSTRUMENT TYPE'
p519
S'DYNAMITE DYNAMITE DYNAMITE ATTACKS SEVERAL DYNAMITE ATTACKS'
p520
sS'PHYS TGT FOREIGN NATION'
p521
S''
sS'HUM TGT NUMBER'
p522
S''
sS'PHYS TGT TYPE'
p523
S'ENERGY OIL INSTALLATIONS'
p524
sS'HUM TGT NAME'
p525
S''
sS'INCIDENT TYPE'
p526
S'BOMBING'
p527
sS'PHYS TGT NUMBER'
p528
S'PLURAL OIL INSTALLATIONS'
p529
sS'PERP INDIVIDUAL ID'
p530
S''
sS'INCIDENT STAGE OF EXECUTION'
p531
S'ACCOMPLISHED'
p532
sS'HUM TGT DESCRIPTION'
p533
S''
sS'PHYS TGT EFFECT OF INCIDENT'
p534
S''
sS'HUM TGT FOREIGN NATION'
p535
S''
sS'INCIDENT DATE'
p536
S'01 FEB 89'
p537
sS'MESSAGE TEMPLATE'
p538
S'1 OPTIONAL'
p539
sS'PHYS TGT TOTAL NUMBER'
p540
S''
ssS'TST1-MUC3-0063'
p541
(dp542
S'PERP ORGANIZATION CONFIDENCE'
p543
S''
sS'HUM TGT EFFECT OF INCIDENT'
p544
S''
sS'INCIDENT LOCATION'
p545
S''
sS'PHYS TGT ID'
p546
S''
sS'PERP INCIDENT CATEGORY'
p547
S''
sS'PERP ORGANIZATION ID'
p548
S''
sS'HUM TGT TYPE'
p549
S''
sS'HUM TGT TOTAL NUMBER'
p550
S''
sS'INCIDENT INSTRUMENT ID'
p551
S''
sS'INCIDENT INSTRUMENT TYPE'
p552
S''
sS'PHYS TGT FOREIGN NATION'
p553
S''
sS'HUM TGT NUMBER'
p554
S''
sS'PHYS TGT TYPE'
p555
S''
sS'HUM TGT NAME'
p556
S''
sS'INCIDENT TYPE'
p557
S''
sS'PHYS TGT NUMBER'
p558
S''
sS'PERP INDIVIDUAL ID'
p559
S''
sS'INCIDENT STAGE OF EXECUTION'
p560
S''
sS'HUM TGT DESCRIPTION'
p561
S''
sS'PHYS TGT EFFECT OF INCIDENT'
p562
S''
sS'HUM TGT FOREIGN NATION'
p563
S''
sS'INCIDENT DATE'
p564
S''
sS'MESSAGE TEMPLATE'
p565
S''
sS'PHYS TGT TOTAL NUMBER'
p566
S''
ssS'TST1-MUC3-0064'
p567
(dp568
S'PERP ORGANIZATION CONFIDENCE'
p569
S''
sS'HUM TGT EFFECT OF INCIDENT'
p570
S''
sS'INCIDENT LOCATION'
p571
S''
sS'PHYS TGT ID'
p572
S''
sS'PERP INCIDENT CATEGORY'
p573
S''
sS'PERP ORGANIZATION ID'
p574
S''
sS'HUM TGT TYPE'
p575
S''
sS'HUM TGT TOTAL NUMBER'
p576
S''
sS'INCIDENT INSTRUMENT ID'
p577
S''
sS'INCIDENT INSTRUMENT TYPE'
p578
S''
sS'PHYS TGT FOREIGN NATION'
p579
S''
sS'HUM TGT NUMBER'
p580
S''
sS'PHYS TGT TYPE'
p581
S''
sS'HUM TGT NAME'
p582
S''
sS'INCIDENT TYPE'
p583
S''
sS'PHYS TGT NUMBER'
p584
S''
sS'PERP INDIVIDUAL ID'
p585
S''
sS'INCIDENT STAGE OF EXECUTION'
p586
S''
sS'HUM TGT DESCRIPTION'
p587
S''
sS'PHYS TGT EFFECT OF INCIDENT'
p588
S''
sS'HUM TGT FOREIGN NATION'
p589
S''
sS'INCIDENT DATE'
p590
S''
sS'MESSAGE TEMPLATE'
p591
S''
sS'PHYS TGT TOTAL NUMBER'
p592
S''
ssS'TST1-MUC3-0065'
p593
(dp594
S'PERP ORGANIZATION CONFIDENCE'
p595
S''
sS'HUM TGT EFFECT OF INCIDENT'
p596
S''
sS'INCIDENT LOCATION'
p597
S'COLOMBIA MEDELLIN CITY'
p598
sS'PHYS TGT ID'
p599
S''
sS'PERP INCIDENT CATEGORY'
p600
S''
sS'PERP ORGANIZATION ID'
p601
S''
sS'HUM TGT TYPE'
p602
S'CIVILIAN FRANCISCO PUJA'
p603
sS'HUM TGT TOTAL NUMBER'
p604
S''
sS'INCIDENT INSTRUMENT ID'
p605
S''
sS'INCIDENT INSTRUMENT TYPE'
p606
S''
sS'PHYS TGT FOREIGN NATION'
p607
S''
sS'HUM TGT NUMBER'
p608
S'1 ROBERTO ROASCIO'
p609
sS'PHYS TGT TYPE'
p610
S''
sS'HUM TGT NAME'
p611
S'ROBERTO ROASCIO'
p612
sS'INCIDENT TYPE'
p613
S'KIDNAPPING'
p614
sS'PHYS TGT NUMBER'
p615
S''
sS'FRANCISCO PUJA'
p616
S''
sS'PERP INDIVIDUAL ID'
p617
S''
sS'MARIO ACCURSO'
p618
S''
sS'INCIDENT STAGE OF EXECUTION'
p619
S'ACCOMPLISHED'
p620
sS'HUM TGT DESCRIPTION'
p621
S'ENGINEERS ROBERTO ROASCIO'
p622
sS'PHYS TGT EFFECT OF INCIDENT'
p623
S''
sS'HUM TGT FOREIGN NATION'
p624
S'SPAIN FRANCISCO PUJA'
p625
sS'INCIDENT DATE'
p626
S'28 APR 89'
p627
sS'MESSAGE TEMPLATE'
p628
S'1'
sS'PHYS TGT TOTAL NUMBER'
p629
S''
ssS'TST1-MUC3-0066'
p630
(dp631
S'PERP ORGANIZATION CONFIDENCE'
p632
S''
sS'HUM TGT EFFECT OF INCIDENT'
p633
S''
sS'INCIDENT LOCATION'
p634
S''
sS'PHYS TGT ID'
p635
S''
sS'PERP INCIDENT CATEGORY'
p636
S''
sS'PERP ORGANIZATION ID'
p637
S''
sS'HUM TGT TYPE'
p638
S''
sS'HUM TGT TOTAL NUMBER'
p639
S''
sS'INCIDENT INSTRUMENT ID'
p640
S''
sS'INCIDENT INSTRUMENT TYPE'
p641
S''
sS'PHYS TGT FOREIGN NATION'
p642
S''
sS'HUM TGT NUMBER'
p643
S''
sS'PHYS TGT TYPE'
p644
S''
sS'HUM TGT NAME'
p645
S''
sS'INCIDENT TYPE'
p646
S''
sS'PHYS TGT NUMBER'
p647
S''
sS'PERP INDIVIDUAL ID'
p648
S''
sS'INCIDENT STAGE OF EXECUTION'
p649
S''
sS'HUM TGT DESCRIPTION'
p650
S''
sS'PHYS TGT EFFECT OF INCIDENT'
p651
S''
sS'HUM TGT FOREIGN NATION'
p652
S''
sS'INCIDENT DATE'
p653
S''
sS'MESSAGE TEMPLATE'
p654
S''
sS'PHYS TGT TOTAL NUMBER'
p655
S''
ssS'TST1-MUC3-0067'
p656
(dp657
S'PERP ORGANIZATION CONFIDENCE'
p658
S''
sS'HUM TGT EFFECT OF INCIDENT'
p659
S''
sS'INCIDENT LOCATION'
p660
S''
sS'PHYS TGT ID'
p661
S''
sS'PERP INCIDENT CATEGORY'
p662
S''
sS'PERP ORGANIZATION ID'
p663
S''
sS'HUM TGT TYPE'
p664
S''
sS'HUM TGT TOTAL NUMBER'
p665
S''
sS'INCIDENT INSTRUMENT ID'
p666
S''
sS'INCIDENT INSTRUMENT TYPE'
p667
S''
sS'PHYS TGT FOREIGN NATION'
p668
S''
sS'HUM TGT NUMBER'
p669
S''
sS'PHYS TGT TYPE'
p670
S''
sS'HUM TGT NAME'
p671
S''
sS'INCIDENT TYPE'
p672
S''
sS'PHYS TGT NUMBER'
p673
S''
sS'PERP INDIVIDUAL ID'
p674
S''
sS'INCIDENT STAGE OF EXECUTION'
p675
S''
sS'HUM TGT DESCRIPTION'
p676
S''
sS'PHYS TGT EFFECT OF INCIDENT'
p677
S''
sS'HUM TGT FOREIGN NATION'
p678
S''
sS'INCIDENT DATE'
p679
S''
sS'MESSAGE TEMPLATE'
p680
S''
sS'PHYS TGT TOTAL NUMBER'
p681
S''
ssS'TST1-MUC3-0077'
p682
(dp683
S'PERP ORGANIZATION CONFIDENCE'
p684
S''
sS'HUM TGT EFFECT OF INCIDENT'
p685
S''
sS'INCIDENT LOCATION'
p686
S''
sS'PHYS TGT ID'
p687
S''
sS'PERP INCIDENT CATEGORY'
p688
S''
sS'PERP ORGANIZATION ID'
p689
S''
sS'HUM TGT TYPE'
p690
S''
sS'HUM TGT TOTAL NUMBER'
p691
S''
sS'INCIDENT INSTRUMENT ID'
p692
S''
sS'INCIDENT INSTRUMENT TYPE'
p693
S''
sS'PHYS TGT FOREIGN NATION'
p694
S''
sS'HUM TGT NUMBER'
p695
S''
sS'PHYS TGT TYPE'
p696
S''
sS'HUM TGT NAME'
p697
S''
sS'INCIDENT TYPE'
p698
S''
sS'PHYS TGT NUMBER'
p699
S''
sS'PERP INDIVIDUAL ID'
p700
S''
sS'INCIDENT STAGE OF EXECUTION'
p701
S''
sS'HUM TGT DESCRIPTION'
p702
S''
sS'PHYS TGT EFFECT OF INCIDENT'
p703
S''
sS'HUM TGT FOREIGN NATION'
p704
S''
sS'INCIDENT DATE'
p705
S''
sS'MESSAGE TEMPLATE'
p706
S''
sS'PHYS TGT TOTAL NUMBER'
p707
S''
ssS'TST1-MUC3-0076'
p708
(dp709
S'PERP ORGANIZATION CONFIDENCE'
p710
S''
sS'HUM TGT EFFECT OF INCIDENT'
p711
S'DEATH ANGELA PIEDAD DE GUERRERO'
p712
sS'INCIDENT LOCATION'
p713
S'COLOMBIA BOGOTA CITY'
p714
sS'PHYS TGT ID'
p715
S''
sS'PERP INCIDENT CATEGORY'
p716
S''
sS'PERP ORGANIZATION ID'
p717
S''
sS'HUM TGT TYPE'
p718
S'CIVILIAN ANGELA PIEDAD DE GUERRERO'
p719
sS'HUM TGT TOTAL NUMBER'
p720
S''
sS'INCIDENT INSTRUMENT ID'
p721
S''
sS'INCIDENT INSTRUMENT TYPE'
p722
S'GUN'
p723
sS'PHYS TGT FOREIGN NATION'
p724
S''
sS'HUM TGT NUMBER'
p725
S'1 ANGELA PIEDAD DE GUERRERO'
p726
sS'PHYS TGT TYPE'
p727
S''
sS'HUM TGT NAME'
p728
S'ANGELA PIEDAD DE GUERRERO'
p729
sS'INCIDENT TYPE'
p730
S'ATTACK'
p731
sS'PHYS TGT NUMBER'
p732
S''
sS'PERP INDIVIDUAL ID'
p733
S''
sS'INCIDENT STAGE OF EXECUTION'
p734
S'ACCOMPLISHED'
p735
sS'HUM TGT DESCRIPTION'
p736
S'ARMY COLONEL CARLOS GUERREROS WIFE ANGELA PIEDAD DE GUERRERO'
p737
sS'PHYS TGT EFFECT OF INCIDENT'
p738
S''
sS'HUM TGT FOREIGN NATION'
p739
S''
sS'INCIDENT DATE'
p740
S'05 AUG 89'
p741
sS'MESSAGE TEMPLATE'
p742
S'3'
sS'PHYS TGT TOTAL NUMBER'
p743
S''
ssS'TST1-MUC3-0075'
p744
(dp745
S'PERP ORGANIZATION CONFIDENCE'
p746
S''
sS'HUM TGT EFFECT OF INCIDENT'
p747
S''
sS'INCIDENT LOCATION'
p748
S'COLOMBIA'
p749
sS'PHYS TGT ID'
p750
S''
sS'PERP INCIDENT CATEGORY'
p751
S''
sS'PERP ORGANIZATION ID'
p752
S''
sS'HUM TGT TYPE'
p753
S'LEGAL OR JUDICIAL MARIA ELENA DIAZ PEREZ'
p754
sS'HUM TGT TOTAL NUMBER'
p755
S''
sS'INCIDENT INSTRUMENT ID'
p756
S''
sS'INCIDENT INSTRUMENT TYPE'
p757
S''
sS'PHYS TGT FOREIGN NATION'
p758
S''
sS'HUM TGT NUMBER'
p759
S'1 MARIA ELENA DIAZ PEREZ'
p760
sS'PHYS TGT TYPE'
p761
S''
sS'HUM TGT NAME'
p762
S'MARIA ELENA DIAZ PEREZ'
p763
sS'INCIDENT TYPE'
p764
S'ATTACK'
p765
sS'PHYS TGT NUMBER'
p766
S''
sS'PERP INDIVIDUAL ID'
p767
S''
sS'INCIDENT STAGE OF EXECUTION'
p768
S'THREATENED'
p769
sS'HUM TGT DESCRIPTION'
p770
S'THIRD JUDGE OF PUBLIC ORDER JUDGE MARIA ELENA DIAZ PEREZ'
p771
sS'PHYS TGT EFFECT OF INCIDENT'
p772
S''
sS'HUM TGT FOREIGN NATION'
p773
S''
sS'INCIDENT DATE'
p774
S'28 JUL 89'
p775
sS'MESSAGE TEMPLATE'
p776
S'2 OPTIONAL'
p777
sS'PHYS TGT TOTAL NUMBER'
p778
S''
ssS'TST1-MUC3-0074'
p779
(dp780
S'PERP ORGANIZATION CONFIDENCE'
p781
S''
sS'HUM TGT EFFECT OF INCIDENT'
p782
S'DEATH MARIELA ESPINOSA ARANGO'
p783
sS'INCIDENT LOCATION'
p784
S'COLOMBIA MEDELLIN CITY'
p785
sS'PHYS TGT ID'
p786
S''
sS'PERP INCIDENT CATEGORY'
p787
S''
sS'PERP ORGANIZATION ID'
p788
S''
sS'HUM TGT TYPE'
p789
S'LEGAL OR JUDICIAL MARIELA ESPINOSA ARANGO'
p790
sS'HUM TGT TOTAL NUMBER'
p791
S''
sS'INCIDENT INSTRUMENT ID'
p792
S''
sS'INCIDENT INSTRUMENT TYPE'
p793
S''
sS'PHYS TGT FOREIGN NATION'
p794
S''
sS'HUM TGT NUMBER'
p795
S'1 MARIELA ESPINOSA ARANGO'
p796
sS'PHYS TGT TYPE'
p797
S''
sS'HUM TGT NAME'
p798
S'MARIELA ESPINOSA ARANGO'
p799
sS'INCIDENT TYPE'
p800
S'ATTACK'
p801
sS'PHYS TGT NUMBER'
p802
S''
sS'PERP INDIVIDUAL ID'
p803
S''
sS'INCIDENT STAGE OF EXECUTION'
p804
S'ACCOMPLISHED'
p805
sS'HUM TGT DESCRIPTION'
p806
S'JUDGE MARIELA ESPINOSA ARANGO'
p807
sS'PHYS TGT EFFECT OF INCIDENT'
p808
S''
sS'HUM TGT FOREIGN NATION'
p809
S''
sS'INCIDENT DATE'
p810
S'01 NOV 89'
p811
sS'MESSAGE TEMPLATE'
p812
S'1'
sS'PHYS TGT TOTAL NUMBER'
p813
S''
ssS'TST1-MUC3-0073'
p814
(dp815
S'PERP ORGANIZATION CONFIDENCE'
p816
S'POSSIBLE MANUEL RODRIGUEZ PATRIOTIC FRONT FPMR'
p817
sS'HUM TGT EFFECT OF INCIDENT'
p818
S''
sS'INCIDENT LOCATION'
p819
S'CHILE TEMUCO CITY'
p820
sS'PHYS TGT ID'
p821
S'CHILEANUS CULTURAL INSTITUTES CULTURAL INSTITUTES'
p822
sS'PERP INCIDENT CATEGORY'
p823
S'TERRORIST ACT'
p824
sS'PERP ORGANIZATION ID'
p825
S'MANUEL RODRIGUEZ PATRIOTIC FRONT FPMR'
p826
sS'HUM TGT TYPE'
p827
S''
sS'HUM TGT TOTAL NUMBER'
p828
S''
sS'INCIDENT INSTRUMENT ID'
p829
S'BOMB BOMB ATTACKS'
p830
sS'INCIDENT INSTRUMENT TYPE'
p831
S'BOMB BOMB BOMB ATTACKS'
p832
sS'PHYS TGT FOREIGN NATION'
p833
S'UNITED STATES CHILEANUS CULTURAL INSTITUTES CULTURAL INSTITUTES'
p834
sS'HUM TGT NUMBER'
p835
S''
sS'PHYS TGT TYPE'
p836
S'ORGANIZATION OFFICE CHILEANUS CULTURAL INSTITUTES CULTURAL INSTITUTES'
p837
sS'HUM TGT NAME'
p838
S''
sS'INCIDENT TYPE'
p839
S'BOMBING'
p840
sS'PHYS TGT NUMBER'
p841
S'1 PLURAL CHILEANUS CULTURAL INSTITUTES CULTURAL INSTITUTES'
p842
sS'PERP INDIVIDUAL ID'
p843
S''
sS'INCIDENT STAGE OF EXECUTION'
p844
S'ACCOMPLISHED'
p845
sS'HUM TGT DESCRIPTION'
p846
S''
sS'PHYS TGT EFFECT OF INCIDENT'
p847
S''
sS'HUM TGT FOREIGN NATION'
p848
S''
sS'INCIDENT DATE'
p849
S'29 DEC 89'
p850
sS'MESSAGE TEMPLATE'
p851
S'7'
sS'PHYS TGT TOTAL NUMBER'
p852
S''
ssS'TST1-MUC3-0072'
p853
(dp854
S'PERP ORGANIZATION CONFIDENCE'
p855
S''
sS'HUM TGT EFFECT OF INCIDENT'
p856
S''
sS'INCIDENT LOCATION'
p857
S'CHILE COPIAPO CITY TALCA CITY'
p858
sS'PHYS TGT ID'
p859
S'MAIN POWERLINE POWERLINE'
p860
sS'PERP INCIDENT CATEGORY'
p861
S'TERRORIST ACT'
p862
sS'PERP ORGANIZATION ID'
p863
S''
sS'HUM TGT TYPE'
p864
S''
sS'HUM TGT TOTAL NUMBER'
p865
S''
sS'INCIDENT INSTRUMENT ID'
p866
S''
sS'INCIDENT INSTRUMENT TYPE'
p867
S''
sS'PHYS TGT FOREIGN NATION'
p868
S''
sS'HUM TGT NUMBER'
p869
S''
sS'PHYS TGT TYPE'
p870
S'ENERGY MAIN POWERLINE POWERLINE'
p871
sS'HUM TGT NAME'
p872
S''
sS'INCIDENT TYPE'
p873
S'ATTACK'
p874
sS'PHYS TGT NUMBER'
p875
S'1 MAIN POWERLINE POWERLINE'
p876
sS'PERP INDIVIDUAL ID'
p877
S'TERRORIST'
p878
sS'INCIDENT STAGE OF EXECUTION'
p879
S'ACCOMPLISHED'
p880
sS'HUM TGT DESCRIPTION'
p881
S''
sS'PHYS TGT EFFECT OF INCIDENT'
p882
S'SOME DAMAGE MAIN POWERLINE POWERLINE'
p883
sS'HUM TGT FOREIGN NATION'
p884
S''
sS'INCIDENT DATE'
p885
S'27 NOV 89'
p886
sS'MESSAGE TEMPLATE'
p887
S'1 OPTIONAL'
p888
sS'PHYS TGT TOTAL NUMBER'
p889
S''
ssS'TST1-MUC3-0071'
p890
(dp891
S'PERP ORGANIZATION CONFIDENCE'
p892
S'CLAIMED OR ADMITTED ZARATE WILKA ARMED FORCES OF LIBERATION FAL'
p893
sS'HUM TGT EFFECT OF INCIDENT'
p894
S'DEATH TODD RAY WILSON BURDENSON'
p895
sS'INCIDENT LOCATION'
p896
S'BOLIVIA LA PAZ CITY'
p897
sS'PHYS TGT ID'
p898
S''
sS'PERP INCIDENT CATEGORY'
p899
S'TERRORIST ACT'
p900
sS'PERP ORGANIZATION ID'
p901
S'ZARATE WILKA ARMED FORCES OF LIBERATION FAL'
p902
sS'HUM TGT TYPE'
p903
S'CIVILIAN TODD RAY WILSON BURDENSON'
p904
sS'HUM TGT TOTAL NUMBER'
p905
S'2'
sS'INCIDENT INSTRUMENT ID'
p906
S'MACHINEGUN MACHINEGUN FIRE TWO BURSTS OF MACHINEGUN FIRE'
p907
sS'INCIDENT INSTRUMENT TYPE'
p908
S'MACHINE GUN MACHINEGUN MACHINEGUN FIRE TWO BURSTS OF MACHINEGUN FIRE'
p909
sS'PHYS TGT FOREIGN NATION'
p910
S''
sS'JEFFREY BRENT BALL'
p911
S''
sS'HUM TGT NUMBER'
p912
S'1 TODD RAY WILSON BURDENSON'
p913
sS'PHYS TGT TYPE'
p914
S''
sS'HUM TGT NAME'
p915
S'TODD RAY WILSON BURDENSON'
p916
sS'INCIDENT TYPE'
p917
S'ATTACK'
p918
sS'PHYS TGT NUMBER'
p919
S''
sS'PERP INDIVIDUAL ID'
p920
S'GROUP OF TERRORISTS TERRORISTS'
p921
sS'INCIDENT STAGE OF EXECUTION'
p922
S'ACCOMPLISHED'
p923
sS'HUM TGT DESCRIPTION'
p924
S'MORMON MISSIONARIES MISSIONARIES OF THE CHRISTIAN CHURCH OF LATTER DAY SAINTS MISSIONARIES TODD RAY WILSON BURDENSON'
p925
sS'PHYS TGT EFFECT OF INCIDENT'
p926
S''
sS'HUM TGT FOREIGN NATION'
p927
S'UNITED STATES TODD RAY WILSON BURDENSON'
p928
sS'INCIDENT DATE'
p929
S'24 MAY 89'
p930
sS'MESSAGE TEMPLATE'
p931
S'1'
sS'PHYS TGT TOTAL NUMBER'
p932
S''
ssS'TST1-MUC3-0070'
p933
(dp934
S'PERP ORGANIZATION CONFIDENCE'
p935
S''
sS'HUM TGT EFFECT OF INCIDENT'
p936
S''
sS'INCIDENT LOCATION'
p937
S''
sS'PHYS TGT ID'
p938
S''
sS'PERP INCIDENT CATEGORY'
p939
S''
sS'PERP ORGANIZATION ID'
p940
S''
sS'HUM TGT TYPE'
p941
S''
sS'HUM TGT TOTAL NUMBER'
p942
S''
sS'INCIDENT INSTRUMENT ID'
p943
S''
sS'INCIDENT INSTRUMENT TYPE'
p944
S''
sS'PHYS TGT FOREIGN NATION'
p945
S''
sS'HUM TGT NUMBER'
p946
S''
sS'PHYS TGT TYPE'
p947
S''
sS'HUM TGT NAME'
p948
S''
sS'INCIDENT TYPE'
p949
S''
sS'PHYS TGT NUMBER'
p950
S''
sS'PERP INDIVIDUAL ID'
p951
S''
sS'INCIDENT STAGE OF EXECUTION'
p952
S''
sS'HUM TGT DESCRIPTION'
p953
S''
sS'PHYS TGT EFFECT OF INCIDENT'
p954
S''
sS'HUM TGT FOREIGN NATION'
p955
S''
sS'INCIDENT DATE'
p956
S''
sS'MESSAGE TEMPLATE'
p957
S''
sS'PHYS TGT TOTAL NUMBER'
p958
S''
ssS'TST1-MUC3-0079'
p959
(dp960
S'PERP ORGANIZATION CONFIDENCE'
p961
S''
sS'HUM TGT EFFECT OF INCIDENT'
p962
S''
sS'INCIDENT LOCATION'
p963
S''
sS'PHYS TGT ID'
p964
S''
sS'PERP INCIDENT CATEGORY'
p965
S''
sS'PERP ORGANIZATION ID'
p966
S''
sS'HUM TGT TYPE'
p967
S''
sS'HUM TGT TOTAL NUMBER'
p968
S''
sS'INCIDENT INSTRUMENT ID'
p969
S''
sS'INCIDENT INSTRUMENT TYPE'
p970
S''
sS'PHYS TGT FOREIGN NATION'
p971
S''
sS'HUM TGT NUMBER'
p972
S''
sS'PHYS TGT TYPE'
p973
S''
sS'HUM TGT NAME'
p974
S''
sS'INCIDENT TYPE'
p975
S''
sS'PHYS TGT NUMBER'
p976
S''
sS'PERP INDIVIDUAL ID'
p977
S''
sS'INCIDENT STAGE OF EXECUTION'
p978
S''
sS'HUM TGT DESCRIPTION'
p979
S''
sS'PHYS TGT EFFECT OF INCIDENT'
p980
S''
sS'HUM TGT FOREIGN NATION'
p981
S''
sS'INCIDENT DATE'
p982
S''
sS'MESSAGE TEMPLATE'
p983
S''
sS'PHYS TGT TOTAL NUMBER'
p984
S''
ssS'TST1-MUC3-0078'
p985
(dp986
S'PERP ORGANIZATION CONFIDENCE'
p987
S''
sS'HUM TGT EFFECT OF INCIDENT'
p988
S''
sS'INCIDENT LOCATION'
p989
S''
sS'PHYS TGT ID'
p990
S''
sS'PERP INCIDENT CATEGORY'
p991
S''
sS'PERP ORGANIZATION ID'
p992
S''
sS'HUM TGT TYPE'
p993
S''
sS'HUM TGT TOTAL NUMBER'
p994
S''
sS'INCIDENT INSTRUMENT ID'
p995
S''
sS'INCIDENT INSTRUMENT TYPE'
p996
S''
sS'PHYS TGT FOREIGN NATION'
p997
S''
sS'HUM TGT NUMBER'
p998
S''
sS'PHYS TGT TYPE'
p999
S''
sS'HUM TGT NAME'
p1000
S''
sS'INCIDENT TYPE'
p1001
S''
sS'PHYS TGT NUMBER'
p1002
S''
sS'PERP INDIVIDUAL ID'
p1003
S''
sS'INCIDENT STAGE OF EXECUTION'
p1004
S''
sS'HUM TGT DESCRIPTION'
p1005
S''
sS'PHYS TGT EFFECT OF INCIDENT'
p1006
S''
sS'HUM TGT FOREIGN NATION'
p1007
S''
sS'INCIDENT DATE'
p1008
S''
sS'MESSAGE TEMPLATE'
p1009
S''
sS'PHYS TGT TOTAL NUMBER'
p1010
S''
ssS'TST1-MUC3-0088'
p1011
(dp1012
S'PERP ORGANIZATION CONFIDENCE'
p1013
S''
sS'HUM TGT EFFECT OF INCIDENT'
p1014
S''
sS'INCIDENT LOCATION'
p1015
S''
sS'PHYS TGT ID'
p1016
S''
sS'PERP INCIDENT CATEGORY'
p1017
S''
sS'PERP ORGANIZATION ID'
p1018
S''
sS'HUM TGT TYPE'
p1019
S''
sS'HUM TGT TOTAL NUMBER'
p1020
S''
sS'INCIDENT INSTRUMENT ID'
p1021
S''
sS'INCIDENT INSTRUMENT TYPE'
p1022
S''
sS'PHYS TGT FOREIGN NATION'
p1023
S''
sS'HUM TGT NUMBER'
p1024
S''
sS'PHYS TGT TYPE'
p1025
S''
sS'HUM TGT NAME'
p1026
S''
sS'INCIDENT TYPE'
p1027
S''
sS'PHYS TGT NUMBER'
p1028
S''
sS'PERP INDIVIDUAL ID'
p1029
S''
sS'INCIDENT STAGE OF EXECUTION'
p1030
S''
sS'HUM TGT DESCRIPTION'
p1031
S''
sS'PHYS TGT EFFECT OF INCIDENT'
p1032
S''
sS'HUM TGT FOREIGN NATION'
p1033
S''
sS'INCIDENT DATE'
p1034
S''
sS'MESSAGE TEMPLATE'
p1035
S''
sS'PHYS TGT TOTAL NUMBER'
p1036
S''
ssS'TST1-MUC3-0089'
p1037
(dp1038
S'PERP ORGANIZATION CONFIDENCE'
p1039
S'REPORTED AS FACT FMLN FARABUNDO MARTI NATIONAL LIBERATION FRONT'
p1040
sS'HUM TGT EFFECT OF INCIDENT'
p1041
S''
sS'INCIDENT LOCATION'
p1042
S'EL SALVADOR SAN MIGUEL DEPARTMENT EL TRIUNFO TOWN SAN FRANCISCO NEIGHBORHOOD'
p1043
sS'PHYS TGT ID'
p1044
S'PYLON'
p1045
sS'PERP INCIDENT CATEGORY'
p1046
S'TERRORIST ACT'
p1047
sS'PERP ORGANIZATION ID'
p1048
S'FMLN FARABUNDO MARTI NATIONAL LIBERATION FRONT'
p1049
sS'HUM TGT TYPE'
p1050
S'CIVILIAN RESIDENTS DEFENSELESS RESIDENTS'
p1051
sS'HUM TGT TOTAL NUMBER'
p1052
S''
sS'INCIDENT INSTRUMENT ID'
p1053
S''
sS'INCIDENT INSTRUMENT TYPE'
p1054
S''
sS'PHYS TGT FOREIGN NATION'
p1055
S''
sS'HUM TGT NUMBER'
p1056
S'PLURAL RESIDENTS DEFENSELESS RESIDENTS'
p1057
sS'PHYS TGT TYPE'
p1058
S'ENERGY OTHER PYLON'
p1059
sS'HUM TGT NAME'
p1060
S''
sS'INCIDENT TYPE'
p1061
S'ATTACK'
p1062
sS'PHYS TGT NUMBER'
p1063
S'1 PYLON'
p1064
sS'PERP INDIVIDUAL ID'
p1065
S'TERRORISTS REBELS UNKNOWN NUMBER OF FMLN TERRORISTS'
p1066
sS'INCIDENT STAGE OF EXECUTION'
p1067
S'ACCOMPLISHED'
p1068
sS'HUM TGT DESCRIPTION'
p1069
S'RESIDENTS DEFENSELESS RESIDENTS'
p1070
sS'PHYS TGT EFFECT OF INCIDENT'
p1071
S'DESTROYED PYLON'
p1072
sS'HUM TGT FOREIGN NATION'
p1073
S''
sS'INCIDENT DATE'
p1074
S'09 DEC 89'
p1075
sS'MESSAGE TEMPLATE'
p1076
S'4'
sS'PHYS TGT TOTAL NUMBER'
p1077
S''
ssS'TST1-MUC3-0082'
p1078
(dp1079
S'PERP ORGANIZATION CONFIDENCE'
p1080
S'SUSPECTED OR ACCUSED FMLN'
p1081
sS'HUM TGT EFFECT OF INCIDENT'
p1082
S'DEATH ERNESTO'
p1083
sS'INCIDENT LOCATION'
p1084
S'EL SALVADOR MORAZAN DEPARTMENT PERQUIN CITY JURISDICTION'
p1085
sS'PHYS TGT ID'
p1086
S''
sS'PERP INCIDENT CATEGORY'
p1087
S'TERRORIST ACT'
p1088
sS'PERP ORGANIZATION ID'
p1089
S'FMLN'
p1090
sS'HUM TGT TYPE'
p1091
S'CIVILIAN ERNESTO'
p1092
sS'HUM TGT TOTAL NUMBER'
p1093
S'2'
sS'INCIDENT INSTRUMENT ID'
p1094
S'MINE EXPLOSIVE DEVICE'
p1095
sS'INCIDENT INSTRUMENT TYPE'
p1096
S'MINE EXPLOSIVE MINE EXPLOSIVE DEVICE'
p1097
sS'PHYS TGT FOREIGN NATION'
p1098
S''
sS'HUM TGT NUMBER'
p1099
S'1 ERNESTO'
p1100
sS'PHYS TGT TYPE'
p1101
S''
sS'HUM TGT NAME'
p1102
S'ERNESTO'
p1103
sS'INCIDENT TYPE'
p1104
S'BOMBING'
p1105
sS'PHYS TGT NUMBER'
p1106
S''
sS'PERP INDIVIDUAL ID'
p1107
S''
sS'INCIDENT STAGE OF EXECUTION'
p1108
S'ACCOMPLISHED'
p1109
sS'HUM TGT DESCRIPTION'
p1110
S'ERNESTO'
p1111
sS'ROSA FERNANDEZ'
p1112
S''
sS'PHYS TGT EFFECT OF INCIDENT'
p1113
S''
sS'HUM TGT FOREIGN NATION'
p1114
S''
sS'INCIDENT DATE'
p1115
S'28 MAR 89'
p1116
sS'MESSAGE TEMPLATE'
p1117
S'1 OPTIONAL'
p1118
sS'PHYS TGT TOTAL NUMBER'
p1119
S''
ssS'TST1-MUC3-0083'
p1120
(dp1121
S'PERP ORGANIZATION CONFIDENCE'
p1122
S''
sS'HUM TGT EFFECT OF INCIDENT'
p1123
S''
sS'INCIDENT LOCATION'
p1124
S'EL SALVADOR'
p1125
sS'PHYS TGT ID'
p1126
S''
sS'PERP INCIDENT CATEGORY'
p1127
S''
sS'PERP ORGANIZATION ID'
p1128
S''
sS'HUM TGT TYPE'
p1129
S'CIVILIAN BUSINESSMEN'
p1130
sS'HUM TGT TOTAL NUMBER'
p1131
S''
sS'INCIDENT INSTRUMENT ID'
p1132
S''
sS'INCIDENT INSTRUMENT TYPE'
p1133
S''
sS'PHYS TGT FOREIGN NATION'
p1134
S''
sS'HUM TGT NUMBER'
p1135
S'PLURAL BUSINESSMEN'
p1136
sS'PHYS TGT TYPE'
p1137
S''
sS'HUM TGT NAME'
p1138
S''
sS'INCIDENT TYPE'
p1139
S'KIDNAPPING'
p1140
sS'PHYS TGT NUMBER'
p1141
S''
sS'PERP INDIVIDUAL ID'
p1142
S'CIVILIANS'
p1143
sS'INCIDENT STAGE OF EXECUTION'
p1144
S'ACCOMPLISHED'
p1145
sS'HUM TGT DESCRIPTION'
p1146
S'BUSINESSMEN'
p1147
sS'PHYS TGT EFFECT OF INCIDENT'
p1148
S''
sS'HUM TGT FOREIGN NATION'
p1149
S''
sS'INCIDENT DATE'
p1150
S'26 APR 89'
p1151
sS'MESSAGE TEMPLATE'
p1152
S'2'
sS'PHYS TGT TOTAL NUMBER'
p1153
S''
ssS'TST1-MUC3-0080'
p1154
(dp1155
S'PERP ORGANIZATION CONFIDENCE'
p1156
S'CLAIMED OR ADMITTED THE EXTRADITABLES EXTRADITABLES'
p1157
sS'HUM TGT EFFECT OF INCIDENT'
p1158
S''
sS'INCIDENT LOCATION'
p1159
S'COLOMBIA MEDELLIN CITY'
p1160
sS'PHYS TGT ID'
p1161
S''
sS'PERP INCIDENT CATEGORY'
p1162
S'TERRORIST ACT'
p1163
sS'PERP ORGANIZATION ID'
p1164
S'THE EXTRADITABLES EXTRADITABLES'
p1165
sS'HUM TGT TYPE'
p1166
S'GOVERNMENT OFFICIAL POLITICAL FIGURE FEDERICO ESTRADA VELEZ'
p1167
sS'HUM TGT TOTAL NUMBER'
p1168
S''
sS'INCIDENT INSTRUMENT ID'
p1169
S''
sS'INCIDENT INSTRUMENT TYPE'
p1170
S''
sS'PHYS TGT FOREIGN NATION'
p1171
S''
sS'HUM TGT NUMBER'
p1172
S'1 FEDERICO ESTRADA VELEZ'
p1173
sS'PHYS TGT TYPE'
p1174
S''
sS'HUM TGT NAME'
p1175
S'FEDERICO ESTRADA VELEZ'
p1176
sS'INCIDENT TYPE'
p1177
S'KIDNAPPING'
p1178
sS'PHYS TGT NUMBER'
p1179
S''
sS'PERP INDIVIDUAL ID'
p1180
S'THREE HEAVILY ARMED MEN'
p1181
sS'INCIDENT STAGE OF EXECUTION'
p1182
S'ACCOMPLISHED'
p1183
sS'HUM TGT DESCRIPTION'
p1184
S'LIBERAL SENATOR ANTIOQUIA DEPARTMENT LIBERAL PARTY LEADER SENATOR LIBERAL PARTY LEADER PARTY LEADER FEDERICO ESTRADA VELEZ'
p1185
sS'PHYS TGT EFFECT OF INCIDENT'
p1186
S''
sS'HUM TGT FOREIGN NATION'
p1187
S''
sS'INCIDENT DATE'
p1188
S'03 APR 90'
p1189
sS'MESSAGE TEMPLATE'
p1190
S'1'
sS'PHYS TGT TOTAL NUMBER'
p1191
S''
ssS'TST1-MUC3-0081'
p1192
(dp1193
S'PERP ORGANIZATION CONFIDENCE'
p1194
S'REPORTED AS FACT THE EXTRADITABLES EXTRADITABLES'
p1195
sS'HUM TGT EFFECT OF INCIDENT'
p1196
S'REGAINED FREEDOM PATRICIA'
p1197
sS'INCIDENT LOCATION'
p1198
S'COLOMBIA MEDELLIN CITY'
p1199
sS'PHYS TGT ID'
p1200
S''
sS'PERP INCIDENT CATEGORY'
p1201
S'TERRORIST ACT'
p1202
sS'PERP ORGANIZATION ID'
p1203
S'THE EXTRADITABLES EXTRADITABLES'
p1204
sS'HUM TGT TYPE'
p1205
S'CIVILIAN PATRICIA'
p1206
sS'HUM TGT TOTAL NUMBER'
p1207
S'2'
sS'INCIDENT INSTRUMENT ID'
p1208
S''
sS'INCIDENT INSTRUMENT TYPE'
p1209
S''
sS'PHYS TGT FOREIGN NATION'
p1210
S''
sS'HUM TGT NUMBER'
p1211
S'1 PATRICIA'
p1212
sS'DINA ECHAVARRIA'
p1213
S''
sS'PHYS TGT TYPE'
p1214
S''
sS'HUM TGT NAME'
p1215
S'PATRICIA'
p1216
sS'INCIDENT TYPE'
p1217
S'KIDNAPPING'
p1218
sS'PHYS TGT NUMBER'
p1219
S''
sS'PERP INDIVIDUAL ID'
p1220
S''
sS'INCIDENT STAGE OF EXECUTION'
p1221
S'ACCOMPLISHED'
p1222
sS'HUM TGT DESCRIPTION'
p1223
S''
sS'PHYS TGT EFFECT OF INCIDENT'
p1224
S''
sS'HUM TGT FOREIGN NATION'
p1225
S''
sS'INCIDENT DATE'
p1226
S'16 DEC 89'
p1227
sS'MESSAGE TEMPLATE'
p1228
S'1'
sS'PHYS TGT TOTAL NUMBER'
p1229
S''
ssS'TST1-MUC3-0086'
p1230
(dp1231
S'PERP ORGANIZATION CONFIDENCE'
p1232
S''
sS'HUM TGT EFFECT OF INCIDENT'
p1233
S''
sS'INCIDENT LOCATION'
p1234
S''
sS'PHYS TGT ID'
p1235
S''
sS'PERP INCIDENT CATEGORY'
p1236
S''
sS'PERP ORGANIZATION ID'
p1237
S''
sS'HUM TGT TYPE'
p1238
S''
sS'HUM TGT TOTAL NUMBER'
p1239
S''
sS'INCIDENT INSTRUMENT ID'
p1240
S''
sS'INCIDENT INSTRUMENT TYPE'
p1241
S''
sS'PHYS TGT FOREIGN NATION'
p1242
S''
sS'HUM TGT NUMBER'
p1243
S''
sS'PHYS TGT TYPE'
p1244
S''
sS'HUM TGT NAME'
p1245
S''
sS'INCIDENT TYPE'
p1246
S''
sS'PHYS TGT NUMBER'
p1247
S''
sS'PERP INDIVIDUAL ID'
p1248
S''
sS'INCIDENT STAGE OF EXECUTION'
p1249
S''
sS'HUM TGT DESCRIPTION'
p1250
S''
sS'PHYS TGT EFFECT OF INCIDENT'
p1251
S''
sS'HUM TGT FOREIGN NATION'
p1252
S''
sS'INCIDENT DATE'
p1253
S''
sS'MESSAGE TEMPLATE'
p1254
S''
sS'PHYS TGT TOTAL NUMBER'
p1255
S''
ssS'TST1-MUC3-0087'
p1256
(dp1257
S'PERP ORGANIZATION CONFIDENCE'
p1258
S''
sS'HUM TGT EFFECT OF INCIDENT'
p1259
S'DEATH JESUITS'
p1260
sS'INCIDENT LOCATION'
p1261
S'EL SALVADOR'
p1262
sS'PHYS TGT ID'
p1263
S''
sS'PERP INCIDENT CATEGORY'
p1264
S''
sS'PERP ORGANIZATION ID'
p1265
S''
sS'HUM TGT TYPE'
p1266
S'CIVILIAN JESUITS'
p1267
sS'HUM TGT TOTAL NUMBER'
p1268
S''
sS'INCIDENT INSTRUMENT ID'
p1269
S''
sS'INCIDENT INSTRUMENT TYPE'
p1270
S'MACHINE GUN'
p1271
sS'PHYS TGT FOREIGN NATION'
p1272
S''
sS'HUM TGT NUMBER'
p1273
S'6 JESUITS'
p1274
sS'PHYS TGT TYPE'
p1275
S''
sS'HUM TGT NAME'
p1276
S''
sS'INCIDENT TYPE'
p1277
S'ATTACK'
p1278
sS'PHYS TGT NUMBER'
p1279
S''
sS'PERP INDIVIDUAL ID'
p1280
S'MEN WEARING MILITARY UNIFORMS MEN'
p1281
sS'INCIDENT STAGE OF EXECUTION'
p1282
S'ACCOMPLISHED'
p1283
sS'HUM TGT DESCRIPTION'
p1284
S'JESUITS'
p1285
sS'PHYS TGT EFFECT OF INCIDENT'
p1286
S''
sS'HUM TGT FOREIGN NATION'
p1287
S''
sS'INCIDENT DATE'
p1288
S'15 NOV 89'
p1289
sS'MESSAGE TEMPLATE'
p1290
S'2'
sS'PHYS TGT TOTAL NUMBER'
p1291
S''
ssS'TST1-MUC3-0084'
p1292
(dp1293
S'PERP ORGANIZATION CONFIDENCE'
p1294
S''
sS'HUM TGT EFFECT OF INCIDENT'
p1295
S''
sS'INCIDENT LOCATION'
p1296
S''
sS'PHYS TGT ID'
p1297
S''
sS'PERP INCIDENT CATEGORY'
p1298
S''
sS'PERP ORGANIZATION ID'
p1299
S''
sS'HUM TGT TYPE'
p1300
S''
sS'HUM TGT TOTAL NUMBER'
p1301
S''
sS'INCIDENT INSTRUMENT ID'
p1302
S''
sS'INCIDENT INSTRUMENT TYPE'
p1303
S''
sS'PHYS TGT FOREIGN NATION'
p1304
S''
sS'HUM TGT NUMBER'
p1305
S''
sS'PHYS TGT TYPE'
p1306
S''
sS'HUM TGT NAME'
p1307
S''
sS'INCIDENT TYPE'
p1308
S''
sS'PHYS TGT NUMBER'
p1309
S''
sS'PERP INDIVIDUAL ID'
p1310
S''
sS'INCIDENT STAGE OF EXECUTION'
p1311
S''
sS'HUM TGT DESCRIPTION'
p1312
S''
sS'PHYS TGT EFFECT OF INCIDENT'
p1313
S''
sS'HUM TGT FOREIGN NATION'
p1314
S''
sS'INCIDENT DATE'
p1315
S''
sS'MESSAGE TEMPLATE'
p1316
S''
sS'PHYS TGT TOTAL NUMBER'
p1317
S''
ssS'TST1-MUC3-0085'
p1318
(dp1319
S'PERP ORGANIZATION CONFIDENCE'
p1320
S''
sS'HUM TGT EFFECT OF INCIDENT'
p1321
S''
sS'INCIDENT LOCATION'
p1322
S''
sS'PHYS TGT ID'
p1323
S''
sS'PERP INCIDENT CATEGORY'
p1324
S''
sS'PERP ORGANIZATION ID'
p1325
S''
sS'HUM TGT TYPE'
p1326
S''
sS'HUM TGT TOTAL NUMBER'
p1327
S''
sS'INCIDENT INSTRUMENT ID'
p1328
S''
sS'INCIDENT INSTRUMENT TYPE'
p1329
S''
sS'PHYS TGT FOREIGN NATION'
p1330
S''
sS'HUM TGT NUMBER'
p1331
S''
sS'PHYS TGT TYPE'
p1332
S''
sS'HUM TGT NAME'
p1333
S''
sS'INCIDENT TYPE'
p1334
S''
sS'PHYS TGT NUMBER'
p1335
S''
sS'PERP INDIVIDUAL ID'
p1336
S''
sS'INCIDENT STAGE OF EXECUTION'
p1337
S''
sS'HUM TGT DESCRIPTION'
p1338
S''
sS'PHYS TGT EFFECT OF INCIDENT'
p1339
S''
sS'HUM TGT FOREIGN NATION'
p1340
S''
sS'INCIDENT DATE'
p1341
S''
sS'MESSAGE TEMPLATE'
p1342
S''
sS'PHYS TGT TOTAL NUMBER'
p1343
S''
ssS'TST1-MUC3-0002'
p1344
(dp1345
S'PERP ORGANIZATION CONFIDENCE'
p1346
S'REPORTED AS FACT FARABUNDO MARTI NATIONAL LIBERATION FRONT FMLN'
p1347
sS'HUM TGT EFFECT OF INCIDENT'
p1348
S'INJURY SOLDIER'
p1349
sS'INCIDENT LOCATION'
p1350
S'EL SALVADOR SAN SALVADOR CITY'
p1351
sS'PHYS TGT ID'
p1352
S'ELECTRIC POWER SUBSTATION'
p1353
sS'PERP INCIDENT CATEGORY'
p1354
S'TERRORIST ACT'
p1355
sS'PERP ORGANIZATION ID'
p1356
S'FARABUNDO MARTI NATIONAL LIBERATION FRONT FMLN'
p1357
sS'HUM TGT TYPE'
p1358
S'ACTIVE MILITARY SOLDIER'
p1359
sS'HUM TGT TOTAL NUMBER'
p1360
S''
sS'INCIDENT INSTRUMENT ID'
p1361
S''
sS'INCIDENT INSTRUMENT TYPE'
p1362
S''
sS'PHYS TGT FOREIGN NATION'
p1363
S''
sS'HUM TGT NUMBER'
p1364
S'1 SOLDIER'
p1365
sS'PHYS TGT TYPE'
p1366
S'ENERGY ELECTRIC POWER SUBSTATION'
p1367
sS'HUM TGT NAME'
p1368
S''
sS'INCIDENT TYPE'
p1369
S'ATTACK'
p1370
sS'PHYS TGT NUMBER'
p1371
S'1 ELECTRIC POWER SUBSTATION'
p1372
sS'PERP INDIVIDUAL ID'
p1373
S'MEMBERS OF THE FARABUNDO MARTI NATIONAL LIBERATION FRONT FMLN MEMBERS OF THE FARABUNDO MARTI NATIONAL LIBERATION FRONT'
p1374
sS'INCIDENT STAGE OF EXECUTION'
p1375
S'ACCOMPLISHED'
p1376
sS'HUM TGT DESCRIPTION'
p1377
S'SOLDIER'
p1378
sS'PHYS TGT EFFECT OF INCIDENT'
p1379
S''
sS'HUM TGT FOREIGN NATION'
p1380
S''
sS'INCIDENT DATE'
p1381
S'17 FEB 90 18 FEB 90'
p1382
sS'MESSAGE TEMPLATE'
p1383
S'1'
sS'PHYS TGT TOTAL NUMBER'
p1384
S''
ssS'TST1-MUC3-0003'
p1385
(dp1386
S'PERP ORGANIZATION CONFIDENCE'
p1387
S''
sS'HUM TGT EFFECT OF INCIDENT'
p1388
S''
sS'INCIDENT LOCATION'
p1389
S''
sS'PHYS TGT ID'
p1390
S''
sS'PERP INCIDENT CATEGORY'
p1391
S''
sS'PERP ORGANIZATION ID'
p1392
S''
sS'HUM TGT TYPE'
p1393
S''
sS'HUM TGT TOTAL NUMBER'
p1394
S''
sS'INCIDENT INSTRUMENT ID'
p1395
S''
sS'INCIDENT INSTRUMENT TYPE'
p1396
S''
sS'PHYS TGT FOREIGN NATION'
p1397
S''
sS'HUM TGT NUMBER'
p1398
S''
sS'PHYS TGT TYPE'
p1399
S''
sS'HUM TGT NAME'
p1400
S''
sS'INCIDENT TYPE'
p1401
S''
sS'PHYS TGT NUMBER'
p1402
S''
sS'PERP INDIVIDUAL ID'
p1403
S''
sS'INCIDENT STAGE OF EXECUTION'
p1404
S''
sS'HUM TGT DESCRIPTION'
p1405
S''
sS'PHYS TGT EFFECT OF INCIDENT'
p1406
S''
sS'HUM TGT FOREIGN NATION'
p1407
S''
sS'INCIDENT DATE'
p1408
S''
sS'MESSAGE TEMPLATE'
p1409
S''
sS'PHYS TGT TOTAL NUMBER'
p1410
S''
ssS'TST1-MUC3-0001'
p1411
(dp1412
S'PERP ORGANIZATION CONFIDENCE'
p1413
S''
sS'HUM TGT EFFECT OF INCIDENT'
p1414
S''
sS'INCIDENT LOCATION'
p1415
S'GUATEMALA PETEN DEPARTMENT FLORES CITY'
p1416
sS'PHYS TGT ID'
p1417
S'TANK TRUCK TRUCK'
p1418
sS'PERP INCIDENT CATEGORY'
p1419
S'TERRORIST ACT'
p1420
sS'PERP ORGANIZATION ID'
p1421
S''
sS'HUM TGT TYPE'
p1422
S''
sS'HUM TGT TOTAL NUMBER'
p1423
S''
sS'INCIDENT INSTRUMENT ID'
p1424
S''
sS'INCIDENT INSTRUMENT TYPE'
p1425
S''
sS'PHYS TGT FOREIGN NATION'
p1426
S''
sS'HUM TGT NUMBER'
p1427
S''
sS'PHYS TGT TYPE'
p1428
S'TRANSPORT VEHICLE TANK TRUCK TRUCK'
p1429
sS'HUM TGT NAME'
p1430
S''
sS'INCIDENT TYPE'
p1431
S'ARSON'
p1432
sS'PHYS TGT NUMBER'
p1433
S'1 TANK TRUCK TRUCK'
p1434
sS'PERP INDIVIDUAL ID'
p1435
S'GUERRILLAS'
p1436
sS'INCIDENT STAGE OF EXECUTION'
p1437
S'ACCOMPLISHED'
p1438
sS'HUM TGT DESCRIPTION'
p1439
S''
sS'PHYS TGT EFFECT OF INCIDENT'
p1440
S'SOME DAMAGE TANK TRUCK TRUCK'
p1441
sS'HUM TGT FOREIGN NATION'
p1442
S''
sS'INCIDENT DATE'
p1443
S'04 FEB 90'
p1444
sS'MESSAGE TEMPLATE'
p1445
S'6'
sS'PHYS TGT TOTAL NUMBER'
p1446
S''
ssS'TST1-MUC3-0006'
p1447
(dp1448
S'PERP ORGANIZATION CONFIDENCE'
p1449
S''
sS'HUM TGT EFFECT OF INCIDENT'
p1450
S'DEATH ANTONIO ROLDAN BETANCUR'
p1451
sS'INCIDENT LOCATION'
p1452
S'COLOMBIA MEDELLIN CITY AMERICA NEIGHBORHOOD'
p1453
sS'PHYS TGT ID'
p1454
S''
sS'PERP INCIDENT CATEGORY'
p1455
S''
sS'PERP ORGANIZATION ID'
p1456
S''
sS'HUM TGT TYPE'
p1457
S'GOVERNMENT OFFICIAL ANTONIO ROLDAN BETANCUR'
p1458
sS'HUM TGT TOTAL NUMBER'
p1459
S''
sS'INCIDENT INSTRUMENT ID'
p1460
S''
sS'INCIDENT INSTRUMENT TYPE'
p1461
S''
sS'PHYS TGT FOREIGN NATION'
p1462
S''
sS'HUM TGT NUMBER'
p1463
S'1 ANTONIO ROLDAN BETANCUR'
p1464
sS'PHYS TGT TYPE'
p1465
S''
sS'HUM TGT NAME'
p1466
S'ANTONIO ROLDAN BETANCUR'
p1467
sS'INCIDENT TYPE'
p1468
S'ATTACK'
p1469
sS'PHYS TGT NUMBER'
p1470
S''
sS'PERP INDIVIDUAL ID'
p1471
S''
sS'INCIDENT STAGE OF EXECUTION'
p1472
S'ACCOMPLISHED'
p1473
sS'HUM TGT DESCRIPTION'
p1474
S'ANTIOQUIA DEPARTMENT GOVERNOR ANTIOQUIA GOVERNOR DEPARTMENT GOVERNOR GOVERNOR ANTONIO ROLDAN BETANCUR'
p1475
sS'PHYS TGT EFFECT OF INCIDENT'
p1476
S''
sS'HUM TGT FOREIGN NATION'
p1477
S''
sS'INCIDENT DATE'
p1478
S'18 AUG 89'
p1479
sS'MESSAGE TEMPLATE'
p1480
S'1'
sS'PHYS TGT TOTAL NUMBER'
p1481
S''
ssS'TST1-MUC3-0007'
p1482
(dp1483
S'PERP ORGANIZATION CONFIDENCE'
p1484
S''
sS'HUM TGT EFFECT OF INCIDENT'
p1485
S''
sS'INCIDENT LOCATION'
p1486
S''
sS'PHYS TGT ID'
p1487
S''
sS'PERP INCIDENT CATEGORY'
p1488
S''
sS'PERP ORGANIZATION ID'
p1489
S''
sS'HUM TGT TYPE'
p1490
S''
sS'HUM TGT TOTAL NUMBER'
p1491
S''
sS'INCIDENT INSTRUMENT ID'
p1492
S''
sS'INCIDENT INSTRUMENT TYPE'
p1493
S''
sS'PHYS TGT FOREIGN NATION'
p1494
S''
sS'HUM TGT NUMBER'
p1495
S''
sS'PHYS TGT TYPE'
p1496
S''
sS'HUM TGT NAME'
p1497
S''
sS'INCIDENT TYPE'
p1498
S''
sS'PHYS TGT NUMBER'
p1499
S''
sS'PERP INDIVIDUAL ID'
p1500
S''
sS'INCIDENT STAGE OF EXECUTION'
p1501
S''
sS'HUM TGT DESCRIPTION'
p1502
S''
sS'PHYS TGT EFFECT OF INCIDENT'
p1503
S''
sS'HUM TGT FOREIGN NATION'
p1504
S''
sS'INCIDENT DATE'
p1505
S''
sS'MESSAGE TEMPLATE'
p1506
S''
sS'PHYS TGT TOTAL NUMBER'
p1507
S''
ssS'TST1-MUC3-0004'
p1508
(dp1509
S'PERP ORGANIZATION CONFIDENCE'
p1510
S''
sS'HUM TGT EFFECT OF INCIDENT'
p1511
S'NO INJURY OR DEATH PEOPLE'
p1512
sS'INCIDENT LOCATION'
p1513
S'COLOMBIA ANTIOQUIA DEPARTMENT'
p1514
sS'PHYS TGT ID'
p1515
S'ANTIOQUIA LIQUEUR PLANT LIQUEUR PLANT'
p1516
sS'PERP INCIDENT CATEGORY'
p1517
S'TERRORIST ACT'
p1518
sS'PERP ORGANIZATION ID'
p1519
S''
sS'HUM TGT TYPE'
p1520
S'CIVILIAN PEOPLE'
p1521
sS'HUM TGT TOTAL NUMBER'
p1522
S''
sS'INCIDENT INSTRUMENT ID'
p1523
S'FOUR POWERFUL ROCKETS POWERFUL ROCKETS ROCKETS'
p1524
sS'INCIDENT INSTRUMENT TYPE'
p1525
S'ROCKET FOUR POWERFUL ROCKETS POWERFUL ROCKETS ROCKETS'
p1526
sS'PHYS TGT FOREIGN NATION'
p1527
S''
sS'HUM TGT NUMBER'
p1528
S'PLURAL PEOPLE'
p1529
sS'PHYS TGT TYPE'
p1530
S'COMMERCIAL ANTIOQUIA LIQUEUR PLANT LIQUEUR PLANT'
p1531
sS'HUM TGT NAME'
p1532
S''
sS'INCIDENT TYPE'
p1533
S'BOMBING'
p1534
sS'PHYS TGT NUMBER'
p1535
S'1 ANTIOQUIA LIQUEUR PLANT LIQUEUR PLANT'
p1536
sS'PERP INDIVIDUAL ID'
p1537
S'MAN'
p1538
sS'INCIDENT STAGE OF EXECUTION'
p1539
S'ATTEMPTED'
p1540
sS'HUM TGT DESCRIPTION'
p1541
S'PEOPLE'
p1542
sS'PHYS TGT EFFECT OF INCIDENT'
p1543
S'NO DAMAGE ANTIOQUIA LIQUEUR PLANT LIQUEUR PLANT'
p1544
sS'HUM TGT FOREIGN NATION'
p1545
S''
sS'INCIDENT DATE'
p1546
S'29 AUG 89'
p1547
sS'MESSAGE TEMPLATE'
p1548
S'1'
sS'PHYS TGT TOTAL NUMBER'
p1549
S''
ssS'TST1-MUC3-0005'
p1550
(dp1551
S'PERP ORGANIZATION CONFIDENCE'
p1552
S''
sS'HUM TGT EFFECT OF INCIDENT'
p1553
S''
sS'INCIDENT LOCATION'
p1554
S''
sS'PHYS TGT ID'
p1555
S''
sS'PERP INCIDENT CATEGORY'
p1556
S''
sS'PERP ORGANIZATION ID'
p1557
S''
sS'HUM TGT TYPE'
p1558
S''
sS'HUM TGT TOTAL NUMBER'
p1559
S''
sS'INCIDENT INSTRUMENT ID'
p1560
S''
sS'INCIDENT INSTRUMENT TYPE'
p1561
S''
sS'PHYS TGT FOREIGN NATION'
p1562
S''
sS'HUM TGT NUMBER'
p1563
S''
sS'PHYS TGT TYPE'
p1564
S''
sS'HUM TGT NAME'
p1565
S''
sS'INCIDENT TYPE'
p1566
S''
sS'PHYS TGT NUMBER'
p1567
S''
sS'PERP INDIVIDUAL ID'
p1568
S''
sS'INCIDENT STAGE OF EXECUTION'
p1569
S''
sS'HUM TGT DESCRIPTION'
p1570
S''
sS'PHYS TGT EFFECT OF INCIDENT'
p1571
S''
sS'HUM TGT FOREIGN NATION'
p1572
S''
sS'INCIDENT DATE'
p1573
S''
sS'MESSAGE TEMPLATE'
p1574
S''
sS'PHYS TGT TOTAL NUMBER'
p1575
S''
ssS'TST1-MUC3-0008'
p1576
(dp1577
S'PERP ORGANIZATION CONFIDENCE'
p1578
S''
sS'HUM TGT EFFECT OF INCIDENT'
p1579
S''
sS'INCIDENT LOCATION'
p1580
S''
sS'PHYS TGT ID'
p1581
S''
sS'PERP INCIDENT CATEGORY'
p1582
S''
sS'PERP ORGANIZATION ID'
p1583
S''
sS'HUM TGT TYPE'
p1584
S''
sS'HUM TGT TOTAL NUMBER'
p1585
S''
sS'INCIDENT INSTRUMENT ID'
p1586
S''
sS'INCIDENT INSTRUMENT TYPE'
p1587
S''
sS'PHYS TGT FOREIGN NATION'
p1588
S''
sS'HUM TGT NUMBER'
p1589
S''
sS'PHYS TGT TYPE'
p1590
S''
sS'HUM TGT NAME'
p1591
S''
sS'INCIDENT TYPE'
p1592
S''
sS'PHYS TGT NUMBER'
p1593
S''
sS'PERP INDIVIDUAL ID'
p1594
S''
sS'INCIDENT STAGE OF EXECUTION'
p1595
S''
sS'HUM TGT DESCRIPTION'
p1596
S''
sS'PHYS TGT EFFECT OF INCIDENT'
p1597
S''
sS'HUM TGT FOREIGN NATION'
p1598
S''
sS'INCIDENT DATE'
p1599
S''
sS'MESSAGE TEMPLATE'
p1600
S''
sS'PHYS TGT TOTAL NUMBER'
p1601
S''
ssS'TST1-MUC3-0009'
p1602
(dp1603
S'PERP ORGANIZATION CONFIDENCE'
p1604
S''
sS'HUM TGT EFFECT OF INCIDENT'
p1605
S''
sS'INCIDENT LOCATION'
p1606
S''
sS'PHYS TGT ID'
p1607
S''
sS'PERP INCIDENT CATEGORY'
p1608
S''
sS'PERP ORGANIZATION ID'
p1609
S''
sS'HUM TGT TYPE'
p1610
S''
sS'HUM TGT TOTAL NUMBER'
p1611
S''
sS'INCIDENT INSTRUMENT ID'
p1612
S''
sS'INCIDENT INSTRUMENT TYPE'
p1613
S''
sS'PHYS TGT FOREIGN NATION'
p1614
S''
sS'HUM TGT NUMBER'
p1615
S''
sS'PHYS TGT TYPE'
p1616
S''
sS'HUM TGT NAME'
p1617
S''
sS'INCIDENT TYPE'
p1618
S''
sS'PHYS TGT NUMBER'
p1619
S''
sS'PERP INDIVIDUAL ID'
p1620
S''
sS'INCIDENT STAGE OF EXECUTION'
p1621
S''
sS'HUM TGT DESCRIPTION'
p1622
S''
sS'PHYS TGT EFFECT OF INCIDENT'
p1623
S''
sS'HUM TGT FOREIGN NATION'
p1624
S''
sS'INCIDENT DATE'
p1625
S''
sS'MESSAGE TEMPLATE'
p1626
S''
sS'PHYS TGT TOTAL NUMBER'
p1627
S''
ssS'TST1-MUC3-0099'
p1628
(dp1629
S'PERP ORGANIZATION CONFIDENCE'
p1630
S'REPORTED AS FACT SHINING PATH'
p1631
sS'HUM TGT EFFECT OF INCIDENT'
p1632
S''
sS'INCIDENT LOCATION'
p1633
S'PERU LIMA CITY'
p1634
sS'PHYS TGT ID'
p1635
S'BUSES'
p1636
sS'PERP INCIDENT CATEGORY'
p1637
S'TERRORIST ACT'
p1638
sS'PERP ORGANIZATION ID'
p1639
S'SHINING PATH'
p1640
sS'HUM TGT TYPE'
p1641
S''
sS'HUM TGT TOTAL NUMBER'
p1642
S''
sS'INCIDENT INSTRUMENT ID'
p1643
S''
sS'INCIDENT INSTRUMENT TYPE'
p1644
S''
sS'PHYS TGT FOREIGN NATION'
p1645
S''
sS'HUM TGT NUMBER'
p1646
S''
sS'PHYS TGT TYPE'
p1647
S'TRANSPORT VEHICLE BUSES'
p1648
sS'HUM TGT NAME'
p1649
S''
sS'INCIDENT TYPE'
p1650
S'ARSON'
p1651
sS'PHYS TGT NUMBER'
p1652
S'10 BUSES'
p1653
sS'PERP INDIVIDUAL ID'
p1654
S''
sS'INCIDENT STAGE OF EXECUTION'
p1655
S'ACCOMPLISHED'
p1656
sS'HUM TGT DESCRIPTION'
p1657
S''
sS'PHYS TGT EFFECT OF INCIDENT'
p1658
S'SOME DAMAGE BUSES'
p1659
sS'HUM TGT FOREIGN NATION'
p1660
S''
sS'INCIDENT DATE'
p1661
S'24 OCT 89'
p1662
sS'MESSAGE TEMPLATE'
p1663
S'3'
sS'PHYS TGT TOTAL NUMBER'
p1664
S''
ssS'TST1-MUC3-0098'
p1665
(dp1666
S'PERP ORGANIZATION CONFIDENCE'
p1667
S''
sS'HUM TGT EFFECT OF INCIDENT'
p1668
S''
sS'INCIDENT LOCATION'
p1669
S''
sS'PHYS TGT ID'
p1670
S''
sS'PERP INCIDENT CATEGORY'
p1671
S''
sS'PERP ORGANIZATION ID'
p1672
S''
sS'HUM TGT TYPE'
p1673
S''
sS'HUM TGT TOTAL NUMBER'
p1674
S''
sS'INCIDENT INSTRUMENT ID'
p1675
S''
sS'INCIDENT INSTRUMENT TYPE'
p1676
S''
sS'PHYS TGT FOREIGN NATION'
p1677
S''
sS'HUM TGT NUMBER'
p1678
S''
sS'PHYS TGT TYPE'
p1679
S''
sS'HUM TGT NAME'
p1680
S''
sS'INCIDENT TYPE'
p1681
S''
sS'PHYS TGT NUMBER'
p1682
S''
sS'PERP INDIVIDUAL ID'
p1683
S''
sS'INCIDENT STAGE OF EXECUTION'
p1684
S''
sS'HUM TGT DESCRIPTION'
p1685
S''
sS'PHYS TGT EFFECT OF INCIDENT'
p1686
S''
sS'HUM TGT FOREIGN NATION'
p1687
S''
sS'INCIDENT DATE'
p1688
S''
sS'MESSAGE TEMPLATE'
p1689
S''
sS'PHYS TGT TOTAL NUMBER'
p1690
S''
ssS'TST1-MUC3-0091'
p1691
(dp1692
S'PERP ORGANIZATION CONFIDENCE'
p1693
S''
sS'HUM TGT EFFECT OF INCIDENT'
p1694
S''
sS'INCIDENT LOCATION'
p1695
S''
sS'PHYS TGT ID'
p1696
S''
sS'PERP INCIDENT CATEGORY'
p1697
S''
sS'PERP ORGANIZATION ID'
p1698
S''
sS'HUM TGT TYPE'
p1699
S''
sS'HUM TGT TOTAL NUMBER'
p1700
S''
sS'INCIDENT INSTRUMENT ID'
p1701
S''
sS'INCIDENT INSTRUMENT TYPE'
p1702
S''
sS'PHYS TGT FOREIGN NATION'
p1703
S''
sS'HUM TGT NUMBER'
p1704
S''
sS'PHYS TGT TYPE'
p1705
S''
sS'HUM TGT NAME'
p1706
S''
sS'INCIDENT TYPE'
p1707
S''
sS'PHYS TGT NUMBER'
p1708
S''
sS'PERP INDIVIDUAL ID'
p1709
S''
sS'INCIDENT STAGE OF EXECUTION'
p1710
S''
sS'HUM TGT DESCRIPTION'
p1711
S''
sS'PHYS TGT EFFECT OF INCIDENT'
p1712
S''
sS'HUM TGT FOREIGN NATION'
p1713
S''
sS'INCIDENT DATE'
p1714
S''
sS'MESSAGE TEMPLATE'
p1715
S''
sS'PHYS TGT TOTAL NUMBER'
p1716
S''
ssS'TST1-MUC3-0090'
p1717
(dp1718
S'PERP ORGANIZATION CONFIDENCE'
p1719
S'SUSPECTED OR ACCUSED FARABUNDO MARTI NATIONAL LIBERATION FRONT FMLN'
p1720
sS'HUM TGT EFFECT OF INCIDENT'
p1721
S'NO INJURY OR DEATH'
p1722
sS'INCIDENT LOCATION'
p1723
S'EL SALVADOR SAN SALVADOR CITY'
p1724
sS'PHYS TGT ID'
p1725
S'POWER TOWER'
p1726
sS'PERP INCIDENT CATEGORY'
p1727
S'TERRORIST ACT'
p1728
sS'PERP ORGANIZATION ID'
p1729
S'FARABUNDO MARTI NATIONAL LIBERATION FRONT FMLN'
p1730
sS'HUM TGT TYPE'
p1731
S''
sS'HUM TGT TOTAL NUMBER'
p1732
S''
sS'INCIDENT INSTRUMENT ID'
p1733
S'BOMB'
p1734
sS'INCIDENT INSTRUMENT TYPE'
p1735
S'BOMB BOMB'
p1736
sS'PHYS TGT FOREIGN NATION'
p1737
S''
sS'HUM TGT NUMBER'
p1738
S''
sS'PHYS TGT TYPE'
p1739
S'ENERGY POWER TOWER'
p1740
sS'HUM TGT NAME'
p1741
S''
sS'INCIDENT TYPE'
p1742
S'BOMBING'
p1743
sS'PHYS TGT NUMBER'
p1744
S'1 POWER TOWER'
p1745
sS'PERP INDIVIDUAL ID'
p1746
S'URBAN GUERRILLA COMMANDOS'
p1747
sS'INCIDENT STAGE OF EXECUTION'
p1748
S'ACCOMPLISHED'
p1749
sS'HUM TGT DESCRIPTION'
p1750
S''
sS'PHYS TGT EFFECT OF INCIDENT'
p1751
S'DESTROYED POWER TOWER'
p1752
sS'HUM TGT FOREIGN NATION'
p1753
S''
sS'INCIDENT DATE'
p1754
S'19 MAR 90'
p1755
sS'MESSAGE TEMPLATE'
p1756
S'1'
sS'PHYS TGT TOTAL NUMBER'
p1757
S''
ssS'TST1-MUC3-0093'
p1758
(dp1759
S'PERP ORGANIZATION CONFIDENCE'
p1760
S''
sS'HUM TGT EFFECT OF INCIDENT'
p1761
S'DEATH JESUIT PRIESTS JESUIT PRIESTS PRIESTS'
p1762
sS'INCIDENT LOCATION'
p1763
S'EL SALVADOR SAN SALVADOR CITY DEPARTMENT'
p1764
sS'PHYS TGT ID'
p1765
S''
sS'PERP INCIDENT CATEGORY'
p1766
S'STATESPONSORED VIOLENCE'
p1767
sS'PERP ORGANIZATION ID'
p1768
S''
sS'HUM TGT TYPE'
p1769
S'CIVILIAN JESUIT PRIESTS JESUIT PRIESTS PRIESTS'
p1770
sS'HUM TGT TOTAL NUMBER'
p1771
S''
sS'INCIDENT INSTRUMENT ID'
p1772
S''
sS'INCIDENT INSTRUMENT TYPE'
p1773
S''
sS'PHYS TGT FOREIGN NATION'
p1774
S''
sS'HUM TGT NUMBER'
p1775
S'11 JESUIT PRIESTS JESUIT PRIESTS PRIESTS'
p1776
sS'PHYS TGT TYPE'
p1777
S''
sS'HUM TGT NAME'
p1778
S''
sS'INCIDENT TYPE'
p1779
S'ATTACK'
p1780
sS'PHYS TGT NUMBER'
p1781
S''
sS'PERP INDIVIDUAL ID'
p1782
S'COLONEL PONCE'
p1783
sS'INCIDENT STAGE OF EXECUTION'
p1784
S'ACCOMPLISHED'
p1785
sS'HUM TGT DESCRIPTION'
p1786
S'JESUIT PRIESTS JESUIT PRIESTS PRIESTS'
p1787
sS'PHYS TGT EFFECT OF INCIDENT'
p1788
S''
sS'HUM TGT FOREIGN NATION'
p1789
S''
sS'INCIDENT DATE'
p1790
S''
sS'MESSAGE TEMPLATE'
p1791
S'1'
sS'PHYS TGT TOTAL NUMBER'
p1792
S''
ssS'TST1-MUC3-0092'
p1793
(dp1794
S'PERP ORGANIZATION CONFIDENCE'
p1795
S'CLAIMED OR ADMITTED FMLN'
p1796
sS'HUM TGT EFFECT OF INCIDENT'
p1797
S''
sS'INCIDENT LOCATION'
p1798
S'EL SALVADOR SAN MIGUEL CITY'
p1799
sS'PHYS TGT ID'
p1800
S'PYLONS'
p1801
sS'PERP INCIDENT CATEGORY'
p1802
S'TERRORIST ACT'
p1803
sS'PERP ORGANIZATION ID'
p1804
S'FMLN'
p1805
sS'HUM TGT TYPE'
p1806
S''
sS'HUM TGT TOTAL NUMBER'
p1807
S''
sS'INCIDENT INSTRUMENT ID'
p1808
S''
sS'INCIDENT INSTRUMENT TYPE'
p1809
S''
sS'PHYS TGT FOREIGN NATION'
p1810
S''
sS'HUM TGT NUMBER'
p1811
S''
sS'PHYS TGT TYPE'
p1812
S'ENERGY OTHER TRANSFORMERS'
p1813
sS'HUM TGT NAME'
p1814
S''
sS'INCIDENT TYPE'
p1815
S'ATTACK'
p1816
sS'PHYS TGT NUMBER'
p1817
S'PLURAL PYLONS'
p1818
sS'PERP INDIVIDUAL ID'
p1819
S'URBAN GUERRILLAS'
p1820
sS'INCIDENT STAGE OF EXECUTION'
p1821
S'ACCOMPLISHED'
p1822
sS'HUM TGT DESCRIPTION'
p1823
S''
sS'PHYS TGT EFFECT OF INCIDENT'
p1824
S''
sS'HUM TGT FOREIGN NATION'
p1825
S''
sS'INCIDENT DATE'
p1826
S''
sS'MESSAGE TEMPLATE'
p1827
S'1'
sS'PHYS TGT TOTAL NUMBER'
p1828
S''
ssS'TST1-MUC3-0095'
p1829
(dp1830
S'PERP ORGANIZATION CONFIDENCE'
p1831
S''
sS'HUM TGT EFFECT OF INCIDENT'
p1832
S''
sS'INCIDENT LOCATION'
p1833
S''
sS'PHYS TGT ID'
p1834
S''
sS'PERP INCIDENT CATEGORY'
p1835
S''
sS'PERP ORGANIZATION ID'
p1836
S''
sS'HUM TGT TYPE'
p1837
S''
sS'HUM TGT TOTAL NUMBER'
p1838
S''
sS'INCIDENT INSTRUMENT ID'
p1839
S''
sS'INCIDENT INSTRUMENT TYPE'
p1840
S''
sS'PHYS TGT FOREIGN NATION'
p1841
S''
sS'HUM TGT NUMBER'
p1842
S''
sS'PHYS TGT TYPE'
p1843
S''
sS'HUM TGT NAME'
p1844
S''
sS'INCIDENT TYPE'
p1845
S''
sS'PHYS TGT NUMBER'
p1846
S''
sS'PERP INDIVIDUAL ID'
p1847
S''
sS'INCIDENT STAGE OF EXECUTION'
p1848
S''
sS'HUM TGT DESCRIPTION'
p1849
S''
sS'PHYS TGT EFFECT OF INCIDENT'
p1850
S''
sS'HUM TGT FOREIGN NATION'
p1851
S''
sS'INCIDENT DATE'
p1852
S''
sS'MESSAGE TEMPLATE'
p1853
S''
sS'PHYS TGT TOTAL NUMBER'
p1854
S''
ssS'TST1-MUC3-0094'
p1855
(dp1856
S'PERP ORGANIZATION CONFIDENCE'
p1857
S''
sS'HUM TGT EFFECT OF INCIDENT'
p1858
S''
sS'INCIDENT LOCATION'
p1859
S''
sS'PHYS TGT ID'
p1860
S''
sS'PERP INCIDENT CATEGORY'
p1861
S''
sS'PERP ORGANIZATION ID'
p1862
S''
sS'HUM TGT TYPE'
p1863
S''
sS'HUM TGT TOTAL NUMBER'
p1864
S''
sS'INCIDENT INSTRUMENT ID'
p1865
S''
sS'INCIDENT INSTRUMENT TYPE'
p1866
S''
sS'PHYS TGT FOREIGN NATION'
p1867
S''
sS'HUM TGT NUMBER'
p1868
S''
sS'PHYS TGT TYPE'
p1869
S''
sS'HUM TGT NAME'
p1870
S''
sS'INCIDENT TYPE'
p1871
S''
sS'PHYS TGT NUMBER'
p1872
S''
sS'PERP INDIVIDUAL ID'
p1873
S''
sS'INCIDENT STAGE OF EXECUTION'
p1874
S''
sS'HUM TGT DESCRIPTION'
p1875
S''
sS'PHYS TGT EFFECT OF INCIDENT'
p1876
S''
sS'HUM TGT FOREIGN NATION'
p1877
S''
sS'INCIDENT DATE'
p1878
S''
sS'MESSAGE TEMPLATE'
p1879
S''
sS'PHYS TGT TOTAL NUMBER'
p1880
S''
ssS'TST1-MUC3-0097'
p1881
(dp1882
S'PERP ORGANIZATION CONFIDENCE'
p1883
S''
sS'HUM TGT EFFECT OF INCIDENT'
p1884
S''
sS'INCIDENT LOCATION'
p1885
S''
sS'PHYS TGT ID'
p1886
S''
sS'PERP INCIDENT CATEGORY'
p1887
S''
sS'PERP ORGANIZATION ID'
p1888
S''
sS'HUM TGT TYPE'
p1889
S''
sS'HUM TGT TOTAL NUMBER'
p1890
S''
sS'INCIDENT INSTRUMENT ID'
p1891
S''
sS'INCIDENT INSTRUMENT TYPE'
p1892
S''
sS'PHYS TGT FOREIGN NATION'
p1893
S''
sS'HUM TGT NUMBER'
p1894
S''
sS'PHYS TGT TYPE'
p1895
S''
sS'HUM TGT NAME'
p1896
S''
sS'INCIDENT TYPE'
p1897
S''
sS'PHYS TGT NUMBER'
p1898
S''
sS'PERP INDIVIDUAL ID'
p1899
S''
sS'INCIDENT STAGE OF EXECUTION'
p1900
S''
sS'HUM TGT DESCRIPTION'
p1901
S''
sS'PHYS TGT EFFECT OF INCIDENT'
p1902
S''
sS'HUM TGT FOREIGN NATION'
p1903
S''
sS'INCIDENT DATE'
p1904
S''
sS'MESSAGE TEMPLATE'
p1905
S''
sS'PHYS TGT TOTAL NUMBER'
p1906
S''
ssS'TST1-MUC3-0096'
p1907
(dp1908
S'PERP ORGANIZATION CONFIDENCE'
p1909
S''
sS'HUM TGT EFFECT OF INCIDENT'
p1910
S''
sS'INCIDENT LOCATION'
p1911
S''
sS'PHYS TGT ID'
p1912
S''
sS'PERP INCIDENT CATEGORY'
p1913
S''
sS'PERP ORGANIZATION ID'
p1914
S''
sS'HUM TGT TYPE'
p1915
S''
sS'HUM TGT TOTAL NUMBER'
p1916
S''
sS'INCIDENT INSTRUMENT ID'
p1917
S''
sS'INCIDENT INSTRUMENT TYPE'
p1918
S''
sS'PHYS TGT FOREIGN NATION'
p1919
S''
sS'HUM TGT NUMBER'
p1920
S''
sS'PHYS TGT TYPE'
p1921
S''
sS'HUM TGT NAME'
p1922
S''
sS'INCIDENT TYPE'
p1923
S''
sS'PHYS TGT NUMBER'
p1924
S''
sS'PERP INDIVIDUAL ID'
p1925
S''
sS'INCIDENT STAGE OF EXECUTION'
p1926
S''
sS'HUM TGT DESCRIPTION'
p1927
S''
sS'PHYS TGT EFFECT OF INCIDENT'
p1928
S''
sS'HUM TGT FOREIGN NATION'
p1929
S''
sS'INCIDENT DATE'
p1930
S''
sS'MESSAGE TEMPLATE'
p1931
S''
sS'PHYS TGT TOTAL NUMBER'
p1932
S''
ssS'TST1-MUC3-0011'
p1933
(dp1934
S'PERP ORGANIZATION CONFIDENCE'
p1935
S'REPORTED AS FACT CHILEAN GOVERNMENT'
p1936
sS'HUM TGT EFFECT OF INCIDENT'
p1937
S'DEATH ORLANDO LETELIER'
p1938
sS'INCIDENT LOCATION'
p1939
S'UNITED STATES WASHINGTON DC CITY'
p1940
sS'PHYS TGT ID'
p1941
S''
sS'PERP INCIDENT CATEGORY'
p1942
S'STATESPONSORED VIOLENCE'
p1943
sS'PERP ORGANIZATION ID'
p1944
S'CHILEAN GOVERNMENT'
p1945
sS'HUM TGT TYPE'
p1946
S'GOVERNMENT OFFICIAL ORLANDO LETELIER'
p1947
sS'HUM TGT TOTAL NUMBER'
p1948
S''
sS'INCIDENT INSTRUMENT ID'
p1949
S''
sS'INCIDENT INSTRUMENT TYPE'
p1950
S''
sS'PHYS TGT FOREIGN NATION'
p1951
S''
sS'HUM TGT NUMBER'
p1952
S'1 ORLANDO LETELIER'
p1953
sS'PHYS TGT TYPE'
p1954
S''
sS'HUM TGT NAME'
p1955
S'ORLANDO LETELIER'
p1956
sS'INCIDENT TYPE'
p1957
S'ATTACK'
p1958
sS'PHYS TGT NUMBER'
p1959
S''
sS'PERP INDIVIDUAL ID'
p1960
S''
sS'INCIDENT STAGE OF EXECUTION'
p1961
S'ACCOMPLISHED'
p1962
sS'HUM TGT DESCRIPTION'
p1963
S'FORMER CHILEAN FOREIGN MINISTER ORLANDO LETELIER'
p1964
sS'PHYS TGT EFFECT OF INCIDENT'
p1965
S''
sS'HUM TGT FOREIGN NATION'
p1966
S'CHILE ORLANDO LETELIER'
p1967
sS'RONNIE MOFFIT'
p1968
S''
sS'INCIDENT DATE'
p1969
S'18 MAY 90'
p1970
sS'MESSAGE TEMPLATE'
p1971
S'1'
sS'PHYS TGT TOTAL NUMBER'
p1972
S''
ssS'TST1-MUC3-0010'
p1973
(dp1974
S'PERP ORGANIZATION CONFIDENCE'
p1975
S''
sS'HUM TGT EFFECT OF INCIDENT'
p1976
S''
sS'INCIDENT LOCATION'
p1977
S''
sS'PHYS TGT ID'
p1978
S''
sS'PERP INCIDENT CATEGORY'
p1979
S''
sS'PERP ORGANIZATION ID'
p1980
S''
sS'HUM TGT TYPE'
p1981
S''
sS'HUM TGT TOTAL NUMBER'
p1982
S''
sS'INCIDENT INSTRUMENT ID'
p1983
S''
sS'INCIDENT INSTRUMENT TYPE'
p1984
S''
sS'PHYS TGT FOREIGN NATION'
p1985
S''
sS'HUM TGT NUMBER'
p1986
S''
sS'PHYS TGT TYPE'
p1987
S''
sS'HUM TGT NAME'
p1988
S''
sS'INCIDENT TYPE'
p1989
S''
sS'PHYS TGT NUMBER'
p1990
S''
sS'PERP INDIVIDUAL ID'
p1991
S''
sS'INCIDENT STAGE OF EXECUTION'
p1992
S''
sS'HUM TGT DESCRIPTION'
p1993
S''
sS'PHYS TGT EFFECT OF INCIDENT'
p1994
S''
sS'HUM TGT FOREIGN NATION'
p1995
S''
sS'INCIDENT DATE'
p1996
S''
sS'MESSAGE TEMPLATE'
p1997
S''
sS'PHYS TGT TOTAL NUMBER'
p1998
S''
ssS'TST1-MUC3-0013'
p1999
(dp2000
S'PERP ORGANIZATION CONFIDENCE'
p2001
S''
sS'HUM TGT EFFECT OF INCIDENT'
p2002
S''
sS'INCIDENT LOCATION'
p2003
S''
sS'PHYS TGT ID'
p2004
S''
sS'PERP INCIDENT CATEGORY'
p2005
S''
sS'PERP ORGANIZATION ID'
p2006
S''
sS'HUM TGT TYPE'
p2007
S''
sS'HUM TGT TOTAL NUMBER'
p2008
S''
sS'INCIDENT INSTRUMENT ID'
p2009
S''
sS'INCIDENT INSTRUMENT TYPE'
p2010
S''
sS'PHYS TGT FOREIGN NATION'
p2011
S''
sS'HUM TGT NUMBER'
p2012
S''
sS'PHYS TGT TYPE'
p2013
S''
sS'HUM TGT NAME'
p2014
S''
sS'INCIDENT TYPE'
p2015
S''
sS'PHYS TGT NUMBER'
p2016
S''
sS'PERP INDIVIDUAL ID'
p2017
S''
sS'INCIDENT STAGE OF EXECUTION'
p2018
S''
sS'HUM TGT DESCRIPTION'
p2019
S''
sS'PHYS TGT EFFECT OF INCIDENT'
p2020
S''
sS'HUM TGT FOREIGN NATION'
p2021
S''
sS'INCIDENT DATE'
p2022
S''
sS'MESSAGE TEMPLATE'
p2023
S''
sS'PHYS TGT TOTAL NUMBER'
p2024
S''
ssS'TST1-MUC3-0012'
p2025
(dp2026
S'PERP ORGANIZATION CONFIDENCE'
p2027
S''
sS'HUM TGT EFFECT OF INCIDENT'
p2028
S''
sS'INCIDENT LOCATION'
p2029
S''
sS'PHYS TGT ID'
p2030
S''
sS'PERP INCIDENT CATEGORY'
p2031
S''
sS'PERP ORGANIZATION ID'
p2032
S''
sS'HUM TGT TYPE'
p2033
S''
sS'HUM TGT TOTAL NUMBER'
p2034
S''
sS'INCIDENT INSTRUMENT ID'
p2035
S''
sS'INCIDENT INSTRUMENT TYPE'
p2036
S''
sS'PHYS TGT FOREIGN NATION'
p2037
S''
sS'HUM TGT NUMBER'
p2038
S''
sS'PHYS TGT TYPE'
p2039
S''
sS'HUM TGT NAME'
p2040
S''
sS'INCIDENT TYPE'
p2041
S''
sS'PHYS TGT NUMBER'
p2042
S''
sS'PERP INDIVIDUAL ID'
p2043
S''
sS'INCIDENT STAGE OF EXECUTION'
p2044
S''
sS'HUM TGT DESCRIPTION'
p2045
S''
sS'PHYS TGT EFFECT OF INCIDENT'
p2046
S''
sS'HUM TGT FOREIGN NATION'
p2047
S''
sS'INCIDENT DATE'
p2048
S''
sS'MESSAGE TEMPLATE'
p2049
S''
sS'PHYS TGT TOTAL NUMBER'
p2050
S''
ssS'TST1-MUC3-0015'
p2051
(dp2052
S'PERP ORGANIZATION CONFIDENCE'
p2053
S''
sS'HUM TGT EFFECT OF INCIDENT'
p2054
S''
sS'INCIDENT LOCATION'
p2055
S''
sS'PHYS TGT ID'
p2056
S''
sS'PERP INCIDENT CATEGORY'
p2057
S''
sS'PERP ORGANIZATION ID'
p2058
S''
sS'HUM TGT TYPE'
p2059
S''
sS'HUM TGT TOTAL NUMBER'
p2060
S''
sS'INCIDENT INSTRUMENT ID'
p2061
S''
sS'INCIDENT INSTRUMENT TYPE'
p2062
S''
sS'PHYS TGT FOREIGN NATION'
p2063
S''
sS'HUM TGT NUMBER'
p2064
S''
sS'PHYS TGT TYPE'
p2065
S''
sS'HUM TGT NAME'
p2066
S''
sS'INCIDENT TYPE'
p2067
S''
sS'PHYS TGT NUMBER'
p2068
S''
sS'PERP INDIVIDUAL ID'
p2069
S''
sS'INCIDENT STAGE OF EXECUTION'
p2070
S''
sS'HUM TGT DESCRIPTION'
p2071
S''
sS'PHYS TGT EFFECT OF INCIDENT'
p2072
S''
sS'HUM TGT FOREIGN NATION'
p2073
S''
sS'INCIDENT DATE'
p2074
S''
sS'MESSAGE TEMPLATE'
p2075
S''
sS'PHYS TGT TOTAL NUMBER'
p2076
S''
ssS'TST1-MUC3-0014'
p2077
(dp2078
S'PERP ORGANIZATION CONFIDENCE'
p2079
S''
sS'HUM TGT EFFECT OF INCIDENT'
p2080
S''
sS'INCIDENT LOCATION'
p2081
S''
sS'PHYS TGT ID'
p2082
S''
sS'PERP INCIDENT CATEGORY'
p2083
S''
sS'PERP ORGANIZATION ID'
p2084
S''
sS'HUM TGT TYPE'
p2085
S''
sS'HUM TGT TOTAL NUMBER'
p2086
S''
sS'INCIDENT INSTRUMENT ID'
p2087
S''
sS'INCIDENT INSTRUMENT TYPE'
p2088
S''
sS'PHYS TGT FOREIGN NATION'
p2089
S''
sS'HUM TGT NUMBER'
p2090
S''
sS'PHYS TGT TYPE'
p2091
S''
sS'HUM TGT NAME'
p2092
S''
sS'INCIDENT TYPE'
p2093
S''
sS'PHYS TGT NUMBER'
p2094
S''
sS'PERP INDIVIDUAL ID'
p2095
S''
sS'INCIDENT STAGE OF EXECUTION'
p2096
S''
sS'HUM TGT DESCRIPTION'
p2097
S''
sS'PHYS TGT EFFECT OF INCIDENT'
p2098
S''
sS'HUM TGT FOREIGN NATION'
p2099
S''
sS'INCIDENT DATE'
p2100
S''
sS'MESSAGE TEMPLATE'
p2101
S''
sS'PHYS TGT TOTAL NUMBER'
p2102
S''
ssS'TST1-MUC3-0017'
p2103
(dp2104
S'PERP ORGANIZATION CONFIDENCE'
p2105
S''
sS'HUM TGT EFFECT OF INCIDENT'
p2106
S''
sS'INCIDENT LOCATION'
p2107
S''
sS'PHYS TGT ID'
p2108
S''
sS'PERP INCIDENT CATEGORY'
p2109
S''
sS'PERP ORGANIZATION ID'
p2110
S''
sS'HUM TGT TYPE'
p2111
S''
sS'HUM TGT TOTAL NUMBER'
p2112
S''
sS'INCIDENT INSTRUMENT ID'
p2113
S''
sS'INCIDENT INSTRUMENT TYPE'
p2114
S''
sS'PHYS TGT FOREIGN NATION'
p2115
S''
sS'HUM TGT NUMBER'
p2116
S''
sS'PHYS TGT TYPE'
p2117
S''
sS'HUM TGT NAME'
p2118
S''
sS'INCIDENT TYPE'
p2119
S''
sS'PHYS TGT NUMBER'
p2120
S''
sS'PERP INDIVIDUAL ID'
p2121
S''
sS'INCIDENT STAGE OF EXECUTION'
p2122
S''
sS'HUM TGT DESCRIPTION'
p2123
S''
sS'PHYS TGT EFFECT OF INCIDENT'
p2124
S''
sS'HUM TGT FOREIGN NATION'
p2125
S''
sS'INCIDENT DATE'
p2126
S''
sS'MESSAGE TEMPLATE'
p2127
S''
sS'PHYS TGT TOTAL NUMBER'
p2128
S''
ssS'TST1-MUC3-0016'
p2129
(dp2130
S'PERP ORGANIZATION CONFIDENCE'
p2131
S'POSSIBLE ARMY'
p2132
sS'HUM TGT EFFECT OF INCIDENT'
p2133
S''
sS'INCIDENT LOCATION'
p2134
S'EL SALVADOR ZACAMIL NEIGHBORHOOD'
p2135
sS'PHYS TGT ID'
p2136
S'HOUSES'
p2137
sS'PERP INCIDENT CATEGORY'
p2138
S'STATESPONSORED VIOLENCE'
p2139
sS'PERP ORGANIZATION ID'
p2140
S'ARMY'
p2141
sS'HUM TGT TYPE'
p2142
S''
sS'HUM TGT TOTAL NUMBER'
p2143
S''
sS'INCIDENT INSTRUMENT ID'
p2144
S'BOMBS'
p2145
sS'INCIDENT INSTRUMENT TYPE'
p2146
S'BOMB BOMBS'
p2147
sS'PHYS TGT FOREIGN NATION'
p2148
S''
sS'HUM TGT NUMBER'
p2149
S''
sS'PHYS TGT TYPE'
p2150
S'CIVILIAN RESIDENCE HOUSES'
p2151
sS'HUM TGT NAME'
p2152
S''
sS'INCIDENT TYPE'
p2153
S'BOMBING'
p2154
sS'PHYS TGT NUMBER'
p2155
S'500 HOUSES'
p2156
sS'PERP INDIVIDUAL ID'
p2157
S'OFFICERS'
p2158
sS'INCIDENT STAGE OF EXECUTION'
p2159
S'ACCOMPLISHED'
p2160
sS'HUM TGT DESCRIPTION'
p2161
S''
sS'PHYS TGT EFFECT OF INCIDENT'
p2162
S'DESTROYED HOUSES'
p2163
sS'HUM TGT FOREIGN NATION'
p2164
S''
sS'INCIDENT DATE'
p2165
S'23 NOV 89'
p2166
sS'MESSAGE TEMPLATE'
p2167
S'1'
sS'PHYS TGT TOTAL NUMBER'
p2168
S''
ssS'TST1-MUC3-0019'
p2169
(dp2170
S'PERP ORGANIZATION CONFIDENCE'
p2171
S'REPORTED AS FACT ARMED FORCES'
p2172
sS'HUM TGT EFFECT OF INCIDENT'
p2173
S'DEATH JESUITS'
p2174
sS'INCIDENT LOCATION'
p2175
S'EL SALVADOR'
p2176
sS'PHYS TGT ID'
p2177
S''
sS'PERP INCIDENT CATEGORY'
p2178
S'STATESPONSORED VIOLENCE'
p2179
sS'PERP ORGANIZATION ID'
p2180
S'ARMED FORCES'
p2181
sS'HUM TGT TYPE'
p2182
S'CIVILIAN JESUITS'
p2183
sS'HUM TGT TOTAL NUMBER'
p2184
S''
sS'INCIDENT INSTRUMENT ID'
p2185
S''
sS'INCIDENT INSTRUMENT TYPE'
p2186
S''
sS'PHYS TGT FOREIGN NATION'
p2187
S''
sS'HUM TGT NUMBER'
p2188
S'6 JESUITS'
p2189
sS'PHYS TGT TYPE'
p2190
S''
sS'HUM TGT NAME'
p2191
S''
sS'INCIDENT TYPE'
p2192
S'ATTACK'
p2193
sS'PHYS TGT NUMBER'
p2194
S''
sS'PERP INDIVIDUAL ID'
p2195
S'MILITARY MEN'
p2196
sS'INCIDENT STAGE OF EXECUTION'
p2197
S'ACCOMPLISHED'
p2198
sS'HUM TGT DESCRIPTION'
p2199
S'JESUITS'
p2200
sS'PHYS TGT EFFECT OF INCIDENT'
p2201
S''
sS'HUM TGT FOREIGN NATION'
p2202
S''
sS'INCIDENT DATE'
p2203
S'26 JAN 90'
p2204
sS'MESSAGE TEMPLATE'
p2205
S'1'
sS'PHYS TGT TOTAL NUMBER'
p2206
S''
ssS'TST1-MUC3-0018'
p2207
(dp2208
S'PERP ORGANIZATION CONFIDENCE'
p2209
S''
sS'HUM TGT EFFECT OF INCIDENT'
p2210
S'DEATH HILDA FLORES'
p2211
sS'INCIDENT LOCATION'
p2212
S'GUATEMALA GUATEMALA CITY CITY'
p2213
sS'PHYS TGT ID'
p2214
S''
sS'PERP INCIDENT CATEGORY'
p2215
S'STATESPONSORED VIOLENCE'
p2216
sS'PERP ORGANIZATION ID'
p2217
S''
sS'HUM TGT TYPE'
p2218
S'POLITICAL FIGURE HILDA FLORES'
p2219
sS'HUM TGT TOTAL NUMBER'
p2220
S''
sS'INCIDENT INSTRUMENT ID'
p2221
S''
sS'INCIDENT INSTRUMENT TYPE'
p2222
S''
sS'PHYS TGT FOREIGN NATION'
p2223
S''
sS'HILDA FLORES'
p2224
S''
sS'HUM TGT NUMBER'
p2225
S'1 HECTOR OQUELI COLINDRES'
p2226
sS'PHYS TGT TYPE'
p2227
S''
sS'HUM TGT NAME'
p2228
S'HECTOR OQUELI COLINDRES'
p2229
sS'INCIDENT TYPE'
p2230
S'KIDNAPPING'
p2231
sS'PHYS TGT NUMBER'
p2232
S''
sS'PERP INDIVIDUAL ID'
p2233
S'SALVADORAN RIGHTIST SECTORS'
p2234
sS'INCIDENT STAGE OF EXECUTION'
p2235
S'ACCOMPLISHED'
p2236
sS'HUM TGT DESCRIPTION'
p2237
S'SALVADORAN LEFTIST LEADER LEADER OF THE NATIONAL REVOLUTIONARY MOVEMENT MNR LEFTIST LEADER LEADER OF THE NATIONAL REVOLUTIONARY MOVEMENT HECTOR OQUELI COLINDRES'
p2238
sS'PHYS TGT EFFECT OF INCIDENT'
p2239
S''
sS'HUM TGT FOREIGN NATION'
p2240
S'EL SALVADOR HECTOR OQUELI COLINDRES'
p2241
sS'INCIDENT DATE'
p2242
S'01 JAN 90 31 JAN 90'
p2243
sS'MESSAGE TEMPLATE'
p2244
S'1'
sS'PHYS TGT TOTAL NUMBER'
p2245
S''
ssS'TST1-MUC3-0028'
p2246
(dp2247
S'PERP ORGANIZATION CONFIDENCE'
p2248
S''
sS'HUM TGT EFFECT OF INCIDENT'
p2249
S''
sS'INCIDENT LOCATION'
p2250
S''
sS'PHYS TGT ID'
p2251
S''
sS'PERP INCIDENT CATEGORY'
p2252
S''
sS'PERP ORGANIZATION ID'
p2253
S''
sS'HUM TGT TYPE'
p2254
S''
sS'HUM TGT TOTAL NUMBER'
p2255
S''
sS'INCIDENT INSTRUMENT ID'
p2256
S''
sS'INCIDENT INSTRUMENT TYPE'
p2257
S''
sS'PHYS TGT FOREIGN NATION'
p2258
S''
sS'HUM TGT NUMBER'
p2259
S''
sS'PHYS TGT TYPE'
p2260
S''
sS'HUM TGT NAME'
p2261
S''
sS'INCIDENT TYPE'
p2262
S''
sS'PHYS TGT NUMBER'
p2263
S''
sS'PERP INDIVIDUAL ID'
p2264
S''
sS'INCIDENT STAGE OF EXECUTION'
p2265
S''
sS'HUM TGT DESCRIPTION'
p2266
S''
sS'PHYS TGT EFFECT OF INCIDENT'
p2267
S''
sS'HUM TGT FOREIGN NATION'
p2268
S''
sS'INCIDENT DATE'
p2269
S''
sS'MESSAGE TEMPLATE'
p2270
S''
sS'PHYS TGT TOTAL NUMBER'
p2271
S''
ssS'TST1-MUC3-0029'
p2272
(dp2273
S'PERP ORGANIZATION CONFIDENCE'
p2274
S''
sS'HUM TGT EFFECT OF INCIDENT'
p2275
S''
sS'INCIDENT LOCATION'
p2276
S''
sS'PHYS TGT ID'
p2277
S''
sS'PERP INCIDENT CATEGORY'
p2278
S''
sS'PERP ORGANIZATION ID'
p2279
S''
sS'HUM TGT TYPE'
p2280
S''
sS'HUM TGT TOTAL NUMBER'
p2281
S''
sS'INCIDENT INSTRUMENT ID'
p2282
S''
sS'INCIDENT INSTRUMENT TYPE'
p2283
S''
sS'PHYS TGT FOREIGN NATION'
p2284
S''
sS'HUM TGT NUMBER'
p2285
S''
sS'PHYS TGT TYPE'
p2286
S''
sS'HUM TGT NAME'
p2287
S''
sS'INCIDENT TYPE'
p2288
S''
sS'PHYS TGT NUMBER'
p2289
S''
sS'PERP INDIVIDUAL ID'
p2290
S''
sS'INCIDENT STAGE OF EXECUTION'
p2291
S''
sS'HUM TGT DESCRIPTION'
p2292
S''
sS'PHYS TGT EFFECT OF INCIDENT'
p2293
S''
sS'HUM TGT FOREIGN NATION'
p2294
S''
sS'INCIDENT DATE'
p2295
S''
sS'MESSAGE TEMPLATE'
p2296
S''
sS'PHYS TGT TOTAL NUMBER'
p2297
S''
ssS'TST1-MUC3-0024'
p2298
(dp2299
S'PERP ORGANIZATION CONFIDENCE'
p2300
S'REPORTED AS FACT MEDELLIN CARTEL'
p2301
sS'HUM TGT EFFECT OF INCIDENT'
p2302
S'DEATH VICTIMS'
p2303
sS'INCIDENT LOCATION'
p2304
S'COLOMBIA'
p2305
sS'PHYS TGT ID'
p2306
S'BUILDING THAT HOUSES THE ADMINISTRATIVE DEPARTMENT OF SECURITY HEADQUARTERS OF THE COUNTRYS PRINCIPAL SECURITY ORGANIZATION'
p2307
sS'PERP INCIDENT CATEGORY'
p2308
S'TERRORIST ACT'
p2309
sS'PERP ORGANIZATION ID'
p2310
S'MEDELLIN CARTEL'
p2311
sS'HUM TGT TYPE'
p2312
S'LAW ENFORCEMENT MIGUEL MAZA MARQUEZ'
p2313
sS'HUM TGT TOTAL NUMBER'
p2314
S''
sS'INCIDENT INSTRUMENT ID'
p2315
S'CAR BOMB BUS CAR'
p2316
sS'INCIDENT INSTRUMENT TYPE'
p2317
S'VEHICLE BOMB CAR BOMB BUS CAR'
p2318
sS'VICTIMS'
p2319
S''
sS'PHYS TGT FOREIGN NATION'
p2320
S''
sS'HUM TGT NUMBER'
p2321
S'1 MIGUEL MAZA MARQUEZ'
p2322
sS'PHYS TGT TYPE'
p2323
S'LAW ENFORCEMENT FACILITY BUILDING THAT HOUSES THE ADMINISTRATIVE DEPARTMENT OF SECURITY HEADQUARTERS OF THE COUNTRYS PRINCIPAL SECURITY ORGANIZATION'
p2324
sS'HUM TGT NAME'
p2325
S'MIGUEL MAZA MARQUEZ'
p2326
sS'INCIDENT TYPE'
p2327
S'BOMBING'
p2328
sS'PHYS TGT NUMBER'
p2329
S'1 BUILDING THAT HOUSES THE ADMINISTRATIVE DEPARTMENT OF SECURITY HEADQUARTERS OF THE COUNTRYS PRINCIPAL SECURITY ORGANIZATION'
p2330
sS'PERP INDIVIDUAL ID'
p2331
S'MAN WHO IS A NATIVE OF MEDELLIN MEMBER OF THE SINISTER MEDELLIN CARTEL'
p2332
sS'INCIDENT STAGE OF EXECUTION'
p2333
S'ACCOMPLISHED'
p2334
sS'HUM TGT DESCRIPTION'
p2335
S'DAS DIRECTOR BRIGADIER GENERAL DAS DIRECTOR BRIGADIER GENERAL MIGUEL MAZA MARQUEZ'
p2336
sS'PHYS TGT EFFECT OF INCIDENT'
p2337
S'DESTROYED BUILDING THAT HOUSES THE ADMINISTRATIVE DEPARTMENT OF SECURITY HEADQUARTERS OF THE COUNTRYS PRINCIPAL SECURITY ORGANIZATION'
p2338
sS'HUM TGT FOREIGN NATION'
p2339
S''
sS'INCIDENT DATE'
p2340
S'06 DEC 89'
p2341
sS'MESSAGE TEMPLATE'
p2342
S'1'
sS'PHYS TGT TOTAL NUMBER'
p2343
S''
ssS'TST1-MUC3-0025'
p2344
(dp2345
S'PERP ORGANIZATION CONFIDENCE'
p2346
S''
sS'HUM TGT EFFECT OF INCIDENT'
p2347
S''
sS'INCIDENT LOCATION'
p2348
S''
sS'PHYS TGT ID'
p2349
S''
sS'PERP INCIDENT CATEGORY'
p2350
S''
sS'PERP ORGANIZATION ID'
p2351
S''
sS'HUM TGT TYPE'
p2352
S''
sS'HUM TGT TOTAL NUMBER'
p2353
S''
sS'INCIDENT INSTRUMENT ID'
p2354
S''
sS'INCIDENT INSTRUMENT TYPE'
p2355
S''
sS'PHYS TGT FOREIGN NATION'
p2356
S''
sS'HUM TGT NUMBER'
p2357
S''
sS'PHYS TGT TYPE'
p2358
S''
sS'HUM TGT NAME'
p2359
S''
sS'INCIDENT TYPE'
p2360
S''
sS'PHYS TGT NUMBER'
p2361
S''
sS'PERP INDIVIDUAL ID'
p2362
S''
sS'INCIDENT STAGE OF EXECUTION'
p2363
S''
sS'HUM TGT DESCRIPTION'
p2364
S''
sS'PHYS TGT EFFECT OF INCIDENT'
p2365
S''
sS'HUM TGT FOREIGN NATION'
p2366
S''
sS'INCIDENT DATE'
p2367
S''
sS'MESSAGE TEMPLATE'
p2368
S''
sS'PHYS TGT TOTAL NUMBER'
p2369
S''
ssS'TST1-MUC3-0026'
p2370
(dp2371
S'PERP ORGANIZATION CONFIDENCE'
p2372
S'SUSPECTED OR ACCUSED BY AUTHORITIES MOVEMENT OF NATIONAL RESTORATION MORENA'
p2373
sS'HUM TGT EFFECT OF INCIDENT'
p2374
S'DEATH PEASANTS'
p2375
sS'INCIDENT LOCATION'
p2376
S'COLOMBIA URABA REGION CITY'
p2377
sS'PHYS TGT ID'
p2378
S''
sS'PERP INCIDENT CATEGORY'
p2379
S''
sS'PERP ORGANIZATION ID'
p2380
S'ASSOCIATION OF MIDDLE MAGDALENA CATTLEMEN ACDEGAM'
p2381
sS'HUM TGT TYPE'
p2382
S'CIVILIAN PEASANTS'
p2383
sS'HUM TGT TOTAL NUMBER'
p2384
S''
sS'INCIDENT INSTRUMENT ID'
p2385
S''
sS'INCIDENT INSTRUMENT TYPE'
p2386
S''
sS'PHYS TGT FOREIGN NATION'
p2387
S''
sS'HUM TGT NUMBER'
p2388
S'PLURAL PEASANTS'
p2389
sS'PHYS TGT TYPE'
p2390
S''
sS'HUM TGT NAME'
p2391
S''
sS'INCIDENT TYPE'
p2392
S'ATTACK'
p2393
sS'PHYS TGT NUMBER'
p2394
S''
sS'PERP INDIVIDUAL ID'
p2395
S'GONZALO DE JESUS PEREZ'
p2396
sS'INCIDENT STAGE OF EXECUTION'
p2397
S'ACCOMPLISHED'
p2398
sS'HUM TGT DESCRIPTION'
p2399
S'PEASANTS'
p2400
sS'PHYS TGT EFFECT OF INCIDENT'
p2401
S''
sS'HUM TGT FOREIGN NATION'
p2402
S''
sS'INCIDENT DATE'
p2403
S'24 AUG 89'
p2404
sS'MESSAGE TEMPLATE'
p2405
S'1'
sS'PHYS TGT TOTAL NUMBER'
p2406
S''
ssS'TST1-MUC3-0027'
p2407
(dp2408
S'PERP ORGANIZATION CONFIDENCE'
p2409
S''
sS'HUM TGT EFFECT OF INCIDENT'
p2410
S''
sS'INCIDENT LOCATION'
p2411
S'PERU YUNGUYO CITY'
p2412
sS'PHYS TGT ID'
p2413
S'OFFICES OF THE DEPUTY MAYOR A CIVILIAN OFFICE OCCUPIED BY THE PROVINCIAL GOVERNOR'
p2414
sS'PERP INCIDENT CATEGORY'
p2415
S'TERRORIST ACT'
p2416
sS'PERP ORGANIZATION ID'
p2417
S''
sS'HUM TGT TYPE'
p2418
S''
sS'HUM TGT TOTAL NUMBER'
p2419
S''
sS'INCIDENT INSTRUMENT ID'
p2420
S'BOMB'
p2421
sS'INCIDENT INSTRUMENT TYPE'
p2422
S'BOMB BOMB'
p2423
sS'PHYS TGT FOREIGN NATION'
p2424
S''
sS'HUM TGT NUMBER'
p2425
S''
sS'PHYS TGT TYPE'
p2426
S'GOVERNMENT OFFICE OR RESIDENCE OFFICES OF THE DEPUTY MAYOR A CIVILIAN OFFICE OCCUPIED BY THE PROVINCIAL GOVERNOR'
p2427
sS'HUM TGT NAME'
p2428
S''
sS'INCIDENT TYPE'
p2429
S'BOMBING'
p2430
sS'PHYS TGT NUMBER'
p2431
S'1 PLURAL OFFICES OF THE DEPUTY MAYOR A CIVILIAN OFFICE OCCUPIED BY THE PROVINCIAL GOVERNOR'
p2432
sS'PERP INDIVIDUAL ID'
p2433
S'TERRORIST'
p2434
sS'INCIDENT STAGE OF EXECUTION'
p2435
S'ACCOMPLISHED'
p2436
sS'HUM TGT DESCRIPTION'
p2437
S''
sS'PHYS TGT EFFECT OF INCIDENT'
p2438
S''
sS'HUM TGT FOREIGN NATION'
p2439
S''
sS'INCIDENT DATE'
p2440
S'18 OCT 89'
p2441
sS'MESSAGE TEMPLATE'
p2442
S'1'
sS'PHYS TGT TOTAL NUMBER'
p2443
S''
ssS'TST1-MUC3-0020'
p2444
(dp2445
S'PERP ORGANIZATION CONFIDENCE'
p2446
S''
sS'HUM TGT EFFECT OF INCIDENT'
p2447
S''
sS'INCIDENT LOCATION'
p2448
S''
sS'PHYS TGT ID'
p2449
S''
sS'PERP INCIDENT CATEGORY'
p2450
S''
sS'PERP ORGANIZATION ID'
p2451
S''
sS'HUM TGT TYPE'
p2452
S''
sS'HUM TGT TOTAL NUMBER'
p2453
S''
sS'INCIDENT INSTRUMENT ID'
p2454
S''
sS'INCIDENT INSTRUMENT TYPE'
p2455
S''
sS'PHYS TGT FOREIGN NATION'
p2456
S''
sS'HUM TGT NUMBER'
p2457
S''
sS'PHYS TGT TYPE'
p2458
S''
sS'HUM TGT NAME'
p2459
S''
sS'INCIDENT TYPE'
p2460
S''
sS'PHYS TGT NUMBER'
p2461
S''
sS'PERP INDIVIDUAL ID'
p2462
S''
sS'INCIDENT STAGE OF EXECUTION'
p2463
S''
sS'HUM TGT DESCRIPTION'
p2464
S''
sS'PHYS TGT EFFECT OF INCIDENT'
p2465
S''
sS'HUM TGT FOREIGN NATION'
p2466
S''
sS'INCIDENT DATE'
p2467
S''
sS'MESSAGE TEMPLATE'
p2468
S''
sS'PHYS TGT TOTAL NUMBER'
p2469
S''
ssS'TST1-MUC3-0021'
p2470
(dp2471
S'PERP ORGANIZATION CONFIDENCE'
p2472
S''
sS'HUM TGT EFFECT OF INCIDENT'
p2473
S''
sS'INCIDENT LOCATION'
p2474
S''
sS'PHYS TGT ID'
p2475
S''
sS'PERP INCIDENT CATEGORY'
p2476
S''
sS'PERP ORGANIZATION ID'
p2477
S''
sS'HUM TGT TYPE'
p2478
S''
sS'HUM TGT TOTAL NUMBER'
p2479
S''
sS'INCIDENT INSTRUMENT ID'
p2480
S''
sS'INCIDENT INSTRUMENT TYPE'
p2481
S''
sS'PHYS TGT FOREIGN NATION'
p2482
S''
sS'HUM TGT NUMBER'
p2483
S''
sS'PHYS TGT TYPE'
p2484
S''
sS'HUM TGT NAME'
p2485
S''
sS'INCIDENT TYPE'
p2486
S''
sS'PHYS TGT NUMBER'
p2487
S''
sS'PERP INDIVIDUAL ID'
p2488
S''
sS'INCIDENT STAGE OF EXECUTION'
p2489
S''
sS'HUM TGT DESCRIPTION'
p2490
S''
sS'PHYS TGT EFFECT OF INCIDENT'
p2491
S''
sS'HUM TGT FOREIGN NATION'
p2492
S''
sS'INCIDENT DATE'
p2493
S''
sS'MESSAGE TEMPLATE'
p2494
S''
sS'PHYS TGT TOTAL NUMBER'
p2495
S''
ssS'TST1-MUC3-0022'
p2496
(dp2497
S'PERP ORGANIZATION CONFIDENCE'
p2498
S''
sS'HUM TGT EFFECT OF INCIDENT'
p2499
S'DEATH FATHERS'
p2500
sS'INCIDENT LOCATION'
p2501
S'EL SALVADOR'
p2502
sS'PHYS TGT ID'
p2503
S''
sS'PERP INCIDENT CATEGORY'
p2504
S'STATESPONSORED VIOLENCE'
p2505
sS'PERP ORGANIZATION ID'
p2506
S''
sS'HUM TGT TYPE'
p2507
S'CIVILIAN FATHERS'
p2508
sS'HUM TGT TOTAL NUMBER'
p2509
S''
sS'INCIDENT INSTRUMENT ID'
p2510
S''
sS'INCIDENT INSTRUMENT TYPE'
p2511
S''
sS'PHYS TGT FOREIGN NATION'
p2512
S''
sS'HUM TGT NUMBER'
p2513
S'PLURAL FATHERS'
p2514
sS'PHYS TGT TYPE'
p2515
S''
sS'HUM TGT NAME'
p2516
S''
sS'INCIDENT TYPE'
p2517
S'ATTACK'
p2518
sS'PHYS TGT NUMBER'
p2519
S''
sS'PERP INDIVIDUAL ID'
p2520
S'SECURITY FORCES'
p2521
sS'INCIDENT STAGE OF EXECUTION'
p2522
S'ACCOMPLISHED'
p2523
sS'HUM TGT DESCRIPTION'
p2524
S'FATHERS'
p2525
sS'PHYS TGT EFFECT OF INCIDENT'
p2526
S''
sS'HUM TGT FOREIGN NATION'
p2527
S''
sS'INCIDENT DATE'
p2528
S'15 MAR 89'
p2529
sS'MESSAGE TEMPLATE'
p2530
S'1 OPTIONAL'
p2531
sS'PHYS TGT TOTAL NUMBER'
p2532
S''
ssS'TST1-MUC3-0023'
p2533
(dp2534
S'PERP ORGANIZATION CONFIDENCE'
p2535
S''
sS'HUM TGT EFFECT OF INCIDENT'
p2536
S''
sS'INCIDENT LOCATION'
p2537
S''
sS'PHYS TGT ID'
p2538
S''
sS'PERP INCIDENT CATEGORY'
p2539
S''
sS'PERP ORGANIZATION ID'
p2540
S''
sS'HUM TGT TYPE'
p2541
S''
sS'HUM TGT TOTAL NUMBER'
p2542
S''
sS'INCIDENT INSTRUMENT ID'
p2543
S''
sS'INCIDENT INSTRUMENT TYPE'
p2544
S''
sS'PHYS TGT FOREIGN NATION'
p2545
S''
sS'HUM TGT NUMBER'
p2546
S''
sS'PHYS TGT TYPE'
p2547
S''
sS'HUM TGT NAME'
p2548
S''
sS'INCIDENT TYPE'
p2549
S''
sS'PHYS TGT NUMBER'
p2550
S''
sS'PERP INDIVIDUAL ID'
p2551
S''
sS'INCIDENT STAGE OF EXECUTION'
p2552
S''
sS'HUM TGT DESCRIPTION'
p2553
S''
sS'PHYS TGT EFFECT OF INCIDENT'
p2554
S''
sS'HUM TGT FOREIGN NATION'
p2555
S''
sS'INCIDENT DATE'
p2556
S''
sS'MESSAGE TEMPLATE'
p2557
S''
sS'PHYS TGT TOTAL NUMBER'
p2558
S''
ssS'TST1-MUC3-0039'
p2559
(dp2560
S'PERP ORGANIZATION CONFIDENCE'
p2561
S''
sS'HUM TGT EFFECT OF INCIDENT'
p2562
S''
sS'INCIDENT LOCATION'
p2563
S'CHILE'
p2564
sS'PHYS TGT ID'
p2565
S''
sS'PERP INCIDENT CATEGORY'
p2566
S''
sS'PERP ORGANIZATION ID'
p2567
S''
sS'HUM TGT TYPE'
p2568
S'SECURITY GUARD GUARD'
p2569
sS'HUM TGT TOTAL NUMBER'
p2570
S''
sS'INCIDENT INSTRUMENT ID'
p2571
S'STONES'
p2572
sS'INCIDENT INSTRUMENT TYPE'
p2573
S'STONE STONES'
p2574
sS'PHYS TGT FOREIGN NATION'
p2575
S''
sS'HUM TGT NUMBER'
p2576
S'1 GUARD'
p2577
sS'PHYS TGT TYPE'
p2578
S''
sS'HUM TGT NAME'
p2579
S''
sS'INCIDENT TYPE'
p2580
S'ATTACK'
p2581
sS'PHYS TGT NUMBER'
p2582
S''
sS'PERP INDIVIDUAL ID'
p2583
S'SOME 100 STUDENTS FROM THE APPLICATIONS SCHOOL DEMONSTRATORS STUDENTS'
p2584
sS'INCIDENT STAGE OF EXECUTION'
p2585
S'THREATENED'
p2586
sS'HUM TGT DESCRIPTION'
p2587
S'GUARD'
p2588
sS'PHYS TGT EFFECT OF INCIDENT'
p2589
S''
sS'HUM TGT FOREIGN NATION'
p2590
S'BRAZIL GUARD'
p2591
sS'INCIDENT DATE'
p2592
S'28 MAR 89'
p2593
sS'MESSAGE TEMPLATE'
p2594
S'3'
sS'PHYS TGT TOTAL NUMBER'
p2595
S''
ssS'TST1-MUC3-0038'
p2596
(dp2597
S'PERP ORGANIZATION CONFIDENCE'
p2598
S''
sS'HUM TGT EFFECT OF INCIDENT'
p2599
S'REGAINED FREEDOM ERNESTINA UMANZOR'
p2600
sS'INCIDENT LOCATION'
p2601
S'HONDURAS CIFUENTES TOWN'
p2602
sS'PHYS TGT ID'
p2603
S''
sS'PERP INCIDENT CATEGORY'
p2604
S''
sS'PERP ORGANIZATION ID'
p2605
S''
sS'HUM TGT TYPE'
p2606
S'CIVILIAN ERNESTINA UMANZOR'
p2607
sS'HUM TGT TOTAL NUMBER'
p2608
S''
sS'INCIDENT INSTRUMENT ID'
p2609
S''
sS'INCIDENT INSTRUMENT TYPE'
p2610
S''
sS'PHYS TGT FOREIGN NATION'
p2611
S''
sS'HUM TGT NUMBER'
p2612
S'1 ERNESTINA UMANZOR'
p2613
sS'PHYS TGT TYPE'
p2614
S''
sS'HUM TGT NAME'
p2615
S'ERNESTINA UMANZOR'
p2616
sS'INCIDENT TYPE'
p2617
S'KIDNAPPING'
p2618
sS'PHYS TGT NUMBER'
p2619
S''
sS'PERP INDIVIDUAL ID'
p2620
S''
sS'INCIDENT STAGE OF EXECUTION'
p2621
S'ACCOMPLISHED'
p2622
sS'HUM TGT DESCRIPTION'
p2623
S''
sS'PHYS TGT EFFECT OF INCIDENT'
p2624
S''
sS'HUM TGT FOREIGN NATION'
p2625
S'NICARAGUA ERNESTINA UMANZOR'
p2626
sS'INCIDENT DATE'
p2627
S'23 AUG 89'
p2628
sS'MESSAGE TEMPLATE'
p2629
S'1'
sS'PHYS TGT TOTAL NUMBER'
p2630
S''
ssS'TST1-MUC3-0033'
p2631
(dp2632
S'PERP ORGANIZATION CONFIDENCE'
p2633
S''
sS'HUM TGT EFFECT OF INCIDENT'
p2634
S''
sS'INCIDENT LOCATION'
p2635
S''
sS'PHYS TGT ID'
p2636
S''
sS'PERP INCIDENT CATEGORY'
p2637
S''
sS'PERP ORGANIZATION ID'
p2638
S''
sS'HUM TGT TYPE'
p2639
S''
sS'HUM TGT TOTAL NUMBER'
p2640
S''
sS'INCIDENT INSTRUMENT ID'
p2641
S''
sS'INCIDENT INSTRUMENT TYPE'
p2642
S''
sS'PHYS TGT FOREIGN NATION'
p2643
S''
sS'HUM TGT NUMBER'
p2644
S''
sS'PHYS TGT TYPE'
p2645
S''
sS'HUM TGT NAME'
p2646
S''
sS'INCIDENT TYPE'
p2647
S''
sS'PHYS TGT NUMBER'
p2648
S''
sS'PERP INDIVIDUAL ID'
p2649
S''
sS'INCIDENT STAGE OF EXECUTION'
p2650
S''
sS'HUM TGT DESCRIPTION'
p2651
S''
sS'PHYS TGT EFFECT OF INCIDENT'
p2652
S''
sS'HUM TGT FOREIGN NATION'
p2653
S''
sS'INCIDENT DATE'
p2654
S''
sS'MESSAGE TEMPLATE'
p2655
S''
sS'PHYS TGT TOTAL NUMBER'
p2656
S''
ssS'TST1-MUC3-0032'
p2657
(dp2658
S'PERP ORGANIZATION CONFIDENCE'
p2659
S''
sS'HUM TGT EFFECT OF INCIDENT'
p2660
S''
sS'INCIDENT LOCATION'
p2661
S''
sS'PHYS TGT ID'
p2662
S''
sS'PERP INCIDENT CATEGORY'
p2663
S''
sS'PERP ORGANIZATION ID'
p2664
S''
sS'HUM TGT TYPE'
p2665
S''
sS'HUM TGT TOTAL NUMBER'
p2666
S''
sS'INCIDENT INSTRUMENT ID'
p2667
S''
sS'INCIDENT INSTRUMENT TYPE'
p2668
S''
sS'PHYS TGT FOREIGN NATION'
p2669
S''
sS'HUM TGT NUMBER'
p2670
S''
sS'PHYS TGT TYPE'
p2671
S''
sS'HUM TGT NAME'
p2672
S''
sS'INCIDENT TYPE'
p2673
S''
sS'PHYS TGT NUMBER'
p2674
S''
sS'PERP INDIVIDUAL ID'
p2675
S''
sS'INCIDENT STAGE OF EXECUTION'
p2676
S''
sS'HUM TGT DESCRIPTION'
p2677
S''
sS'PHYS TGT EFFECT OF INCIDENT'
p2678
S''
sS'HUM TGT FOREIGN NATION'
p2679
S''
sS'INCIDENT DATE'
p2680
S''
sS'MESSAGE TEMPLATE'
p2681
S''
sS'PHYS TGT TOTAL NUMBER'
p2682
S''
ssS'TST1-MUC3-0031'
p2683
(dp2684
S'PERP ORGANIZATION CONFIDENCE'
p2685
S''
sS'HUM TGT EFFECT OF INCIDENT'
p2686
S''
sS'INCIDENT LOCATION'
p2687
S''
sS'PHYS TGT ID'
p2688
S''
sS'PERP INCIDENT CATEGORY'
p2689
S''
sS'PERP ORGANIZATION ID'
p2690
S''
sS'HUM TGT TYPE'
p2691
S''
sS'HUM TGT TOTAL NUMBER'
p2692
S''
sS'INCIDENT INSTRUMENT ID'
p2693
S''
sS'INCIDENT INSTRUMENT TYPE'
p2694
S''
sS'PHYS TGT FOREIGN NATION'
p2695
S''
sS'HUM TGT NUMBER'
p2696
S''
sS'PHYS TGT TYPE'
p2697
S''
sS'HUM TGT NAME'
p2698
S''
sS'INCIDENT TYPE'
p2699
S''
sS'PHYS TGT NUMBER'
p2700
S''
sS'PERP INDIVIDUAL ID'
p2701
S''
sS'INCIDENT STAGE OF EXECUTION'
p2702
S''
sS'HUM TGT DESCRIPTION'
p2703
S''
sS'PHYS TGT EFFECT OF INCIDENT'
p2704
S''
sS'HUM TGT FOREIGN NATION'
p2705
S''
sS'INCIDENT DATE'
p2706
S''
sS'MESSAGE TEMPLATE'
p2707
S''
sS'PHYS TGT TOTAL NUMBER'
p2708
S''
ssS'TST1-MUC3-0030'
p2709
(dp2710
S'PERP ORGANIZATION CONFIDENCE'
p2711
S''
sS'HUM TGT EFFECT OF INCIDENT'
p2712
S'DEATH CARLOS GALAN'
p2713
sS'INCIDENT LOCATION'
p2714
S'COLOMBIA'
p2715
sS'PHYS TGT ID'
p2716
S''
sS'PERP INCIDENT CATEGORY'
p2717
S'TERRORIST ACT'
p2718
sS'PERP ORGANIZATION ID'
p2719
S''
sS'HUM TGT TYPE'
p2720
S'POLITICAL FIGURE CARLOS GALAN'
p2721
sS'HUM TGT TOTAL NUMBER'
p2722
S''
sS'INCIDENT INSTRUMENT ID'
p2723
S''
sS'INCIDENT INSTRUMENT TYPE'
p2724
S''
sS'PHYS TGT FOREIGN NATION'
p2725
S''
sS'HUM TGT NUMBER'
p2726
S'1 CARLOS GALAN'
p2727
sS'PHYS TGT TYPE'
p2728
S''
sS'HUM TGT NAME'
p2729
S'CARLOS GALAN'
p2730
sS'INCIDENT TYPE'
p2731
S'ATTACK'
p2732
sS'PHYS TGT NUMBER'
p2733
S''
sS'PERP INDIVIDUAL ID'
p2734
S'DRUG TRAFFICKING BANDS'
p2735
sS'INCIDENT STAGE OF EXECUTION'
p2736
S'ACCOMPLISHED'
p2737
sS'HUM TGT DESCRIPTION'
p2738
S'GREAT COLOMBIAN LEADER LEADER CARLOS GALAN'
p2739
sS'PHYS TGT EFFECT OF INCIDENT'
p2740
S''
sS'HUM TGT FOREIGN NATION'
p2741
S''
sS'INCIDENT DATE'
p2742
S'16 SEP 89'
p2743
sS'MESSAGE TEMPLATE'
p2744
S'1'
sS'PHYS TGT TOTAL NUMBER'
p2745
S''
ssS'TST1-MUC3-0037'
p2746
(dp2747
S'PERP ORGANIZATION CONFIDENCE'
p2748
S''
sS'HUM TGT EFFECT OF INCIDENT'
p2749
S'INJURY NADINE ELKASHES'
p2750
sS'INCIDENT LOCATION'
p2751
S'EL SALVADOR'
p2752
sS'PHYS TGT ID'
p2753
S''
sS'PERP INCIDENT CATEGORY'
p2754
S''
sS'PERP ORGANIZATION ID'
p2755
S''
sS'HUM TGT TYPE'
p2756
S'CIVILIAN NADINE ELKASHES'
p2757
sS'HUM TGT TOTAL NUMBER'
p2758
S''
sS'INCIDENT INSTRUMENT ID'
p2759
S''
sS'INCIDENT INSTRUMENT TYPE'
p2760
S''
sS'PHYS TGT FOREIGN NATION'
p2761
S''
sS'HUM TGT NUMBER'
p2762
S'1 NADINE ELKASHES'
p2763
sS'PHYS TGT TYPE'
p2764
S''
sS'HUM TGT NAME'
p2765
S'NADINE ELKASHES'
p2766
sS'INCIDENT TYPE'
p2767
S'ATTACK'
p2768
sS'PHYS TGT NUMBER'
p2769
S''
sS'PERP INDIVIDUAL ID'
p2770
S''
sS'INCIDENT STAGE OF EXECUTION'
p2771
S'ACCOMPLISHED'
p2772
sS'HUM TGT DESCRIPTION'
p2773
S'DAUGHTER OF THE EGYPTIAN AMBASSADOR NADINE ELKASHES'
p2774
sS'PHYS TGT EFFECT OF INCIDENT'
p2775
S''
sS'HUM TGT FOREIGN NATION'
p2776
S'EGYPT NADINE ELKASHES'
p2777
sS'INCIDENT DATE'
p2778
S'13 NOV 89'
p2779
sS'MESSAGE TEMPLATE'
p2780
S'4'
sS'PHYS TGT TOTAL NUMBER'
p2781
S''
ssS'TST1-MUC3-0036'
p2782
(dp2783
S'PERP ORGANIZATION CONFIDENCE'
p2784
S''
sS'HUM TGT EFFECT OF INCIDENT'
p2785
S'INJURY SOLDIERS GROUP OF NINE US SOLDIERS GROUP OF NINE US SOLDIERS STATIONED AT THE PALMEROLA BASE WHO WERE VISITING THE CITY OF LA CEIBA SOLDIERS FROM PALMEROLA BASE'
p2786
sS'INCIDENT LOCATION'
p2787
S'HONDURAS LA CEIBA CITY'
p2788
sS'PHYS TGT ID'
p2789
S''
sS'PERP INCIDENT CATEGORY'
p2790
S''
sS'PERP ORGANIZATION ID'
p2791
S''
sS'HUM TGT TYPE'
p2792
S'ACTIVE MILITARY SOLDIERS GROUP OF NINE US SOLDIERS GROUP OF NINE US SOLDIERS STATIONED AT THE PALMEROLA BASE WHO WERE VISITING THE CITY OF LA CEIBA SOLDIERS FROM PALMEROLA BASE'
p2793
sS'HUM TGT TOTAL NUMBER'
p2794
S''
sS'INCIDENT INSTRUMENT ID'
p2795
S'HOMEMADE BOMB BOMB'
p2796
sS'INCIDENT INSTRUMENT TYPE'
p2797
S'BOMB HOMEMADE BOMB BOMB'
p2798
sS'PHYS TGT FOREIGN NATION'
p2799
S''
sS'HUM TGT NUMBER'
p2800
S'9 SOLDIERS GROUP OF NINE US SOLDIERS GROUP OF NINE US SOLDIERS STATIONED AT THE PALMEROLA BASE WHO WERE VISITING THE CITY OF LA CEIBA SOLDIERS FROM PALMEROLA BASE'
p2801
sS'PHYS TGT TYPE'
p2802
S''
sS'HUM TGT NAME'
p2803
S''
sS'INCIDENT TYPE'
p2804
S'BOMBING'
p2805
sS'PHYS TGT NUMBER'
p2806
S''
sS'PERP INDIVIDUAL ID'
p2807
S'SUSPECTS'
p2808
sS'INCIDENT STAGE OF EXECUTION'
p2809
S'ACCOMPLISHED'
p2810
sS'HUM TGT DESCRIPTION'
p2811
S'SOLDIERS GROUP OF NINE US SOLDIERS GROUP OF NINE US SOLDIERS STATIONED AT THE PALMEROLA BASE WHO WERE VISITING THE CITY OF LA CEIBA SOLDIERS FROM PALMEROLA BASE'
p2812
sS'PHYS TGT EFFECT OF INCIDENT'
p2813
S''
sS'HUM TGT FOREIGN NATION'
p2814
S'UNITED STATES SOLDIERS GROUP OF NINE US SOLDIERS GROUP OF NINE US SOLDIERS STATIONED AT THE PALMEROLA BASE WHO WERE VISITING THE CITY OF LA CEIBA SOLDIERS FROM PALMEROLA BASE'
p2815
sS'INCIDENT DATE'
p2816
S'13 JUL 89'
p2817
sS'MESSAGE TEMPLATE'
p2818
S'1'
sS'PHYS TGT TOTAL NUMBER'
p2819
S''
ssS'TST1-MUC3-0035'
p2820
(dp2821
S'PERP ORGANIZATION CONFIDENCE'
p2822
S'CLAIMED OR ADMITTED FARABUNDO MARTI NATIONAL LIBERATION FRONT FMLN'
p2823
sS'HUM TGT EFFECT OF INCIDENT'
p2824
S''
sS'INCIDENT LOCATION'
p2825
S'EL SALVADOR SAN SALVADOR CITY'
p2826
sS'PHYS TGT ID'
p2827
S'ELECTRICAL SYSTEM'
p2828
sS'PERP INCIDENT CATEGORY'
p2829
S'TERRORIST ACT'
p2830
sS'PERP ORGANIZATION ID'
p2831
S'FARABUNDO MARTI NATIONAL LIBERATION FRONT FMLN'
p2832
sS'HUM TGT TYPE'
p2833
S''
sS'HUM TGT TOTAL NUMBER'
p2834
S''
sS'INCIDENT INSTRUMENT ID'
p2835
S''
sS'INCIDENT INSTRUMENT TYPE'
p2836
S''
sS'PHYS TGT FOREIGN NATION'
p2837
S''
sS'HUM TGT NUMBER'
p2838
S''
sS'PHYS TGT TYPE'
p2839
S'ENERGY ELECTRICAL SYSTEM'
p2840
sS'HUM TGT NAME'
p2841
S''
sS'INCIDENT TYPE'
p2842
S'ATTACK'
p2843
sS'PHYS TGT NUMBER'
p2844
S'1 ELECTRICAL SYSTEM'
p2845
sS'PERP INDIVIDUAL ID'
p2846
S'URBAN COMMANDO UNITS UNITS'
p2847
sS'INCIDENT STAGE OF EXECUTION'
p2848
S'ACCOMPLISHED'
p2849
sS'HUM TGT DESCRIPTION'
p2850
S''
sS'PHYS TGT EFFECT OF INCIDENT'
p2851
S''
sS'HUM TGT FOREIGN NATION'
p2852
S''
sS'INCIDENT DATE'
p2853
S'25 MAY 89 26 MAY 89 25 MAY 89'
p2854
sS'MESSAGE TEMPLATE'
p2855
S'1'
sS'PHYS TGT TOTAL NUMBER'
p2856
S''
ssS'TST1-MUC3-0034'
p2857
(dp2858
S'PERP ORGANIZATION CONFIDENCE'
p2859
S''
sS'HUM TGT EFFECT OF INCIDENT'
p2860
S''
sS'INCIDENT LOCATION'
p2861
S''
sS'PHYS TGT ID'
p2862
S''
sS'PERP INCIDENT CATEGORY'
p2863
S''
sS'PERP ORGANIZATION ID'
p2864
S''
sS'HUM TGT TYPE'
p2865
S''
sS'HUM TGT TOTAL NUMBER'
p2866
S''
sS'INCIDENT INSTRUMENT ID'
p2867
S''
sS'INCIDENT INSTRUMENT TYPE'
p2868
S''
sS'PHYS TGT FOREIGN NATION'
p2869
S''
sS'HUM TGT NUMBER'
p2870
S''
sS'PHYS TGT TYPE'
p2871
S''
sS'HUM TGT NAME'
p2872
S''
sS'INCIDENT TYPE'
p2873
S''
sS'PHYS TGT NUMBER'
p2874
S''
sS'PERP INDIVIDUAL ID'
p2875
S''
sS'INCIDENT STAGE OF EXECUTION'
p2876
S''
sS'HUM TGT DESCRIPTION'
p2877
S''
sS'PHYS TGT EFFECT OF INCIDENT'
p2878
S''
sS'HUM TGT FOREIGN NATION'
p2879
S''
sS'INCIDENT DATE'
p2880
S''
sS'MESSAGE TEMPLATE'
p2881
S''
sS'PHYS TGT TOTAL NUMBER'
p2882
S''
ssS'TST1-MUC3-0048'
p2883
(dp2884
S'PERP ORGANIZATION CONFIDENCE'
p2885
S''
sS'HUM TGT EFFECT OF INCIDENT'
p2886
S'DEATH PERSON'
p2887
sS'INCIDENT LOCATION'
p2888
S'ECUADOR CARCHI PROVINCE TULCAN CITY'
p2889
sS'PHYS TGT ID'
p2890
S''
sS'PERP INCIDENT CATEGORY'
p2891
S''
sS'PERP ORGANIZATION ID'
p2892
S''
sS'HUM TGT TYPE'
p2893
S'CIVILIAN PERSON'
p2894
sS'HUM TGT TOTAL NUMBER'
p2895
S''
sS'INCIDENT INSTRUMENT ID'
p2896
S''
sS'INCIDENT INSTRUMENT TYPE'
p2897
S''
sS'PHYS TGT FOREIGN NATION'
p2898
S''
sS'HUM TGT NUMBER'
p2899
S'1 PERSON'
p2900
sS'PHYS TGT TYPE'
p2901
S''
sS'HUM TGT NAME'
p2902
S''
sS'INCIDENT TYPE'
p2903
S'ATTACK'
p2904
sS'PHYS TGT NUMBER'
p2905
S''
sS'PERP INDIVIDUAL ID'
p2906
S''
sS'INCIDENT STAGE OF EXECUTION'
p2907
S'ACCOMPLISHED'
p2908
sS'HUM TGT DESCRIPTION'
p2909
S'PERSON'
p2910
sS'PHYS TGT EFFECT OF INCIDENT'
p2911
S''
sS'HUM TGT FOREIGN NATION'
p2912
S''
sS'INCIDENT DATE'
p2913
S'06 JUN 89'
p2914
sS'MESSAGE TEMPLATE'
p2915
S'1'
sS'PHYS TGT TOTAL NUMBER'
p2916
S''
ssS'TST1-MUC3-0049'
p2917
(dp2918
S'PERP ORGANIZATION CONFIDENCE'
p2919
S'REPORTED AS FACT REVOLUTIONARY ARMED FORCES OF COLOMBIA FARC'
p2920
sS'HUM TGT EFFECT OF INCIDENT'
p2921
S''
sS'FUEL TRUCK FUEL TRUCK CARRYI'
p2922
S'NG 3000 GALLONS OF GASOLINE TRUCK'
p2923
sS'INCIDENT LOCATION'
p2924
S'COLOMBIA'
p2925
sS'PHYS TGT ID'
p2926
S'BALBOA HOSPITAL AMBULANCE AMBULANCE'
p2927
sS'PERP INCIDENT CATEGORY'
p2928
S'TERRORIST ACT'
p2929
sS'PERP ORGANIZATION ID'
p2930
S'REVOLUTIONARY ARMED FORCES OF COLOMBIA FARC'
p2931
sS'HUM TGT TYPE'
p2932
S''
sS'HUM TGT TOTAL NUMBER'
p2933
S''
sS'INCIDENT INSTRUMENT ID'
p2934
S''
sS'INCIDENT INSTRUMENT TYPE'
p2935
S''
sS'PHYS TGT FOREIGN NATION'
p2936
S''
sS'HUM TGT NUMBER'
p2937
S''
sS'PHYS TGT TYPE'
p2938
S'TRANSPORT VEHICLE STATION WAGON'
p2939
sS'HUM TGT NAME'
p2940
S''
sS'INCIDENT TYPE'
p2941
S'ARSON'
p2942
sS'PHYS TGT NUMBER'
p2943
S'1 BALBOA HOSPITAL AMBULANCE AMBULANCE'
p2944
sS'PERP INDIVIDUAL ID'
p2945
S'MEMBERS OF THE 8TH FRONT'
p2946
sS'INCIDENT STAGE OF EXECUTION'
p2947
S'ACCOMPLISHED'
p2948
sS'HUM TGT DESCRIPTION'
p2949
S''
sS'PHYS TGT EFFECT OF INCIDENT'
p2950
S'SOME DAMAGE STATION WAGON'
p2951
sS'HUM TGT FOREIGN NATION'
p2952
S''
sS'STATION WAGON'
p2953
S''
sS'INCIDENT DATE'
p2954
S'23 MAR 90'
p2955
sS'MESSAGE TEMPLATE'
p2956
S'3'
sS'PHYS TGT TOTAL NUMBER'
p2957
S'3'
ssS'TST1-MUC3-0046'
p2958
(dp2959
S'PERP ORGANIZATION CONFIDENCE'
p2960
S'REPORTED AS FACT ARENA NATIONALIST REPUBLICAN ALLIANCE GOVERNMENT'
p2961
sS'HUM TGT EFFECT OF INCIDENT'
p2962
S''
sS'INCIDENT LOCATION'
p2963
S'EL SALVADOR'
p2964
sS'PHYS TGT ID'
p2965
S''
sS'PERP INCIDENT CATEGORY'
p2966
S'STATESPONSORED VIOLENCE'
p2967
sS'PERP ORGANIZATION ID'
p2968
S'ARENA NATIONALIST REPUBLICAN ALLIANCE GOVERNMENT'
p2969
sS'HUM TGT TYPE'
p2970
S'GOVERNMENT OFFICIAL ANTONIO RODRIGUEZ PORTH'
p2971
sS'HUM TGT TOTAL NUMBER'
p2972
S''
sS'INCIDENT INSTRUMENT ID'
p2973
S''
sS'INCIDENT INSTRUMENT TYPE'
p2974
S''
sS'PHYS TGT FOREIGN NATION'
p2975
S''
sS'EDGAR CHACON'
p2976
S''
sS'HUM TGT NUMBER'
p2977
S'1 ANTONIO RODRIGUEZ PORTH'
p2978
sS'PHYS TGT TYPE'
p2979
S''
sS'HUM TGT NAME'
p2980
S'ANTONIO RODRIGUEZ PORTH'
p2981
sS'INCIDENT TYPE'
p2982
S'ATTACK'
p2983
sS'PHYS TGT NUMBER'
p2984
S''
sS'PERP INDIVIDUAL ID'
p2985
S''
sS'INCIDENT STAGE OF EXECUTION'
p2986
S'ACCOMPLISHED'
p2987
sS'HUM TGT DESCRIPTION'
p2988
S'PRESIDENCY MINISTER PRESIDENCY MINISTER ANTONIO RODRIGUEZ PORTH'
p2989
sS'PHYS TGT EFFECT OF INCIDENT'
p2990
S''
sS'HUM TGT FOREIGN NATION'
p2991
S''
sS'INCIDENT DATE'
p2992
S'06 JUL 89'
p2993
sS'MESSAGE TEMPLATE'
p2994
S'5'
sS'PHYS TGT TOTAL NUMBER'
p2995
S''
ssS'TST1-MUC3-0047'
p2996
(dp2997
S'PERP ORGANIZATION CONFIDENCE'
p2998
S''
sS'HUM TGT EFFECT OF INCIDENT'
p2999
S''
sS'INCIDENT LOCATION'
p3000
S''
sS'PHYS TGT ID'
p3001
S''
sS'PERP INCIDENT CATEGORY'
p3002
S''
sS'PERP ORGANIZATION ID'
p3003
S''
sS'HUM TGT TYPE'
p3004
S''
sS'HUM TGT TOTAL NUMBER'
p3005
S''
sS'INCIDENT INSTRUMENT ID'
p3006
S''
sS'INCIDENT INSTRUMENT TYPE'
p3007
S''
sS'PHYS TGT FOREIGN NATION'
p3008
S''
sS'HUM TGT NUMBER'
p3009
S''
sS'PHYS TGT TYPE'
p3010
S''
sS'HUM TGT NAME'
p3011
S''
sS'INCIDENT TYPE'
p3012
S''
sS'PHYS TGT NUMBER'
p3013
S''
sS'PERP INDIVIDUAL ID'
p3014
S''
sS'INCIDENT STAGE OF EXECUTION'
p3015
S''
sS'HUM TGT DESCRIPTION'
p3016
S''
sS'PHYS TGT EFFECT OF INCIDENT'
p3017
S''
sS'HUM TGT FOREIGN NATION'
p3018
S''
sS'INCIDENT DATE'
p3019
S''
sS'MESSAGE TEMPLATE'
p3020
S''
sS'PHYS TGT TOTAL NUMBER'
p3021
S''
ssS'TST1-MUC3-0044'
p3022
(dp3023
S'PERP ORGANIZATION CONFIDENCE'
p3024
S'SUSPECTED OR ACCUSED ARMED FORCES'
p3025
sS'HUM TGT EFFECT OF INCIDENT'
p3026
S'DEATH JESUIT PRIESTS PRIESTS'
p3027
sS'INCIDENT LOCATION'
p3028
S'EL SALVADOR'
p3029
sS'PHYS TGT ID'
p3030
S''
sS'PERP INCIDENT CATEGORY'
p3031
S'STATESPONSORED VIOLENCE'
p3032
sS'PERP ORGANIZATION ID'
p3033
S'ARMED FORCES'
p3034
sS'HUM TGT TYPE'
p3035
S'CIVILIAN JESUIT PRIESTS PRIESTS'
p3036
sS'HUM TGT TOTAL NUMBER'
p3037
S''
sS'INCIDENT INSTRUMENT ID'
p3038
S''
sS'INCIDENT INSTRUMENT TYPE'
p3039
S''
sS'PHYS TGT FOREIGN NATION'
p3040
S''
sS'HUM TGT NUMBER'
p3041
S'PLURAL JESUIT PRIESTS PRIESTS'
p3042
sS'PHYS TGT TYPE'
p3043
S''
sS'HUM TGT NAME'
p3044
S''
sS'INCIDENT TYPE'
p3045
S'ATTACK'
p3046
sS'PHYS TGT NUMBER'
p3047
S''
sS'PERP INDIVIDUAL ID'
p3048
S'SOME MEMBERS OF THE INSTITUTION SOME ARMED FORCES MEMBERS'
p3049
sS'INCIDENT STAGE OF EXECUTION'
p3050
S'ACCOMPLISHED'
p3051
sS'HUM TGT DESCRIPTION'
p3052
S'JESUIT PRIESTS PRIESTS'
p3053
sS'PHYS TGT EFFECT OF INCIDENT'
p3054
S''
sS'HUM TGT FOREIGN NATION'
p3055
S''
sS'INCIDENT DATE'
p3056
S'02 MAY 90'
p3057
sS'MESSAGE TEMPLATE'
p3058
S'1'
sS'PHYS TGT TOTAL NUMBER'
p3059
S''
ssS'TST1-MUC3-0045'
p3060
(dp3061
S'PERP ORGANIZATION CONFIDENCE'
p3062
S'SUSPECTED OR ACCUSED BY AUTHORITIES ARMED FORCES TREASURY POLICE'
p3063
sS'HUM TGT EFFECT OF INCIDENT'
p3064
S'DEATH PERSONS'
p3065
sS'INCIDENT LOCATION'
p3066
S'EL SALVADOR'
p3067
sS'PHYS TGT ID'
p3068
S''
sS'PERP INCIDENT CATEGORY'
p3069
S'STATESPONSORED VIOLENCE'
p3070
sS'PERP ORGANIZATION ID'
p3071
S'ARMED FORCES TREASURY POLICE'
p3072
sS'HUM TGT TYPE'
p3073
S'CIVILIAN PERSONS'
p3074
sS'HUM TGT TOTAL NUMBER'
p3075
S''
sS'INCIDENT INSTRUMENT ID'
p3076
S''
sS'INCIDENT INSTRUMENT TYPE'
p3077
S'GUN'
p3078
sS'PHYS TGT FOREIGN NATION'
p3079
S''
sS'HUM TGT NUMBER'
p3080
S'6 JESUITS'
p3081
sS'PHYS TGT TYPE'
p3082
S''
sS'HUM TGT NAME'
p3083
S''
sS'INCIDENT TYPE'
p3084
S'ATTACK'
p3085
sS'PHYS TGT NUMBER'
p3086
S''
sS'PERP INDIVIDUAL ID'
p3087
S'TROOPS FROM THAT SECURITY CORPS GROUP OF ARMED INDIVIDUALS WEARING MILITARY UNIFORMS ARMED INDIVIDUALS ARMED INDIVIDUALS WEARING MILITARY UNIFORMS'
p3088
sS'INCIDENT STAGE OF EXECUTION'
p3089
S'ACCOMPLISHED'
p3090
sS'HUM TGT DESCRIPTION'
p3091
S'JESUITS'
p3092
sS'PHYS TGT EFFECT OF INCIDENT'
p3093
S''
sS'HUM TGT FOREIGN NATION'
p3094
S''
sS'PERSONS'
p3095
S''
sS'INCIDENT DATE'
p3096
S'16 NOV 89'
p3097
sS'MESSAGE TEMPLATE'
p3098
S'1'
sS'PHYS TGT TOTAL NUMBER'
p3099
S''
ssS'TST1-MUC3-0042'
p3100
(dp3101
S'PERP ORGANIZATION CONFIDENCE'
p3102
S''
sS'HUM TGT EFFECT OF INCIDENT'
p3103
S''
sS'INCIDENT LOCATION'
p3104
S''
sS'PHYS TGT ID'
p3105
S''
sS'PERP INCIDENT CATEGORY'
p3106
S''
sS'PERP ORGANIZATION ID'
p3107
S''
sS'HUM TGT TYPE'
p3108
S''
sS'HUM TGT TOTAL NUMBER'
p3109
S''
sS'INCIDENT INSTRUMENT ID'
p3110
S''
sS'INCIDENT INSTRUMENT TYPE'
p3111
S''
sS'PHYS TGT FOREIGN NATION'
p3112
S''
sS'HUM TGT NUMBER'
p3113
S''
sS'PHYS TGT TYPE'
p3114
S''
sS'HUM TGT NAME'
p3115
S''
sS'INCIDENT TYPE'
p3116
S''
sS'PHYS TGT NUMBER'
p3117
S''
sS'PERP INDIVIDUAL ID'
p3118
S''
sS'INCIDENT STAGE OF EXECUTION'
p3119
S''
sS'HUM TGT DESCRIPTION'
p3120
S''
sS'PHYS TGT EFFECT OF INCIDENT'
p3121
S''
sS'HUM TGT FOREIGN NATION'
p3122
S''
sS'INCIDENT DATE'
p3123
S''
sS'MESSAGE TEMPLATE'
p3124
S''
sS'PHYS TGT TOTAL NUMBER'
p3125
S''
ssS'TST1-MUC3-0043'
p3126
(dp3127
S'PERP ORGANIZATION CONFIDENCE'
p3128
S''
sS'HUM TGT EFFECT OF INCIDENT'
p3129
S''
sS'INCIDENT LOCATION'
p3130
S''
sS'PHYS TGT ID'
p3131
S''
sS'PERP INCIDENT CATEGORY'
p3132
S''
sS'PERP ORGANIZATION ID'
p3133
S''
sS'HUM TGT TYPE'
p3134
S''
sS'HUM TGT TOTAL NUMBER'
p3135
S''
sS'INCIDENT INSTRUMENT ID'
p3136
S''
sS'INCIDENT INSTRUMENT TYPE'
p3137
S''
sS'PHYS TGT FOREIGN NATION'
p3138
S''
sS'HUM TGT NUMBER'
p3139
S''
sS'PHYS TGT TYPE'
p3140
S''
sS'HUM TGT NAME'
p3141
S''
sS'INCIDENT TYPE'
p3142
S''
sS'PHYS TGT NUMBER'
p3143
S''
sS'PERP INDIVIDUAL ID'
p3144
S''
sS'INCIDENT STAGE OF EXECUTION'
p3145
S''
sS'HUM TGT DESCRIPTION'
p3146
S''
sS'PHYS TGT EFFECT OF INCIDENT'
p3147
S''
sS'HUM TGT FOREIGN NATION'
p3148
S''
sS'INCIDENT DATE'
p3149
S''
sS'MESSAGE TEMPLATE'
p3150
S''
sS'PHYS TGT TOTAL NUMBER'
p3151
S''
ssS'TST1-MUC3-0040'
p3152
(dp3153
S'PERP ORGANIZATION CONFIDENCE'
p3154
S'POSSIBLE REPORTED AS FACT THE EXTRADITABLES THE EXTRADITABLES'
p3155
sS'HUM TGT EFFECT OF INCIDENT'
p3156
S'DEATH DEAD'
p3157
sS'INCIDENT LOCATION'
p3158
S'COLOMBIA BOGOTA CITY'
p3159
sS'PHYS TGT ID'
p3160
S'ADMINISTRATIVE DEPARTMENT OF SECURITY DAS'
p3161
sS'PERP INCIDENT CATEGORY'
p3162
S'TERRORIST ACT'
p3163
sS'PERP ORGANIZATION ID'
p3164
S'THE EXTRADITABLES THE EXTRADITABLES'
p3165
sS'HUM TGT TYPE'
p3166
S'LAW ENFORCEMENT CIVILIAN DEAD'
p3167
sS'HUM TGT TOTAL NUMBER'
p3168
S''
sS'INCIDENT INSTRUMENT ID'
p3169
S'BUS BOMB CAR BOMBS'
p3170
sS'INCIDENT INSTRUMENT TYPE'
p3171
S'VEHICLE BOMB BUS BOMB CAR BOMBS'
p3172
sS'PHYS TGT FOREIGN NATION'
p3173
S''
sS'HUM TGT NUMBER'
p3174
S'67 DEAD'
p3175
sS'PHYS TGT TYPE'
p3176
S'LAW ENFORCEMENT FACILITY ADMINISTRATIVE DEPARTMENT OF SECURITY DAS'
p3177
sS'HUM TGT NAME'
p3178
S''
sS'INCIDENT TYPE'
p3179
S'BOMBING'
p3180
sS'PHYS TGT NUMBER'
p3181
S'1 ADMINISTRATIVE DEPARTMENT OF SECURITY DAS'
p3182
sS'PERP INDIVIDUAL ID'
p3183
S'DRUG TRAFFICKERS'
p3184
sS'INCIDENT STAGE OF EXECUTION'
p3185
S'ACCOMPLISHED'
p3186
sS'HUM TGT DESCRIPTION'
p3187
S'DEAD'
p3188
sS'PHYS TGT EFFECT OF INCIDENT'
p3189
S'DESTROYED ADMINISTRATIVE DEPARTMENT OF SECURITY DAS'
p3190
sS'HUM TGT FOREIGN NATION'
p3191
S''
sS'INCIDENT DATE'
p3192
S'27 NOV 89 04 JAN 90'
p3193
sS'MESSAGE TEMPLATE'
p3194
S'3'
sS'PHYS TGT TOTAL NUMBER'
p3195
S'1'
ssS'TST1-MUC3-0041'
p3196
(dp3197
S'PERP ORGANIZATION CONFIDENCE'
p3198
S''
sS'HUM TGT EFFECT OF INCIDENT'
p3199
S''
sS'INCIDENT LOCATION'
p3200
S''
sS'PHYS TGT ID'
p3201
S''
sS'PERP INCIDENT CATEGORY'
p3202
S''
sS'PERP ORGANIZATION ID'
p3203
S''
sS'HUM TGT TYPE'
p3204
S''
sS'HUM TGT TOTAL NUMBER'
p3205
S''
sS'INCIDENT INSTRUMENT ID'
p3206
S''
sS'INCIDENT INSTRUMENT TYPE'
p3207
S''
sS'PHYS TGT FOREIGN NATION'
p3208
S''
sS'HUM TGT NUMBER'
p3209
S''
sS'PHYS TGT TYPE'
p3210
S''
sS'HUM TGT NAME'
p3211
S''
sS'INCIDENT TYPE'
p3212
S''
sS'PHYS TGT NUMBER'
p3213
S''
sS'PERP INDIVIDUAL ID'
p3214
S''
sS'INCIDENT STAGE OF EXECUTION'
p3215
S''
sS'HUM TGT DESCRIPTION'
p3216
S''
sS'PHYS TGT EFFECT OF INCIDENT'
p3217
S''
sS'HUM TGT FOREIGN NATION'
p3218
S''
sS'INCIDENT DATE'
p3219
S''
sS'MESSAGE TEMPLATE'
p3220
S''
sS'PHYS TGT TOTAL NUMBER'
p3221
S''
ss.