(dp1
S'TST4-MUC4-0088'
p2
(dp3
S'PERP ORGANIZATION CONFIDENCE'
p4
S'CLAIMED OR ADMITTED MOR WORKERS REVOLUTIONARY MOVEMENT'
p5
sS'HUM TGT EFFECT OF INCIDENT'
p6
S'DEATH JUAN CARLOS VEGA LLONA'
p7
sS'INCIDENT LOCATION'
p8
S'BOLIVIA LA PAZ CITY'
p9
sS'PHYS TGT ID'
p10
S''
sS'PERP INCIDENT CATEGORY'
p11
S'TERRORIST ACT'
p12
sS'PERP ORGANIZATION ID'
p13
S'MOR WORKERS REVOLUTIONARY MOVEMENT'
p14
sS'HUM TGT TYPE'
p15
S'DIPLOMAT GOVERNMENT OFFICIAL JUAN CARLOS VEGA LLONA'
p16
sS'HUM TGT TOTAL NUMBER'
p17
S''
sS'INCIDENT INSTRUMENT ID'
p18
S''
sS'INCIDENT INSTRUMENT TYPE'
p19
S''
sS'PHYS TGT FOREIGN NATION'
p20
S''
sS'HUM TGT NUMBER'
p21
S'1 JUAN CARLOS VEGA LLONA'
p22
sS'PHYS TGT TYPE'
p23
S''
sS'HUM TGT NAME'
p24
S'JUAN CARLOS VEGA LLONA'
p25
sS'INCIDENT TYPE'
p26
S'ATTACK'
p27
sS'PHYS TGT NUMBER'
p28
S''
sS'PERP INDIVIDUAL ID'
p29
S''
sS'INCIDENT STAGE OF EXECUTION'
p30
S'ACCOMPLISHED'
p31
sS'HUM TGT DESCRIPTION'
p32
S'NAVAL ATTACHE JUAN CARLOS VEGA LLONA'
p33
sS'PHYS TGT EFFECT OF INCIDENT'
p34
S''
sS'HUM TGT FOREIGN NATION'
p35
S'PERU JUAN CARLOS VEGA LLONA'
p36
sS'INCIDENT DATE'
p37
S'10 DEC 88'
p38
sS'MESSAGE TEMPLATE'
p39
S'5 OPTIONAL'
p40
sS'PHYS TGT TOTAL NUMBER'
p41
S''
ssS'TST4-MUC4-0089'
p42
(dp43
S'PERP ORGANIZATION CONFIDENCE'
p44
S''
sS'HUM TGT EFFECT OF INCIDENT'
p45
S''
sS'INCIDENT LOCATION'
p46
S''
sS'PHYS TGT ID'
p47
S''
sS'PERP INCIDENT CATEGORY'
p48
S''
sS'PERP ORGANIZATION ID'
p49
S''
sS'HUM TGT TYPE'
p50
S''
sS'HUM TGT TOTAL NUMBER'
p51
S''
sS'INCIDENT INSTRUMENT ID'
p52
S''
sS'INCIDENT INSTRUMENT TYPE'
p53
S''
sS'PHYS TGT FOREIGN NATION'
p54
S''
sS'HUM TGT NUMBER'
p55
S''
sS'PHYS TGT TYPE'
p56
S''
sS'HUM TGT NAME'
p57
S''
sS'INCIDENT TYPE'
p58
S''
sS'PHYS TGT NUMBER'
p59
S''
sS'PERP INDIVIDUAL ID'
p60
S''
sS'INCIDENT STAGE OF EXECUTION'
p61
S''
sS'HUM TGT DESCRIPTION'
p62
S''
sS'PHYS TGT EFFECT OF INCIDENT'
p63
S''
sS'HUM TGT FOREIGN NATION'
p64
S''
sS'INCIDENT DATE'
p65
S''
sS'MESSAGE TEMPLATE'
p66
S''
sS'PHYS TGT TOTAL NUMBER'
p67
S''
ssS'TST4-MUC4-0082'
p68
(dp69
S'PERP ORGANIZATION CONFIDENCE'
p70
S''
sS'HUM TGT EFFECT OF INCIDENT'
p71
S''
sS'INCIDENT LOCATION'
p72
S''
sS'PHYS TGT ID'
p73
S''
sS'PERP INCIDENT CATEGORY'
p74
S''
sS'PERP ORGANIZATION ID'
p75
S''
sS'HUM TGT TYPE'
p76
S''
sS'HUM TGT TOTAL NUMBER'
p77
S''
sS'INCIDENT INSTRUMENT ID'
p78
S''
sS'INCIDENT INSTRUMENT TYPE'
p79
S''
sS'PHYS TGT FOREIGN NATION'
p80
S''
sS'HUM TGT NUMBER'
p81
S''
sS'PHYS TGT TYPE'
p82
S''
sS'HUM TGT NAME'
p83
S''
sS'INCIDENT TYPE'
p84
S''
sS'PHYS TGT NUMBER'
p85
S''
sS'PERP INDIVIDUAL ID'
p86
S''
sS'INCIDENT STAGE OF EXECUTION'
p87
S''
sS'HUM TGT DESCRIPTION'
p88
S''
sS'PHYS TGT EFFECT OF INCIDENT'
p89
S''
sS'HUM TGT FOREIGN NATION'
p90
S''
sS'INCIDENT DATE'
p91
S''
sS'MESSAGE TEMPLATE'
p92
S''
sS'PHYS TGT TOTAL NUMBER'
p93
S''
ssS'TST4-MUC4-0083'
p94
(dp95
S'PERP ORGANIZATION CONFIDENCE'
p96
S''
sS'HUM TGT EFFECT OF INCIDENT'
p97
S'INJURY MAURICIO VERA BARRIOS'
p98
sS'INCIDENT LOCATION'
p99
S'CHILE ATACAMA OFFICIAL REGION COPIAPO CITY CHILE COPIAPO CITY'
p100
sS'PHYS TGT ID'
p101
S''
sS'PERP INCIDENT CATEGORY'
p102
S''
sS'PERP ORGANIZATION ID'
p103
S''
sS'HUM TGT TYPE'
p104
S'CIVILIAN MAURICIO VERA BARRIOS'
p105
sS'HUM TGT TOTAL NUMBER'
p106
S''
sS'INCIDENT INSTRUMENT ID'
p107
S'BOMB'
p108
sS'INCIDENT INSTRUMENT TYPE'
p109
S'BOMB BOMB'
p110
sS'PHYS TGT FOREIGN NATION'
p111
S''
sS'HUM TGT NUMBER'
p112
S'1 MAURICIO VERA BARRIOS'
p113
sS'PHYS TGT TYPE'
p114
S''
sS'HUM TGT NAME'
p115
S'MAURICIO VERA BARRIOS'
p116
sS'INCIDENT TYPE'
p117
S'BOMBING'
p118
sS'PHYS TGT NUMBER'
p119
S''
sS'PERP INDIVIDUAL ID'
p120
S''
sS'INCIDENT STAGE OF EXECUTION'
p121
S'ACCOMPLISHED'
p122
sS'HUM TGT DESCRIPTION'
p123
S'3DYEAR STUDENT IN THE CATHOLIC LYCEUM OF ATACAMA STUDENT IN THE CATHOLIC LYCEUM OF ATACAMA 3DYEAR STUDENT STUDENT MINOR MAURICIO VERA BARRIOS'
p124
sS'PHYS TGT EFFECT OF INCIDENT'
p125
S''
sS'HUM TGT FOREIGN NATION'
p126
S''
sS'INCIDENT DATE'
p127
S'09 DEC 88'
p128
sS'MESSAGE TEMPLATE'
p129
S'1'
sS'PHYS TGT TOTAL NUMBER'
p130
S''
ssS'TST4-MUC4-0080'
p131
(dp132
S'PERP ORGANIZATION CONFIDENCE'
p133
S''
sS'HUM TGT EFFECT OF INCIDENT'
p134
S'DEATH GUSTAVO DE JESUS ESCOBAR FERNANDEZ'
p135
sS'INCIDENT LOCATION'
p136
S'COLOMBIA BOGOTA CITY COLOMBIA'
p137
sS'PHYS TGT ID'
p138
S''
sS'PERP INCIDENT CATEGORY'
p139
S''
sS'PERP ORGANIZATION ID'
p140
S''
sS'HUM TGT TYPE'
p141
S'LEGAL OR JUDICIAL CIVILIAN GUSTAVO DE JESUS ESCOBAR FERNANDEZ'
p142
sS'HUM TGT TOTAL NUMBER'
p143
S''
sS'INCIDENT INSTRUMENT ID'
p144
S'765 CALIBER PISTOL PISTOL'
p145
sS'INCIDENT INSTRUMENT TYPE'
p146
S'HANDGUN 765 CALIBER PISTOL PISTOL'
p147
sS'PHYS TGT FOREIGN NATION'
p148
S''
sS'HUM TGT NUMBER'
p149
S'1 GUSTAVO DE JESUS ESCOBAR FERNANDEZ'
p150
sS'PHYS TGT TYPE'
p151
S''
sS'HUM TGT NAME'
p152
S'GUSTAVO DE JESUS ESCOBAR FERNANDEZ'
p153
sS'INCIDENT TYPE'
p154
S'ATTACK'
p155
sS'PHYS TGT NUMBER'
p156
S''
sS'MARIA FLOREZ GUTIERREZ'
p157
S''
sS'PERP INDIVIDUAL ID'
p158
S'MAN'
p159
sS'INCIDENT STAGE OF EXECUTION'
p160
S'ACCOMPLISHED'
p161
sS'HUM TGT DESCRIPTION'
p162
S'CATTLEMAN LEGAL ADVISOR IN CONGRESS LEGAL ADVISOR COUSIN OF PABLO ESCOBAR GAVIRIA GUSTAVO DE JESUS ESCOBAR FERNANDEZ'
p163
sS'PHYS TGT EFFECT OF INCIDENT'
p164
S''
sS'HUM TGT FOREIGN NATION'
p165
S''
sS'INCIDENT DATE'
p166
S'15 NOV 88'
p167
sS'MESSAGE TEMPLATE'
p168
S'1'
sS'PHYS TGT TOTAL NUMBER'
p169
S''
ssS'TST4-MUC4-0081'
p170
(dp171
S'PERP ORGANIZATION CONFIDENCE'
p172
S'REPORTED AS FACT POSSIBLE FMLN'
p173
sS'HUM TGT EFFECT OF INCIDENT'
p174
S'NO INJURY OR DEATH NO DEATH'
p175
sS'INCIDENT LOCATION'
p176
S'EL SALVADOR SOYAPANGO JURISDICTION'
p177
sS'PHYS TGT ID'
p178
S'TRAIN'
p179
sS'PERP INCIDENT CATEGORY'
p180
S'TERRORIST ACT'
p181
sS'PERP ORGANIZATION ID'
p182
S'FMLN'
p183
sS'HUM TGT TYPE'
p184
S''
sS'HUM TGT TOTAL NUMBER'
p185
S''
sS'INCIDENT INSTRUMENT ID'
p186
S'CLAYMORE MINE MINE'
p187
sS'INCIDENT INSTRUMENT TYPE'
p188
S'MINE CLAYMORE MINE MINE'
p189
sS'PHYS TGT FOREIGN NATION'
p190
S''
sS'HUM TGT NUMBER'
p191
S''
sS'PHYS TGT TYPE'
p192
S'TRANSPORT VEHICLE TRAIN'
p193
sS'HUM TGT NAME'
p194
S''
sS'INCIDENT TYPE'
p195
S'BOMBING'
p196
sS'PHYS TGT NUMBER'
p197
S'1 TRAIN'
p198
sS'PERP INDIVIDUAL ID'
p199
S'INSURGENTS GUERRILLAS'
p200
sS'INCIDENT STAGE OF EXECUTION'
p201
S'ACCOMPLISHED'
p202
sS'HUM TGT DESCRIPTION'
p203
S''
sS'PHYS TGT EFFECT OF INCIDENT'
p204
S'SOME DAMAGE TRAIN'
p205
sS'HUM TGT FOREIGN NATION'
p206
S''
sS'INCIDENT DATE'
p207
S'09 DEC 88'
p208
sS'MESSAGE TEMPLATE'
p209
S'1'
sS'PHYS TGT TOTAL NUMBER'
p210
S''
ssS'TST4-MUC4-0086'
p211
(dp212
S'PERP ORGANIZATION CONFIDENCE'
p213
S'REPORTED AS FACT FMLN'
p214
sS'HUM TGT EFFECT OF INCIDENT'
p215
S'RESIGNATION HECTOR AREVALO'
p216
sS'INCIDENT LOCATION'
p217
S'EL SALVADOR SAN VICENTE DEPARTMENT SANTA CLARA TOWN'
p218
sS'PHYS TGT ID'
p219
S''
sS'PERP INCIDENT CATEGORY'
p220
S'TERRORIST ACT'
p221
sS'PERP ORGANIZATION ID'
p222
S'FMLN'
p223
sS'HUM TGT TYPE'
p224
S'GOVERNMENT OFFICIAL HECTOR AREVALO'
p225
sS'HUM TGT TOTAL NUMBER'
p226
S''
sS'INCIDENT INSTRUMENT ID'
p227
S''
sS'INCIDENT INSTRUMENT TYPE'
p228
S''
sS'PHYS TGT FOREIGN NATION'
p229
S''
sS'HUM TGT NUMBER'
p230
S'1 HECTOR AREVALO'
p231
sS'PHYS TGT TYPE'
p232
S''
sS'HUM TGT NAME'
p233
S'HECTOR AREVALO'
p234
sS'INCIDENT TYPE'
p235
S'ATTACK'
p236
sS'PHYS TGT NUMBER'
p237
S''
sS'PERP INDIVIDUAL ID'
p238
S'SALVADORAN GUERRILLAS GUERRILLAS'
p239
sS'INCIDENT STAGE OF EXECUTION'
p240
S'THREATENED'
p241
sS'HUM TGT DESCRIPTION'
p242
S'MAYOR HECTOR AREVALO'
p243
sS'PHYS TGT EFFECT OF INCIDENT'
p244
S''
sS'HUM TGT FOREIGN NATION'
p245
S''
sS'INCIDENT DATE'
p246
S'14 DEC 88'
p247
sS'MESSAGE TEMPLATE'
p248
S'1'
sS'PHYS TGT TOTAL NUMBER'
p249
S''
ssS'TST4-MUC4-0087'
p250
(dp251
S'PERP ORGANIZATION CONFIDENCE'
p252
S''
sS'HUM TGT EFFECT OF INCIDENT'
p253
S'INJURY MANUEL SANTOS CRUZ ARBOLEDA'
p254
sS'INCIDENT LOCATION'
p255
S'COLOMBIA SIPI TOWN COLOMBIA'
p256
sS'PHYS TGT ID'
p257
S''
sS'PERP INCIDENT CATEGORY'
p258
S''
sS'PERP ORGANIZATION ID'
p259
S''
sS'HUM TGT TYPE'
p260
S'GOVERNMENT OFFICIAL MANUEL SANTOS CRUZ ARBOLEDA'
p261
sS'HUM TGT TOTAL NUMBER'
p262
S''
sS'INCIDENT INSTRUMENT ID'
p263
S''
sS'INCIDENT INSTRUMENT TYPE'
p264
S'GUN'
p265
sS'PHYS TGT FOREIGN NATION'
p266
S''
sS'HUM TGT NUMBER'
p267
S'1 MANUEL SANTOS CRUZ ARBOLEDA'
p268
sS'PHYS TGT TYPE'
p269
S''
sS'HUM TGT NAME'
p270
S'MANUEL SANTOS CRUZ ARBOLEDA'
p271
sS'INCIDENT TYPE'
p272
S'ATTACK'
p273
sS'PHYS TGT NUMBER'
p274
S''
sS'PERP INDIVIDUAL ID'
p275
S''
sS'INCIDENT STAGE OF EXECUTION'
p276
S'ACCOMPLISHED'
p277
sS'HUM TGT DESCRIPTION'
p278
S'SIPI MAYOR MAYOR MANUEL SANTOS CRUZ ARBOLEDA'
p279
sS'PHYS TGT EFFECT OF INCIDENT'
p280
S''
sS'HUM TGT FOREIGN NATION'
p281
S''
sS'INCIDENT DATE'
p282
S'10 DEC 88'
p283
sS'MESSAGE TEMPLATE'
p284
S'2'
sS'PHYS TGT TOTAL NUMBER'
p285
S''
ssS'TST4-MUC4-0084'
p286
(dp287
S'PERP ORGANIZATION CONFIDENCE'
p288
S''
sS'HUM TGT EFFECT OF INCIDENT'
p289
S''
sS'INCIDENT LOCATION'
p290
S''
sS'PHYS TGT ID'
p291
S''
sS'PERP INCIDENT CATEGORY'
p292
S''
sS'PERP ORGANIZATION ID'
p293
S''
sS'HUM TGT TYPE'
p294
S''
sS'HUM TGT TOTAL NUMBER'
p295
S''
sS'INCIDENT INSTRUMENT ID'
p296
S''
sS'INCIDENT INSTRUMENT TYPE'
p297
S''
sS'PHYS TGT FOREIGN NATION'
p298
S''
sS'HUM TGT NUMBER'
p299
S''
sS'PHYS TGT TYPE'
p300
S''
sS'HUM TGT NAME'
p301
S''
sS'INCIDENT TYPE'
p302
S''
sS'PHYS TGT NUMBER'
p303
S''
sS'PERP INDIVIDUAL ID'
p304
S''
sS'INCIDENT STAGE OF EXECUTION'
p305
S''
sS'HUM TGT DESCRIPTION'
p306
S''
sS'PHYS TGT EFFECT OF INCIDENT'
p307
S''
sS'HUM TGT FOREIGN NATION'
p308
S''
sS'INCIDENT DATE'
p309
S''
sS'MESSAGE TEMPLATE'
p310
S''
sS'PHYS TGT TOTAL NUMBER'
p311
S''
ssS'TST4-MUC4-0085'
p312
(dp313
S'PERP ORGANIZATION CONFIDENCE'
p314
S'SUSPECTED OR ACCUSED SHINING PATH'
p315
sS'HUM TGT EFFECT OF INCIDENT'
p316
S'DEATH THOMAS PELLISSIER'
p317
sS'INCIDENT LOCATION'
p318
S'PERU APURIMAC DEPARTMENT AQUIRA TOWN'
p319
sS'PHYS TGT ID'
p320
S''
sS'PERP INCIDENT CATEGORY'
p321
S'TERRORIST ACT'
p322
sS'PERP ORGANIZATION ID'
p323
S'SHINING PATH'
p324
sS'HUM TGT TYPE'
p325
S'CIVILIAN THOMAS PELLISSIER'
p326
sS'HUM TGT TOTAL NUMBER'
p327
S''
sS'INCIDENT INSTRUMENT ID'
p328
S''
sS'INCIDENT INSTRUMENT TYPE'
p329
S''
sS'PHYS TGT FOREIGN NATION'
p330
S''
sS'ENGINEERS PERUVIANS'
p331
S''
sS'HUM TGT NUMBER'
p332
S'1 THOMAS PELLISSIER'
p333
sS'INCIDENT STAGE OF EXECUTION'
p334
S'ACCOMPLISHED'
p335
sS'PHYS TGT TYPE'
p336
S''
sS'HUM TGT NAME'
p337
S'THOMAS PELLISSIER'
p338
sS'INCIDENT TYPE'
p339
S'ATTACK'
p340
sS'PHYS TGT NUMBER'
p341
S''
sS'PERP INDIVIDUAL ID'
p342
S'GROUP OF TERRORISTS TERRORISTS MEMBERS OF THE MAOIST SHINING PATH GUERRILLA MOVEMENT'
p343
sS'JUSTICE OF THE PEACE'
p344
S''
sS'CORINE SEGUIN'
p345
S''
sS'HUM TGT DESCRIPTION'
p346
S'ENGINEERS THOMAS PELLISSIER'
p347
sS'PHYS TGT EFFECT OF INCIDENT'
p348
S''
sS'HUM TGT FOREIGN NATION'
p349
S'FRANCE THOMAS PELLISSIER'
p350
sS'INCIDENT DATE'
p351
S'10 DEC 88 04 DEC 88'
p352
sS'MESSAGE TEMPLATE'
p353
S'2'
sS'PHYS TGT TOTAL NUMBER'
p354
S''
ssS'TST4-MUC4-0002'
p355
(dp356
S'PERP ORGANIZATION CONFIDENCE'
p357
S''
sS'HUM TGT EFFECT OF INCIDENT'
p358
S''
sS'INCIDENT LOCATION'
p359
S''
sS'PHYS TGT ID'
p360
S''
sS'PERP INCIDENT CATEGORY'
p361
S''
sS'PERP ORGANIZATION ID'
p362
S''
sS'HUM TGT TYPE'
p363
S''
sS'HUM TGT TOTAL NUMBER'
p364
S''
sS'INCIDENT INSTRUMENT ID'
p365
S''
sS'INCIDENT INSTRUMENT TYPE'
p366
S''
sS'PHYS TGT FOREIGN NATION'
p367
S''
sS'HUM TGT NUMBER'
p368
S''
sS'PHYS TGT TYPE'
p369
S''
sS'HUM TGT NAME'
p370
S''
sS'INCIDENT TYPE'
p371
S''
sS'PHYS TGT NUMBER'
p372
S''
sS'PERP INDIVIDUAL ID'
p373
S''
sS'INCIDENT STAGE OF EXECUTION'
p374
S''
sS'HUM TGT DESCRIPTION'
p375
S''
sS'PHYS TGT EFFECT OF INCIDENT'
p376
S''
sS'HUM TGT FOREIGN NATION'
p377
S''
sS'INCIDENT DATE'
p378
S''
sS'MESSAGE TEMPLATE'
p379
S''
sS'PHYS TGT TOTAL NUMBER'
p380
S''
ssS'TST4-MUC4-0003'
p381
(dp382
S'PERP ORGANIZATION CONFIDENCE'
p383
S''
sS'HUM TGT EFFECT OF INCIDENT'
p384
S''
sS'INCIDENT LOCATION'
p385
S''
sS'PHYS TGT ID'
p386
S''
sS'PERP INCIDENT CATEGORY'
p387
S''
sS'PERP ORGANIZATION ID'
p388
S''
sS'HUM TGT TYPE'
p389
S''
sS'HUM TGT TOTAL NUMBER'
p390
S''
sS'INCIDENT INSTRUMENT ID'
p391
S''
sS'INCIDENT INSTRUMENT TYPE'
p392
S''
sS'PHYS TGT FOREIGN NATION'
p393
S''
sS'HUM TGT NUMBER'
p394
S''
sS'PHYS TGT TYPE'
p395
S''
sS'HUM TGT NAME'
p396
S''
sS'INCIDENT TYPE'
p397
S''
sS'PHYS TGT NUMBER'
p398
S''
sS'PERP INDIVIDUAL ID'
p399
S''
sS'INCIDENT STAGE OF EXECUTION'
p400
S''
sS'HUM TGT DESCRIPTION'
p401
S''
sS'PHYS TGT EFFECT OF INCIDENT'
p402
S''
sS'HUM TGT FOREIGN NATION'
p403
S''
sS'INCIDENT DATE'
p404
S''
sS'MESSAGE TEMPLATE'
p405
S''
sS'PHYS TGT TOTAL NUMBER'
p406
S''
ssS'TST4-MUC4-0001'
p407
(dp408
S'PERP ORGANIZATION CONFIDENCE'
p409
S''
sS'HUM TGT EFFECT OF INCIDENT'
p410
S'NO INJURY OR DEATH NO INJURY'
p411
sS'INCIDENT LOCATION'
p412
S'CHILE TALCAHUANO DISTRICT'
p413
sS'PHYS TGT ID'
p414
S'MORMON CHURCH CHAPEL OF THE CHURCH OF JESUS CHRIST OF LATTERDAY SAINTS LOCATED AT NO 3856 GOMEZ CARRENO STREET CHAPEL OF THE CHURCH OF JESUS CHRIST OF LATTERDAY SAINTS CHAPEL CHURCH CHURCH OF JESUS CHRIST OF LATTERDAY SAINTS'
p415
sS'PERP INCIDENT CATEGORY'
p416
S''
sS'PERP ORGANIZATION ID'
p417
S''
sS'HUM TGT TYPE'
p418
S''
sS'HUM TGT TOTAL NUMBER'
p419
S''
sS'INCIDENT INSTRUMENT ID'
p420
S'BOMB'
p421
sS'INCIDENT INSTRUMENT TYPE'
p422
S'BOMB BOMB'
p423
sS'PHYS TGT FOREIGN NATION'
p424
S''
sS'HUM TGT NUMBER'
p425
S''
sS'PHYS TGT TYPE'
p426
S'OTHER MORMON CHURCH CHAPEL OF THE CHURCH OF JESUS CHRIST OF LATTERDAY SAINTS LOCATED AT NO 3856 GOMEZ CARRENO STREET CHAPEL OF THE CHURCH OF JESUS CHRIST OF LATTERDAY SAINTS CHAPEL CHURCH CHURCH OF JESUS CHRIST OF LATTERDAY SAINTS'
p427
sS'HUM TGT NAME'
p428
S''
sS'INCIDENT TYPE'
p429
S'BOMBING'
p430
sS'PHYS TGT NUMBER'
p431
S'1 MORMON CHURCH CHAPEL OF THE CHURCH OF JESUS CHRIST OF LATTERDAY SAINTS LOCATED AT NO 3856 GOMEZ CARRENO STREET CHAPEL OF THE CHURCH OF JESUS CHRIST OF LATTERDAY SAINTS CHAPEL CHURCH CHURCH OF JESUS CHRIST OF LATTERDAY SAINTS'
p432
sS'PERP INDIVIDUAL ID'
p433
S'UNIDENTIFIED INDIVIDUALS'
p434
sS'INCIDENT STAGE OF EXECUTION'
p435
S'ACCOMPLISHED'
p436
sS'HUM TGT DESCRIPTION'
p437
S''
sS'PHYS TGT EFFECT OF INCIDENT'
p438
S'SOME DAMAGE MORMON CHURCH CHAPEL OF THE CHURCH OF JESUS CHRIST OF LATTERDAY SAINTS LOCATED AT NO 3856 GOMEZ CARRENO STREET CHAPEL OF THE CHURCH OF JESUS CHRIST OF LATTERDAY SAINTS CHAPEL CHURCH CHURCH OF JESUS CHRIST OF LATTERDAY SAINTS'
p439
sS'HUM TGT FOREIGN NATION'
p440
S''
sS'INCIDENT DATE'
p441
S'23 AUG 88'
p442
sS'MESSAGE TEMPLATE'
p443
S'1'
sS'PHYS TGT TOTAL NUMBER'
p444
S''
ssS'TST4-MUC4-0006'
p445
(dp446
S'PERP ORGANIZATION CONFIDENCE'
p447
S'REPORTED AS FACT FMLN'
p448
sS'HUM TGT EFFECT OF INCIDENT'
p449
S''
sS'INCIDENT LOCATION'
p450
S'EL SALVADOR QUETZALTEPEQUE TOWN'
p451
sS'PHYS TGT ID'
p452
S'ELECTRIC TOWER'
p453
sS'PERP INCIDENT CATEGORY'
p454
S'TERRORIST ACT'
p455
sS'PERP ORGANIZATION ID'
p456
S'FMLN'
p457
sS'HUM TGT TYPE'
p458
S''
sS'HUM TGT TOTAL NUMBER'
p459
S''
sS'INCIDENT INSTRUMENT ID'
p460
S''
sS'INCIDENT INSTRUMENT TYPE'
p461
S''
sS'PHYS TGT FOREIGN NATION'
p462
S''
sS'HUM TGT NUMBER'
p463
S''
sS'PHYS TGT TYPE'
p464
S'ENERGY ELECTRIC TOWER'
p465
sS'HUM TGT NAME'
p466
S''
sS'INCIDENT TYPE'
p467
S'ATTACK'
p468
sS'PHYS TGT NUMBER'
p469
S'1 ELECTRIC TOWER'
p470
sS'PERP INDIVIDUAL ID'
p471
S'REBELS INSURGENTS'
p472
sS'INCIDENT STAGE OF EXECUTION'
p473
S'ACCOMPLISHED'
p474
sS'HUM TGT DESCRIPTION'
p475
S''
sS'PHYS TGT EFFECT OF INCIDENT'
p476
S'SOME DAMAGE DESTROYED ELECTRIC TOWER'
p477
sS'HUM TGT FOREIGN NATION'
p478
S''
sS'INCIDENT DATE'
p479
S'24 AUG 88 24 AUG 88 25 AUG 88'
p480
sS'MESSAGE TEMPLATE'
p481
S'2'
sS'PHYS TGT TOTAL NUMBER'
p482
S''
ssS'TST4-MUC4-0007'
p483
(dp484
S'PERP ORGANIZATION CONFIDENCE'
p485
S''
sS'HUM TGT EFFECT OF INCIDENT'
p486
S''
sS'INCIDENT LOCATION'
p487
S'GUATEMALA GUATEMALA CITY CITY'
p488
sS'PHYS TGT ID'
p489
S'AERONICAS REGIONAL OFFICES'
p490
sS'PERP INCIDENT CATEGORY'
p491
S'TERRORIST ACT'
p492
sS'PERP ORGANIZATION ID'
p493
S''
sS'HUM TGT TYPE'
p494
S''
sS'HUM TGT TOTAL NUMBER'
p495
S''
sS'INCIDENT INSTRUMENT ID'
p496
S'FRAGMENTATION GRENADES GRENADES'
p497
sS'INCIDENT INSTRUMENT TYPE'
p498
S'GRENADE FRAGMENTATION GRENADES GRENADES'
p499
sS'PHYS TGT FOREIGN NATION'
p500
S'NICARAGUA AERONICAS REGIONAL OFFICES'
p501
sS'HUM TGT NUMBER'
p502
S''
sS'PHYS TGT TYPE'
p503
S'TRANSPORTATION FACILITY COMMERCIAL AERONICAS REGIONAL OFFICES'
p504
sS'HUM TGT NAME'
p505
S''
sS'INCIDENT TYPE'
p506
S'ATTACK'
p507
sS'PHYS TGT NUMBER'
p508
S'PLURAL AERONICAS REGIONAL OFFICES'
p509
sS'PERP INDIVIDUAL ID'
p510
S'GUATEMALAN RIGHTIST SECTORS RIGHTIST SECTORS'
p511
sS'INCIDENT STAGE OF EXECUTION'
p512
S'ACCOMPLISHED'
p513
sS'HUM TGT DESCRIPTION'
p514
S''
sS'PHYS TGT EFFECT OF INCIDENT'
p515
S''
sS'HUM TGT FOREIGN NATION'
p516
S''
sS'INCIDENT DATE'
p517
S'26 AUG 88'
p518
sS'MESSAGE TEMPLATE'
p519
S'1'
sS'PHYS TGT TOTAL NUMBER'
p520
S''
ssS'TST4-MUC4-0004'
p521
(dp522
S'PERP ORGANIZATION CONFIDENCE'
p523
S''
sS'HUM TGT EFFECT OF INCIDENT'
p524
S''
sS'INCIDENT LOCATION'
p525
S''
sS'PHYS TGT ID'
p526
S''
sS'PERP INCIDENT CATEGORY'
p527
S''
sS'PERP ORGANIZATION ID'
p528
S''
sS'HUM TGT TYPE'
p529
S''
sS'HUM TGT TOTAL NUMBER'
p530
S''
sS'INCIDENT INSTRUMENT ID'
p531
S''
sS'INCIDENT INSTRUMENT TYPE'
p532
S''
sS'PHYS TGT FOREIGN NATION'
p533
S''
sS'HUM TGT NUMBER'
p534
S''
sS'PHYS TGT TYPE'
p535
S''
sS'HUM TGT NAME'
p536
S''
sS'INCIDENT TYPE'
p537
S''
sS'PHYS TGT NUMBER'
p538
S''
sS'PERP INDIVIDUAL ID'
p539
S''
sS'INCIDENT STAGE OF EXECUTION'
p540
S''
sS'HUM TGT DESCRIPTION'
p541
S''
sS'PHYS TGT EFFECT OF INCIDENT'
p542
S''
sS'HUM TGT FOREIGN NATION'
p543
S''
sS'INCIDENT DATE'
p544
S''
sS'MESSAGE TEMPLATE'
p545
S''
sS'PHYS TGT TOTAL NUMBER'
p546
S''
ssS'TST4-MUC4-0005'
p547
(dp548
S'PERP ORGANIZATION CONFIDENCE'
p549
S''
sS'HUM TGT EFFECT OF INCIDENT'
p550
S'DEATH COLONEL ADOLFO ARNOLDO MAJANOS BODYGUARDS BODYGUARDS'
p551
sS'INCIDENT LOCATION'
p552
S'EL SALVADOR SAN SALVADOR CITY EL SALVADOR'
p553
sS'PHYS TGT ID'
p554
S''
sS'PERP INCIDENT CATEGORY'
p555
S''
sS'PERP ORGANIZATION ID'
p556
S''
sS'HUM TGT TYPE'
p557
S'SECURITY GUARD COLONEL ADOLFO ARNOLDO MAJANOS BODYGUARDS BODYGUARDS'
p558
sS'HUM TGT TOTAL NUMBER'
p559
S''
sS'INCIDENT INSTRUMENT ID'
p560
S''
sS'INCIDENT INSTRUMENT TYPE'
p561
S''
sS'PHYS TGT FOREIGN NATION'
p562
S''
sS'HUM TGT NUMBER'
p563
S'PLURAL COLONEL ADOLFO ARNOLDO MAJANOS BODYGUARDS BODYGUARDS'
p564
sS'PHYS TGT TYPE'
p565
S''
sS'HUM TGT NAME'
p566
S''
sS'INCIDENT TYPE'
p567
S'ATTACK'
p568
sS'PHYS TGT NUMBER'
p569
S''
sS'PERP INDIVIDUAL ID'
p570
S''
sS'INCIDENT STAGE OF EXECUTION'
p571
S'ACCOMPLISHED'
p572
sS'HUM TGT DESCRIPTION'
p573
S'COLONEL ADOLFO ARNOLDO MAJANOS BODYGUARDS BODYGUARDS'
p574
sS'PHYS TGT EFFECT OF INCIDENT'
p575
S''
sS'HUM TGT FOREIGN NATION'
p576
S''
sS'INCIDENT DATE'
p577
S'25 AUG 88'
p578
sS'MESSAGE TEMPLATE'
p579
S'1 OPTIONAL'
p580
sS'PHYS TGT TOTAL NUMBER'
p581
S''
ssS'TST4-MUC4-0008'
p582
(dp583
S'PERP ORGANIZATION CONFIDENCE'
p584
S''
sS'HUM TGT EFFECT OF INCIDENT'
p585
S''
sS'INCIDENT LOCATION'
p586
S''
sS'PHYS TGT ID'
p587
S''
sS'PERP INCIDENT CATEGORY'
p588
S''
sS'PERP ORGANIZATION ID'
p589
S''
sS'HUM TGT TYPE'
p590
S''
sS'HUM TGT TOTAL NUMBER'
p591
S''
sS'INCIDENT INSTRUMENT ID'
p592
S''
sS'INCIDENT INSTRUMENT TYPE'
p593
S''
sS'PHYS TGT FOREIGN NATION'
p594
S''
sS'HUM TGT NUMBER'
p595
S''
sS'PHYS TGT TYPE'
p596
S''
sS'HUM TGT NAME'
p597
S''
sS'INCIDENT TYPE'
p598
S''
sS'PHYS TGT NUMBER'
p599
S''
sS'PERP INDIVIDUAL ID'
p600
S''
sS'INCIDENT STAGE OF EXECUTION'
p601
S''
sS'HUM TGT DESCRIPTION'
p602
S''
sS'PHYS TGT EFFECT OF INCIDENT'
p603
S''
sS'HUM TGT FOREIGN NATION'
p604
S''
sS'INCIDENT DATE'
p605
S''
sS'MESSAGE TEMPLATE'
p606
S''
sS'PHYS TGT TOTAL NUMBER'
p607
S''
ssS'TST4-MUC4-0009'
p608
(dp609
S'PERP ORGANIZATION CONFIDENCE'
p610
S''
sS'HUM TGT EFFECT OF INCIDENT'
p611
S''
sS'INCIDENT LOCATION'
p612
S''
sS'PHYS TGT ID'
p613
S''
sS'PERP INCIDENT CATEGORY'
p614
S''
sS'PERP ORGANIZATION ID'
p615
S''
sS'HUM TGT TYPE'
p616
S''
sS'HUM TGT TOTAL NUMBER'
p617
S''
sS'INCIDENT INSTRUMENT ID'
p618
S''
sS'INCIDENT INSTRUMENT TYPE'
p619
S''
sS'PHYS TGT FOREIGN NATION'
p620
S''
sS'HUM TGT NUMBER'
p621
S''
sS'PHYS TGT TYPE'
p622
S''
sS'HUM TGT NAME'
p623
S''
sS'INCIDENT TYPE'
p624
S''
sS'PHYS TGT NUMBER'
p625
S''
sS'PERP INDIVIDUAL ID'
p626
S''
sS'INCIDENT STAGE OF EXECUTION'
p627
S''
sS'HUM TGT DESCRIPTION'
p628
S''
sS'PHYS TGT EFFECT OF INCIDENT'
p629
S''
sS'HUM TGT FOREIGN NATION'
p630
S''
sS'INCIDENT DATE'
p631
S''
sS'MESSAGE TEMPLATE'
p632
S''
sS'PHYS TGT TOTAL NUMBER'
p633
S''
ssS'TST4-MUC4-0099'
p634
(dp635
S'PERP ORGANIZATION CONFIDENCE'
p636
S'CLAIMED OR ADMITTED MANUEL RODRIGUEZ PATRIOTIC FRONT FPMR'
p637
sS'HUM TGT EFFECT OF INCIDENT'
p638
S''
sS'INCIDENT LOCATION'
p639
S'CHILE'
p640
sS'PHYS TGT ID'
p641
S''
sS'PERP INCIDENT CATEGORY'
p642
S'TERRORIST ACT'
p643
sS'PERP ORGANIZATION ID'
p644
S'MANUEL RODRIGUEZ PATRIOTIC FRONT FPMR'
p645
sS'HUM TGT TYPE'
p646
S'LEGAL OR JUDICIAL FERNANDO TORRES SILVA'
p647
sS'HUM TGT TOTAL NUMBER'
p648
S''
sS'INCIDENT INSTRUMENT ID'
p649
S''
sS'INCIDENT INSTRUMENT TYPE'
p650
S''
sS'PHYS TGT FOREIGN NATION'
p651
S''
sS'HUM TGT NUMBER'
p652
S'1 FERNANDO TORRES SILVA'
p653
sS'PHYS TGT TYPE'
p654
S''
sS'HUM TGT NAME'
p655
S'FERNANDO TORRES SILVA'
p656
sS'INCIDENT TYPE'
p657
S'ATTACK'
p658
sS'PHYS TGT NUMBER'
p659
S''
sS'PERP INDIVIDUAL ID'
p660
S''
sS'INCIDENT STAGE OF EXECUTION'
p661
S'THREATENED'
p662
sS'HUM TGT DESCRIPTION'
p663
S'MILITARY JUDGE FERNANDO TORRES SILVA'
p664
sS'PHYS TGT EFFECT OF INCIDENT'
p665
S''
sS'HUM TGT FOREIGN NATION'
p666
S''
sS'INCIDENT DATE'
p667
S'21 DEC 88'
p668
sS'MESSAGE TEMPLATE'
p669
S'2 OPTIONAL'
p670
sS'PHYS TGT TOTAL NUMBER'
p671
S''
ssS'TST4-MUC4-0098'
p672
(dp673
S'PERP ORGANIZATION CONFIDENCE'
p674
S''
sS'HUM TGT EFFECT OF INCIDENT'
p675
S''
sS'INCIDENT LOCATION'
p676
S''
sS'PHYS TGT ID'
p677
S''
sS'PERP INCIDENT CATEGORY'
p678
S''
sS'PERP ORGANIZATION ID'
p679
S''
sS'HUM TGT TYPE'
p680
S''
sS'HUM TGT TOTAL NUMBER'
p681
S''
sS'INCIDENT INSTRUMENT ID'
p682
S''
sS'INCIDENT INSTRUMENT TYPE'
p683
S''
sS'PHYS TGT FOREIGN NATION'
p684
S''
sS'HUM TGT NUMBER'
p685
S''
sS'PHYS TGT TYPE'
p686
S''
sS'HUM TGT NAME'
p687
S''
sS'INCIDENT TYPE'
p688
S''
sS'PHYS TGT NUMBER'
p689
S''
sS'PERP INDIVIDUAL ID'
p690
S''
sS'INCIDENT STAGE OF EXECUTION'
p691
S''
sS'HUM TGT DESCRIPTION'
p692
S''
sS'PHYS TGT EFFECT OF INCIDENT'
p693
S''
sS'HUM TGT FOREIGN NATION'
p694
S''
sS'INCIDENT DATE'
p695
S''
sS'MESSAGE TEMPLATE'
p696
S''
sS'PHYS TGT TOTAL NUMBER'
p697
S''
ssS'TST4-MUC4-0091'
p698
(dp699
S'PERP ORGANIZATION CONFIDENCE'
p700
S''
sS'HUM TGT EFFECT OF INCIDENT'
p701
S'INJURY OFFICER'
p702
sS'INCIDENT LOCATION'
p703
S'CHILE TONGOY BEACH TOWN'
p704
sS'PHYS TGT ID'
p705
S'BRIDGE'
p706
sS'PERP INCIDENT CATEGORY'
p707
S''
sS'NONCOMMISSIONED OFFICERS'
p708
S''
sS'PERP ORGANIZATION ID'
p709
S''
sS'HUM TGT TYPE'
p710
S'ACTIVE MILITARY OFFICER'
p711
sS'HUM TGT TOTAL NUMBER'
p712
S'3'
sS'INCIDENT INSTRUMENT ID'
p713
S'BOMB'
p714
sS'INCIDENT INSTRUMENT TYPE'
p715
S'BOMB BOMB'
p716
sS'PHYS TGT FOREIGN NATION'
p717
S''
sS'HUM TGT NUMBER'
p718
S'1 OFFICER'
p719
sS'PHYS TGT TYPE'
p720
S'TRANSPORTATION ROUTE BRIDGE'
p721
sS'HUM TGT NAME'
p722
S''
sS'INCIDENT TYPE'
p723
S'BOMBING'
p724
sS'PHYS TGT NUMBER'
p725
S'1 BRIDGE'
p726
sS'PERP INDIVIDUAL ID'
p727
S''
sS'INCIDENT STAGE OF EXECUTION'
p728
S'ACCOMPLISHED'
p729
sS'HUM TGT DESCRIPTION'
p730
S'OFFICER'
p731
sS'PHYS TGT EFFECT OF INCIDENT'
p732
S'DESTROYED BRIDGE'
p733
sS'HUM TGT FOREIGN NATION'
p734
S''
sS'INCIDENT DATE'
p735
S'18 DEC 88'
p736
sS'MESSAGE TEMPLATE'
p737
S'1'
sS'PHYS TGT TOTAL NUMBER'
p738
S''
ssS'TST4-MUC4-0090'
p739
(dp740
S'PERP ORGANIZATION CONFIDENCE'
p741
S''
sS'HUM TGT EFFECT OF INCIDENT'
p742
S'DEATH ROSA IMELDA GONZALEZ MEDRANO'
p743
sS'INCIDENT LOCATION'
p744
S'EL SALVADOR SANTA ANA CITY SAN RAFAEL NEIGHBORHOOD EL SALVADOR SAN SALVADOR CITY SAN RAFAEL NEIGHBORHOOD EL SALVADOR SAN RAFAEL NEIGHBORHOOD'
p745
sS'PHYS TGT ID'
p746
S''
sS'PERP INCIDENT CATEGORY'
p747
S'TERRORIST ACT'
p748
sS'PERP ORGANIZATION ID'
p749
S''
sS'HUM TGT TYPE'
p750
S'CIVILIAN ROSA IMELDA GONZALEZ MEDRANO'
p751
sS'HUM TGT TOTAL NUMBER'
p752
S''
sS'INCIDENT INSTRUMENT ID'
p753
S''
sS'INCIDENT INSTRUMENT TYPE'
p754
S''
sS'PHYS TGT FOREIGN NATION'
p755
S''
sS'HUM TGT NUMBER'
p756
S'1 ROSA IMELDA GONZALEZ MEDRANO'
p757
sS'PHYS TGT TYPE'
p758
S''
sS'HUM TGT NAME'
p759
S'ROSA IMELDA GONZALEZ MEDRANO'
p760
sS'INCIDENT TYPE'
p761
S'ATTACK'
p762
sS'PHYS TGT NUMBER'
p763
S''
sS'PERP INDIVIDUAL ID'
p764
S'URBAN GUERRILLAS URBAN GUERRILLAS OPERATING IN SANTA ANA'
p765
sS'INCIDENT STAGE OF EXECUTION'
p766
S'ACCOMPLISHED'
p767
sS'HUM TGT DESCRIPTION'
p768
S'PROFESSOR AT THE WESTERN CAMPUS OF THE NATIONAL UNIVERSITY PROFESSOR HEAD OF THE LAW DEPARTMENT ROSA IMELDA GONZALEZ MEDRANO'
p769
sS'PHYS TGT EFFECT OF INCIDENT'
p770
S''
sS'HUM TGT FOREIGN NATION'
p771
S''
sS'INCIDENT DATE'
p772
S'16 DEC 88'
p773
sS'MESSAGE TEMPLATE'
p774
S'1 OPTIONAL'
p775
sS'PHYS TGT TOTAL NUMBER'
p776
S''
ssS'TST4-MUC4-0093'
p777
(dp778
S'PERP ORGANIZATION CONFIDENCE'
p779
S''
sS'HUM TGT EFFECT OF INCIDENT'
p780
S''
sS'INCIDENT LOCATION'
p781
S''
sS'PHYS TGT ID'
p782
S''
sS'PERP INCIDENT CATEGORY'
p783
S''
sS'PERP ORGANIZATION ID'
p784
S''
sS'HUM TGT TYPE'
p785
S''
sS'HUM TGT TOTAL NUMBER'
p786
S''
sS'INCIDENT INSTRUMENT ID'
p787
S''
sS'INCIDENT INSTRUMENT TYPE'
p788
S''
sS'PHYS TGT FOREIGN NATION'
p789
S''
sS'HUM TGT NUMBER'
p790
S''
sS'PHYS TGT TYPE'
p791
S''
sS'HUM TGT NAME'
p792
S''
sS'INCIDENT TYPE'
p793
S''
sS'PHYS TGT NUMBER'
p794
S''
sS'PERP INDIVIDUAL ID'
p795
S''
sS'INCIDENT STAGE OF EXECUTION'
p796
S''
sS'HUM TGT DESCRIPTION'
p797
S''
sS'PHYS TGT EFFECT OF INCIDENT'
p798
S''
sS'HUM TGT FOREIGN NATION'
p799
S''
sS'INCIDENT DATE'
p800
S''
sS'MESSAGE TEMPLATE'
p801
S''
sS'PHYS TGT TOTAL NUMBER'
p802
S''
ssS'TST4-MUC4-0092'
p803
(dp804
S'PERP ORGANIZATION CONFIDENCE'
p805
S'REPORTED AS FACT FMLN'
p806
sS'HUM TGT EFFECT OF INCIDENT'
p807
S''
sS'INCIDENT LOCATION'
p808
S'EL SALVADOR LA LIBERTAD DEPARTMENT SAN JOSE VILLANUEVA TOWN'
p809
sS'PHYS TGT ID'
p810
S'ANTEL NATIONAL ADMINISTRATION FOR TELECOMMUNICATIONS OFFICE'
p811
sS'PERP INCIDENT CATEGORY'
p812
S'TERRORIST ACT'
p813
sS'PERP ORGANIZATION ID'
p814
S'FMLN'
p815
sS'HUM TGT TYPE'
p816
S''
sS'HUM TGT TOTAL NUMBER'
p817
S''
sS'INCIDENT INSTRUMENT ID'
p818
S''
sS'INCIDENT INSTRUMENT TYPE'
p819
S''
sS'PHYS TGT FOREIGN NATION'
p820
S''
sS'HUM TGT NUMBER'
p821
S''
sS'PHYS TGT TYPE'
p822
S'COMMUNICATIONS ANTEL NATIONAL ADMINISTRATION FOR TELECOMMUNICATIONS OFFICE'
p823
sS'HUM TGT NAME'
p824
S''
sS'INCIDENT TYPE'
p825
S'ARSON'
p826
sS'PHYS TGT NUMBER'
p827
S'1 ANTEL NATIONAL ADMINISTRATION FOR TELECOMMUNICATIONS OFFICE'
p828
sS'PERP INDIVIDUAL ID'
p829
S'FMLN REBELS REBELS'
p830
sS'INCIDENT STAGE OF EXECUTION'
p831
S'ACCOMPLISHED'
p832
sS'HUM TGT DESCRIPTION'
p833
S''
sS'PHYS TGT EFFECT OF INCIDENT'
p834
S'SOME DAMAGE ANTEL NATIONAL ADMINISTRATION FOR TELECOMMUNICATIONS OFFICE'
p835
sS'HUM TGT FOREIGN NATION'
p836
S''
sS'INCIDENT DATE'
p837
S'21 DEC 88'
p838
sS'MESSAGE TEMPLATE'
p839
S'1'
sS'PHYS TGT TOTAL NUMBER'
p840
S''
ssS'TST4-MUC4-0095'
p841
(dp842
S'PERP ORGANIZATION CONFIDENCE'
p843
S''
sS'HUM TGT EFFECT OF INCIDENT'
p844
S''
sS'INCIDENT LOCATION'
p845
S'EL SALVADOR SANTA ANA CITY'
p846
sS'PHYS TGT ID'
p847
S'CEL LEMPA RIVER HYDROELECTRIC EXECUTIVE COMMISSION SAN LUIS SUBSTATION'
p848
sS'PERP INCIDENT CATEGORY'
p849
S'TERRORIST ACT'
p850
sS'PERP ORGANIZATION ID'
p851
S''
sS'HUM TGT TYPE'
p852
S''
sS'HUM TGT TOTAL NUMBER'
p853
S''
sS'INCIDENT INSTRUMENT ID'
p854
S'EXPLOSIVES'
p855
sS'INCIDENT INSTRUMENT TYPE'
p856
S'EXPLOSIVE EXPLOSIVES'
p857
sS'PHYS TGT FOREIGN NATION'
p858
S''
sS'HUM TGT NUMBER'
p859
S''
sS'PHYS TGT TYPE'
p860
S'ENERGY CEL LEMPA RIVER HYDROELECTRIC EXECUTIVE COMMISSION SAN LUIS SUBSTATION'
p861
sS'HUM TGT NAME'
p862
S''
sS'INCIDENT TYPE'
p863
S'BOMBING'
p864
sS'PHYS TGT NUMBER'
p865
S'1 CEL LEMPA RIVER HYDROELECTRIC EXECUTIVE COMMISSION SAN LUIS SUBSTATION'
p866
sS'PERP INDIVIDUAL ID'
p867
S'REBELS ANOTHER GROUP'
p868
sS'INCIDENT STAGE OF EXECUTION'
p869
S'ACCOMPLISHED'
p870
sS'HUM TGT DESCRIPTION'
p871
S''
sS'PHYS TGT EFFECT OF INCIDENT'
p872
S'SOME DAMAGE CEL LEMPA RIVER HYDROELECTRIC EXECUTIVE COMMISSION SAN LUIS SUBSTATION'
p873
sS'HUM TGT FOREIGN NATION'
p874
S''
sS'INCIDENT DATE'
p875
S'20 DEC 88'
p876
sS'MESSAGE TEMPLATE'
p877
S'1'
sS'PHYS TGT TOTAL NUMBER'
p878
S''
ssS'TST4-MUC4-0094'
p879
(dp880
S'PERP ORGANIZATION CONFIDENCE'
p881
S''
sS'HUM TGT EFFECT OF INCIDENT'
p882
S''
sS'INCIDENT LOCATION'
p883
S''
sS'PHYS TGT ID'
p884
S''
sS'PERP INCIDENT CATEGORY'
p885
S''
sS'PERP ORGANIZATION ID'
p886
S''
sS'HUM TGT TYPE'
p887
S''
sS'HUM TGT TOTAL NUMBER'
p888
S''
sS'INCIDENT INSTRUMENT ID'
p889
S''
sS'INCIDENT INSTRUMENT TYPE'
p890
S''
sS'PHYS TGT FOREIGN NATION'
p891
S''
sS'HUM TGT NUMBER'
p892
S''
sS'PHYS TGT TYPE'
p893
S''
sS'HUM TGT NAME'
p894
S''
sS'INCIDENT TYPE'
p895
S''
sS'PHYS TGT NUMBER'
p896
S''
sS'PERP INDIVIDUAL ID'
p897
S''
sS'INCIDENT STAGE OF EXECUTION'
p898
S''
sS'HUM TGT DESCRIPTION'
p899
S''
sS'PHYS TGT EFFECT OF INCIDENT'
p900
S''
sS'HUM TGT FOREIGN NATION'
p901
S''
sS'INCIDENT DATE'
p902
S''
sS'MESSAGE TEMPLATE'
p903
S''
sS'PHYS TGT TOTAL NUMBER'
p904
S''
ssS'TST4-MUC4-0097'
p905
(dp906
S'PERP ORGANIZATION CONFIDENCE'
p907
S''
sS'HUM TGT EFFECT OF INCIDENT'
p908
S''
sS'INCIDENT LOCATION'
p909
S'COLOMBIA ANTIOQUIA DEPARTMENT SANTA FE REGION PASEO REAL TOWN'
p910
sS'PHYS TGT ID'
p911
S'CHECKPOINT'
p912
sS'PERP INCIDENT CATEGORY'
p913
S''
sS'PERP ORGANIZATION ID'
p914
S''
sS'HUM TGT TYPE'
p915
S''
sS'HUM TGT TOTAL NUMBER'
p916
S''
sS'INCIDENT INSTRUMENT ID'
p917
S'THREE BOMBS BOMBS'
p918
sS'INCIDENT INSTRUMENT TYPE'
p919
S'BOMB THREE BOMBS BOMBS'
p920
sS'PHYS TGT FOREIGN NATION'
p921
S''
sS'HUM TGT NUMBER'
p922
S''
sS'PHYS TGT TYPE'
p923
S'OTHER CHECKPOINT'
p924
sS'HUM TGT NAME'
p925
S''
sS'INCIDENT TYPE'
p926
S'BOMBING'
p927
sS'PHYS TGT NUMBER'
p928
S'1 CHECKPOINT'
p929
sS'PERP INDIVIDUAL ID'
p930
S''
sS'INCIDENT STAGE OF EXECUTION'
p931
S'ACCOMPLISHED'
p932
sS'HUM TGT DESCRIPTION'
p933
S''
sS'PHYS TGT EFFECT OF INCIDENT'
p934
S'DESTROYED CHECKPOINT'
p935
sS'HUM TGT FOREIGN NATION'
p936
S''
sS'INCIDENT DATE'
p937
S'25 DEC 88'
p938
sS'MESSAGE TEMPLATE'
p939
S'1 OPTIONAL'
p940
sS'PHYS TGT TOTAL NUMBER'
p941
S''
ssS'TST4-MUC4-0096'
p942
(dp943
S'PERP ORGANIZATION CONFIDENCE'
p944
S''
sS'HUM TGT EFFECT OF INCIDENT'
p945
S''
sS'INCIDENT LOCATION'
p946
S''
sS'PHYS TGT ID'
p947
S''
sS'PERP INCIDENT CATEGORY'
p948
S''
sS'PERP ORGANIZATION ID'
p949
S''
sS'HUM TGT TYPE'
p950
S''
sS'HUM TGT TOTAL NUMBER'
p951
S''
sS'INCIDENT INSTRUMENT ID'
p952
S''
sS'INCIDENT INSTRUMENT TYPE'
p953
S''
sS'PHYS TGT FOREIGN NATION'
p954
S''
sS'HUM TGT NUMBER'
p955
S''
sS'PHYS TGT TYPE'
p956
S''
sS'HUM TGT NAME'
p957
S''
sS'INCIDENT TYPE'
p958
S''
sS'PHYS TGT NUMBER'
p959
S''
sS'PERP INDIVIDUAL ID'
p960
S''
sS'INCIDENT STAGE OF EXECUTION'
p961
S''
sS'HUM TGT DESCRIPTION'
p962
S''
sS'PHYS TGT EFFECT OF INCIDENT'
p963
S''
sS'HUM TGT FOREIGN NATION'
p964
S''
sS'INCIDENT DATE'
p965
S''
sS'MESSAGE TEMPLATE'
p966
S''
sS'PHYS TGT TOTAL NUMBER'
p967
S''
ssS'TST4-MUC4-0011'
p968
(dp969
S'PERP ORGANIZATION CONFIDENCE'
p970
S''
sS'HUM TGT EFFECT OF INCIDENT'
p971
S''
sS'INCIDENT LOCATION'
p972
S''
sS'PHYS TGT ID'
p973
S''
sS'PERP INCIDENT CATEGORY'
p974
S''
sS'PERP ORGANIZATION ID'
p975
S''
sS'HUM TGT TYPE'
p976
S''
sS'HUM TGT TOTAL NUMBER'
p977
S''
sS'INCIDENT INSTRUMENT ID'
p978
S''
sS'INCIDENT INSTRUMENT TYPE'
p979
S''
sS'PHYS TGT FOREIGN NATION'
p980
S''
sS'HUM TGT NUMBER'
p981
S''
sS'PHYS TGT TYPE'
p982
S''
sS'HUM TGT NAME'
p983
S''
sS'INCIDENT TYPE'
p984
S''
sS'PHYS TGT NUMBER'
p985
S''
sS'PERP INDIVIDUAL ID'
p986
S''
sS'INCIDENT STAGE OF EXECUTION'
p987
S''
sS'HUM TGT DESCRIPTION'
p988
S''
sS'PHYS TGT EFFECT OF INCIDENT'
p989
S''
sS'HUM TGT FOREIGN NATION'
p990
S''
sS'INCIDENT DATE'
p991
S''
sS'MESSAGE TEMPLATE'
p992
S''
sS'PHYS TGT TOTAL NUMBER'
p993
S''
ssS'TST4-MUC4-0010'
p994
(dp995
S'PERP ORGANIZATION CONFIDENCE'
p996
S''
sS'HUM TGT EFFECT OF INCIDENT'
p997
S''
sS'INCIDENT LOCATION'
p998
S'CHILE RANCAGUA CITY'
p999
sS'PHYS TGT ID'
p1000
S'NATIONAL VANGUARD OFFICES'
p1001
sS'PERP INCIDENT CATEGORY'
p1002
S''
sS'PERP ORGANIZATION ID'
p1003
S''
sS'HUM TGT TYPE'
p1004
S''
sS'HUM TGT TOTAL NUMBER'
p1005
S''
sS'INCIDENT INSTRUMENT ID'
p1006
S'BOMB'
p1007
sS'INCIDENT INSTRUMENT TYPE'
p1008
S'BOMB BOMB'
p1009
sS'PHYS TGT FOREIGN NATION'
p1010
S''
sS'HUM TGT NUMBER'
p1011
S''
sS'PHYS TGT TYPE'
p1012
S'ORGANIZATION OFFICE COMMERCIAL OTHER NATIONAL VANGUARD OFFICES'
p1013
sS'HUM TGT NAME'
p1014
S''
sS'INCIDENT TYPE'
p1015
S'BOMBING'
p1016
sS'PHYS TGT NUMBER'
p1017
S'PLURAL NATIONAL VANGUARD OFFICES'
p1018
sS'PERP INDIVIDUAL ID'
p1019
S'UNIDENTIFIED INDIVIDUALS'
p1020
sS'INCIDENT STAGE OF EXECUTION'
p1021
S'ACCOMPLISHED'
p1022
sS'HUM TGT DESCRIPTION'
p1023
S''
sS'PHYS TGT EFFECT OF INCIDENT'
p1024
S'SOME DAMAGE NATIONAL VANGUARD OFFICES'
p1025
sS'HUM TGT FOREIGN NATION'
p1026
S''
sS'INCIDENT DATE'
p1027
S'29 JUL 88'
p1028
sS'MESSAGE TEMPLATE'
p1029
S'1'
sS'PHYS TGT TOTAL NUMBER'
p1030
S''
ssS'TST4-MUC4-0013'
p1031
(dp1032
S'PERP ORGANIZATION CONFIDENCE'
p1033
S''
sS'HUM TGT EFFECT OF INCIDENT'
p1034
S'DEATH OSCAR ARNULFO ROMERO'
p1035
sS'INCIDENT LOCATION'
p1036
S'EL SALVADOR'
p1037
sS'PHYS TGT ID'
p1038
S''
sS'PERP INCIDENT CATEGORY'
p1039
S'STATESPONSORED VIOLENCE'
p1040
sS'PERP ORGANIZATION ID'
p1041
S''
sS'HUM TGT TYPE'
p1042
S'CIVILIAN OSCAR ARNULFO ROMERO'
p1043
sS'HUM TGT TOTAL NUMBER'
p1044
S''
sS'INCIDENT INSTRUMENT ID'
p1045
S''
sS'INCIDENT INSTRUMENT TYPE'
p1046
S''
sS'PHYS TGT FOREIGN NATION'
p1047
S''
sS'HUM TGT NUMBER'
p1048
S'1 OSCAR ARNULFO ROMERO'
p1049
sS'PHYS TGT TYPE'
p1050
S''
sS'HUM TGT NAME'
p1051
S'OSCAR ARNULFO ROMERO'
p1052
sS'INCIDENT TYPE'
p1053
S'ATTACK'
p1054
sS'PHYS TGT NUMBER'
p1055
S''
sS'PERP INDIVIDUAL ID'
p1056
S'FORMER CAPTAIN ALVARO SANABRIA CAPTAIN ALVARO SANABRIA'
p1057
sS'INCIDENT STAGE OF EXECUTION'
p1058
S'ACCOMPLISHED'
p1059
sS'HUM TGT DESCRIPTION'
p1060
S'MSGR OSCAR ARNULFO ROMERO'
p1061
sS'PHYS TGT EFFECT OF INCIDENT'
p1062
S''
sS'HUM TGT FOREIGN NATION'
p1063
S''
sS'INCIDENT DATE'
p1064
S'18 AUG 88'
p1065
sS'MESSAGE TEMPLATE'
p1066
S'1 OPTIONAL'
p1067
sS'PHYS TGT TOTAL NUMBER'
p1068
S''
ssS'TST4-MUC4-0012'
p1069
(dp1070
S'PERP ORGANIZATION CONFIDENCE'
p1071
S''
sS'HUM TGT EFFECT OF INCIDENT'
p1072
S''
sS'INCIDENT LOCATION'
p1073
S''
sS'PHYS TGT ID'
p1074
S''
sS'PERP INCIDENT CATEGORY'
p1075
S''
sS'PERP ORGANIZATION ID'
p1076
S''
sS'HUM TGT TYPE'
p1077
S''
sS'HUM TGT TOTAL NUMBER'
p1078
S''
sS'INCIDENT INSTRUMENT ID'
p1079
S''
sS'INCIDENT INSTRUMENT TYPE'
p1080
S''
sS'PHYS TGT FOREIGN NATION'
p1081
S''
sS'HUM TGT NUMBER'
p1082
S''
sS'PHYS TGT TYPE'
p1083
S''
sS'HUM TGT NAME'
p1084
S''
sS'INCIDENT TYPE'
p1085
S''
sS'PHYS TGT NUMBER'
p1086
S''
sS'PERP INDIVIDUAL ID'
p1087
S''
sS'INCIDENT STAGE OF EXECUTION'
p1088
S''
sS'HUM TGT DESCRIPTION'
p1089
S''
sS'PHYS TGT EFFECT OF INCIDENT'
p1090
S''
sS'HUM TGT FOREIGN NATION'
p1091
S''
sS'INCIDENT DATE'
p1092
S''
sS'MESSAGE TEMPLATE'
p1093
S''
sS'PHYS TGT TOTAL NUMBER'
p1094
S''
ssS'TST4-MUC4-0015'
p1095
(dp1096
S'PERP ORGANIZATION CONFIDENCE'
p1097
S'POSSIBLE POPULAR LIBERATION ARMY'
p1098
sS'HUM TGT EFFECT OF INCIDENT'
p1099
S'DEATH RESIDENTS THOSE WHO RAN FOR THEIR LIVES CIVILIANS OTHERS'
p1100
sS'INCIDENT LOCATION'
p1101
S'COLOMBIA CORDOBA DEPARTMENT CANALETES MUNICIPALITY EL TOMATE TOWN'
p1102
sS'PHYS TGT ID'
p1103
S'SHACKS HOUSES'
p1104
sS'PERP INCIDENT CATEGORY'
p1105
S'TERRORIST ACT'
p1106
sS'PERP ORGANIZATION ID'
p1107
S'POPULAR LIBERATION ARMY'
p1108
sS'HUM TGT TYPE'
p1109
S'CIVILIAN RESIDENTS THOSE WHO RAN FOR THEIR LIVES CIVILIANS OTHERS'
p1110
sS'HUM TGT TOTAL NUMBER'
p1111
S''
sS'INCIDENT INSTRUMENT ID'
p1112
S''
sS'INCIDENT INSTRUMENT TYPE'
p1113
S''
sS'PHYS TGT FOREIGN NATION'
p1114
S''
sS'BUS'
p1115
S''
sS'17 RESIDENTS THOSE WHO'
p1116
S'RAN FOR THEIR LIVES CIVILIANS OTHERS'
p1117
sS'HUM TGT NUMBER'
p1118
S'12 15 12 15 RESIDENTS THOSE WHO RAN FOR THEIR LIVES CIVILIANS OTHERS'
p1119
sS'PHYS TGT TYPE'
p1120
S'CIVILIAN RESIDENCE SHACKS HOUSES'
p1121
sS'HUM TGT NAME'
p1122
S''
sS'INCIDENT TYPE'
p1123
S'ARSON'
p1124
sS'PHYS TGT NUMBER'
p1125
S'21 26 47 SHACKS HOUSES'
p1126
sS'PERP INDIVIDUAL ID'
p1127
S'GANG POSSIBLY BELONGING TO THE POPULAR LIBERATION ARMY GANG'
p1128
sS'INCIDENT STAGE OF EXECUTION'
p1129
S'ACCOMPLISHED'
p1130
sS'HUM TGT DESCRIPTION'
p1131
S'RESIDENTS THOSE WHO RAN FOR THEIR LIVES CIVILIANS OTHERS'
p1132
sS'PHYS TGT EFFECT OF INCIDENT'
p1133
S'DESTROYED SHACKS HOUSES'
p1134
sS'HUM TGT FOREIGN NATION'
p1135
S''
sS'INCIDENT DATE'
p1136
S'01 SEP 88'
p1137
sS'MESSAGE TEMPLATE'
p1138
S'2'
sS'PHYS TGT TOTAL NUMBER'
p1139
S''
ssS'TST4-MUC4-0014'
p1140
(dp1141
S'PERP ORGANIZATION CONFIDENCE'
p1142
S''
sS'HUM TGT EFFECT OF INCIDENT'
p1143
S''
sS'INCIDENT LOCATION'
p1144
S''
sS'PHYS TGT ID'
p1145
S''
sS'PERP INCIDENT CATEGORY'
p1146
S''
sS'PERP ORGANIZATION ID'
p1147
S''
sS'HUM TGT TYPE'
p1148
S''
sS'HUM TGT TOTAL NUMBER'
p1149
S''
sS'INCIDENT INSTRUMENT ID'
p1150
S''
sS'INCIDENT INSTRUMENT TYPE'
p1151
S''
sS'PHYS TGT FOREIGN NATION'
p1152
S''
sS'HUM TGT NUMBER'
p1153
S''
sS'PHYS TGT TYPE'
p1154
S''
sS'HUM TGT NAME'
p1155
S''
sS'INCIDENT TYPE'
p1156
S''
sS'PHYS TGT NUMBER'
p1157
S''
sS'PERP INDIVIDUAL ID'
p1158
S''
sS'INCIDENT STAGE OF EXECUTION'
p1159
S''
sS'HUM TGT DESCRIPTION'
p1160
S''
sS'PHYS TGT EFFECT OF INCIDENT'
p1161
S''
sS'HUM TGT FOREIGN NATION'
p1162
S''
sS'INCIDENT DATE'
p1163
S''
sS'MESSAGE TEMPLATE'
p1164
S''
sS'PHYS TGT TOTAL NUMBER'
p1165
S''
ssS'TST4-MUC4-0017'
p1166
(dp1167
S'PERP ORGANIZATION CONFIDENCE'
p1168
S''
sS'HUM TGT EFFECT OF INCIDENT'
p1169
S''
sS'INCIDENT LOCATION'
p1170
S''
sS'PHYS TGT ID'
p1171
S''
sS'PERP INCIDENT CATEGORY'
p1172
S''
sS'PERP ORGANIZATION ID'
p1173
S''
sS'HUM TGT TYPE'
p1174
S''
sS'HUM TGT TOTAL NUMBER'
p1175
S''
sS'INCIDENT INSTRUMENT ID'
p1176
S''
sS'INCIDENT INSTRUMENT TYPE'
p1177
S''
sS'PHYS TGT FOREIGN NATION'
p1178
S''
sS'HUM TGT NUMBER'
p1179
S''
sS'PHYS TGT TYPE'
p1180
S''
sS'HUM TGT NAME'
p1181
S''
sS'INCIDENT TYPE'
p1182
S''
sS'PHYS TGT NUMBER'
p1183
S''
sS'PERP INDIVIDUAL ID'
p1184
S''
sS'INCIDENT STAGE OF EXECUTION'
p1185
S''
sS'HUM TGT DESCRIPTION'
p1186
S''
sS'PHYS TGT EFFECT OF INCIDENT'
p1187
S''
sS'HUM TGT FOREIGN NATION'
p1188
S''
sS'INCIDENT DATE'
p1189
S''
sS'MESSAGE TEMPLATE'
p1190
S''
sS'PHYS TGT TOTAL NUMBER'
p1191
S''
ssS'TST4-MUC4-0016'
p1192
(dp1193
S'PERP ORGANIZATION CONFIDENCE'
p1194
S'CLAIMED OR ADMITTED FMLN GENERAL COMMAND FMLN'
p1195
sS'HUM TGT EFFECT OF INCIDENT'
p1196
S''
sS'INCIDENT LOCATION'
p1197
S'EL SALVADOR SAN SALVADOR CITY'
p1198
sS'PHYS TGT ID'
p1199
S'GOVERNMENT VEHICLES LICENSE PLATES 6906 AND 6895 USED BY THE RURAL BASIC HEALTH PLAN SECTION OF THE HEALTH MINISTRY GOVERNMENT VEHICLES LICENSE PLATES 6906 AND 6895 GOVERNMENT VEHICLES VEHICLES CARS'
p1200
sS'PERP INCIDENT CATEGORY'
p1201
S'TERRORIST ACT'
p1202
sS'PERP ORGANIZATION ID'
p1203
S'FMLN GENERAL COMMAND FMLN'
p1204
sS'HUM TGT TYPE'
p1205
S''
sS'HUM TGT TOTAL NUMBER'
p1206
S''
sS'INCIDENT INSTRUMENT ID'
p1207
S'TWO POWERFUL BOMBS POWERFUL BOMBS BOMBS'
p1208
sS'INCIDENT INSTRUMENT TYPE'
p1209
S'BOMB TWO POWERFUL BOMBS POWERFUL BOMBS BOMBS'
p1210
sS'PHYS TGT FOREIGN NATION'
p1211
S''
sS'HUM TGT NUMBER'
p1212
S''
sS'PHYS TGT TYPE'
p1213
S'TRANSPORT VEHICLE GOVERNMENT VEHICLES LICENSE PLATES 6906 AND 6895 USED BY THE RURAL BASIC HEALTH PLAN SECTION OF THE HEALTH MINISTRY GOVERNMENT VEHICLES LICENSE PLATES 6906 AND 6895 GOVERNMENT VEHICLES VEHICLES CARS'
p1214
sS'HUM TGT NAME'
p1215
S''
sS'INCIDENT TYPE'
p1216
S'BOMBING'
p1217
sS'PHYS TGT NUMBER'
p1218
S'2 GOVERNMENT VEHICLES LICENSE PLATES 6906 AND 6895 USED BY THE RURAL BASIC HEALTH PLAN SECTION OF THE HEALTH MINISTRY GOVERNMENT VEHICLES LICENSE PLATES 6906 AND 6895 GOVERNMENT VEHICLES VEHICLES CARS'
p1219
sS'PERP INDIVIDUAL ID'
p1220
S'FMLN URBAN GUERRILLAS URBAN GUERRILLAS'
p1221
sS'INCIDENT STAGE OF EXECUTION'
p1222
S'ACCOMPLISHED'
p1223
sS'HUM TGT DESCRIPTION'
p1224
S''
sS'PHYS TGT EFFECT OF INCIDENT'
p1225
S'DESTROYED GOVERNMENT VEHICLES LICENSE PLATES 6906 AND 6895 USED BY THE RURAL BASIC HEALTH PLAN SECTION OF THE HEALTH MINISTRY GOVERNMENT VEHICLES LICENSE PLATES 6906 AND 6895 GOVERNMENT VEHICLES VEHICLES CARS'
p1226
sS'HUM TGT FOREIGN NATION'
p1227
S''
sS'INCIDENT DATE'
p1228
S'05 SEP 88'
p1229
sS'MESSAGE TEMPLATE'
p1230
S'1'
sS'PHYS TGT TOTAL NUMBER'
p1231
S''
ssS'TST4-MUC4-0019'
p1232
(dp1233
S'PERP ORGANIZATION CONFIDENCE'
p1234
S''
sS'HUM TGT EFFECT OF INCIDENT'
p1235
S''
sS'INCIDENT LOCATION'
p1236
S'PERU LIMA CITY'
p1237
sS'PHYS TGT ID'
p1238
S'LIMA AGRARIAN UNIT UNIDAD AGRARIA DE LIMA LIMA AGRARIAN UNIT DEPARTMENTAL AGRARIAN UNIT NO 6 UNIDAD AGRARIA DE LIMA'
p1239
sS'PERP INCIDENT CATEGORY'
p1240
S'TERRORIST ACT'
p1241
sS'PERP ORGANIZATION ID'
p1242
S''
sS'HUM TGT TYPE'
p1243
S''
sS'HUM TGT TOTAL NUMBER'
p1244
S''
sS'INCIDENT INSTRUMENT ID'
p1245
S'POWERFUL BOMB BOMB'
p1246
sS'INCIDENT INSTRUMENT TYPE'
p1247
S'BOMB POWERFUL BOMB BOMB'
p1248
sS'PHYS TGT FOREIGN NATION'
p1249
S''
sS'ECONOMY MINISTRY ECONOMY AN'
p1250
S'D FINANCE MINISTRY BUILDING'
p1251
sS'HUM TGT NUMBER'
p1252
S''
sS'PHYS TGT TYPE'
p1253
S'GOVERNMENT OFFICE OR RESIDENCE ORGANIZATION OFFICE LIMA AGRARIAN UNIT UNIDAD AGRARIA DE LIMA LIMA AGRARIAN UNIT DEPARTMENTAL AGRARIAN UNIT NO 6 UNIDAD AGRARIA DE LIMA'
p1254
sS'HUM TGT NAME'
p1255
S''
sS'INCIDENT TYPE'
p1256
S'BOMBING'
p1257
sS'PHYS TGT NUMBER'
p1258
S'1 LIMA AGRARIAN UNIT UNIDAD AGRARIA DE LIMA LIMA AGRARIAN UNIT DEPARTMENTAL AGRARIAN UNIT NO 6 UNIDAD AGRARIA DE LIMA'
p1259
sS'PERP INDIVIDUAL ID'
p1260
S'TERRORISTS'
p1261
sS'INCIDENT STAGE OF EXECUTION'
p1262
S'ACCOMPLISHED'
p1263
sS'HUM TGT DESCRIPTION'
p1264
S''
sS'PHYS TGT EFFECT OF INCIDENT'
p1265
S''
sS'HUM TGT FOREIGN NATION'
p1266
S''
sS'INCIDENT DATE'
p1267
S'21 SEP 88'
p1268
sS'MESSAGE TEMPLATE'
p1269
S'1'
sS'PHYS TGT TOTAL NUMBER'
p1270
S''
ssS'TST4-MUC4-0018'
p1271
(dp1272
S'PERP ORGANIZATION CONFIDENCE'
p1273
S''
sS'HUM TGT EFFECT OF INCIDENT'
p1274
S'DEATH NOEL KEMPFF'
p1275
sS'INCIDENT LOCATION'
p1276
S'BOLIVIA'
p1277
sS'PHYS TGT ID'
p1278
S''
sS'PERP INCIDENT CATEGORY'
p1279
S''
sS'PERP ORGANIZATION ID'
p1280
S''
sS'HUM TGT TYPE'
p1281
S'CIVILIAN NOEL KEMPFF'
p1282
sS'HUM TGT TOTAL NUMBER'
p1283
S''
sS'INCIDENT INSTRUMENT ID'
p1284
S''
sS'INCIDENT INSTRUMENT TYPE'
p1285
S''
sS'PHYS TGT FOREIGN NATION'
p1286
S''
sS'HUM TGT NUMBER'
p1287
S'1 NOEL KEMPFF'
p1288
sS'PHYS TGT TYPE'
p1289
S''
sS'HUM TGT NAME'
p1290
S'NOEL KEMPFF'
p1291
sS'INCIDENT TYPE'
p1292
S'ATTACK'
p1293
sS'PHYS TGT NUMBER'
p1294
S''
sS'PERP INDIVIDUAL ID'
p1295
S''
sS'INCIDENT STAGE OF EXECUTION'
p1296
S'ACCOMPLISHED'
p1297
sS'HUM TGT DESCRIPTION'
p1298
S'SCIENTIST NOEL KEMPFF'
p1299
sS'PHYS TGT EFFECT OF INCIDENT'
p1300
S''
sS'HUM TGT FOREIGN NATION'
p1301
S''
sS'INCIDENT DATE'
p1302
S'16 SEP 88'
p1303
sS'MESSAGE TEMPLATE'
p1304
S'1'
sS'PHYS TGT TOTAL NUMBER'
p1305
S''
ssS'TST4-MUC4-0028'
p1306
(dp1307
S'PERP ORGANIZATION CONFIDENCE'
p1308
S''
sS'HUM TGT EFFECT OF INCIDENT'
p1309
S''
sS'INCIDENT LOCATION'
p1310
S'CHILE'
p1311
sS'PHYS TGT ID'
p1312
S'HIGH TENSION TOWERS TOWERS TOWER'
p1313
sS'PERP INCIDENT CATEGORY'
p1314
S'TERRORIST ACT'
p1315
sS'PERP ORGANIZATION ID'
p1316
S''
sS'HUM TGT TYPE'
p1317
S''
sS'HUM TGT TOTAL NUMBER'
p1318
S''
sS'INCIDENT INSTRUMENT ID'
p1319
S'POWERFUL CZECHOSLOVAKMADE PLASTIC BOMBS CZECHOSLOVAKMADE PLASTIC BOMBS PLASTIC BOMBS BOMBS CZECHOSLOVAK BOMBS'
p1320
sS'INCIDENT INSTRUMENT TYPE'
p1321
S'BOMB POWERFUL CZECHOSLOVAKMADE PLASTIC BOMBS CZECHOSLOVAKMADE PLASTIC BOMBS PLASTIC BOMBS BOMBS CZECHOSLOVAK BOMBS'
p1322
sS'PHYS TGT FOREIGN NATION'
p1323
S''
sS'HUM TGT NUMBER'
p1324
S''
sS'PHYS TGT TYPE'
p1325
S'ENERGY HIGH TENSION TOWERS TOWERS TOWER'
p1326
sS'HUM TGT NAME'
p1327
S''
sS'INCIDENT TYPE'
p1328
S'BOMBING'
p1329
sS'PHYS TGT NUMBER'
p1330
S'2 4 HIGH TENSION TOWERS TOWERS TOWER'
p1331
sS'PERP INDIVIDUAL ID'
p1332
S'TERRORISTS'
p1333
sS'INCIDENT STAGE OF EXECUTION'
p1334
S'ACCOMPLISHED'
p1335
sS'HUM TGT DESCRIPTION'
p1336
S''
sS'PHYS TGT EFFECT OF INCIDENT'
p1337
S'DESTROYED HIGH TENSION TOWERS TOWERS TOWER'
p1338
sS'HUM TGT FOREIGN NATION'
p1339
S''
sS'INCIDENT DATE'
p1340
S'01 OCT 88'
p1341
sS'MESSAGE TEMPLATE'
p1342
S'3'
sS'PHYS TGT TOTAL NUMBER'
p1343
S''
ssS'TST4-MUC4-0029'
p1344
(dp1345
S'PERP ORGANIZATION CONFIDENCE'
p1346
S'REPORTED AS FACT POSSIBLE SHINING PATH'
p1347
sS'HUM TGT EFFECT OF INCIDENT'
p1348
S''
sS'INCIDENT LOCATION'
p1349
S'PERU LIMA CITY'
p1350
sS'PHYS TGT ID'
p1351
S'EMBASSY'
p1352
sS'PERP INCIDENT CATEGORY'
p1353
S'TERRORIST ACT'
p1354
sS'PERP ORGANIZATION ID'
p1355
S'SHINING PATH'
p1356
sS'HUM TGT TYPE'
p1357
S''
sS'HUM TGT TOTAL NUMBER'
p1358
S''
sS'INCIDENT INSTRUMENT ID'
p1359
S''
sS'INCIDENT INSTRUMENT TYPE'
p1360
S''
sS'PHYS TGT FOREIGN NATION'
p1361
S'UNITED STATES EMBASSY'
p1362
sS'HUM TGT NUMBER'
p1363
S''
sS'PHYS TGT TYPE'
p1364
S'DIPLOMAT OFFICE OR RESIDENCE EMBASSY'
p1365
sS'HUM TGT NAME'
p1366
S''
sS'INCIDENT TYPE'
p1367
S'ATTACK'
p1368
sS'PHYS TGT NUMBER'
p1369
S'1 EMBASSY'
p1370
sS'PERP INDIVIDUAL ID'
p1371
S''
sS'INCIDENT STAGE OF EXECUTION'
p1372
S'ATTEMPTED'
p1373
sS'HUM TGT DESCRIPTION'
p1374
S''
sS'PHYS TGT EFFECT OF INCIDENT'
p1375
S''
sS'HUM TGT FOREIGN NATION'
p1376
S''
sS'INCIDENT DATE'
p1377
S'02 OCT 88 01 OCT 88 01 OCT 88 02 OCT 88'
p1378
sS'MESSAGE TEMPLATE'
p1379
S'3'
sS'PHYS TGT TOTAL NUMBER'
p1380
S''
ssS'TST4-MUC4-0024'
p1381
(dp1382
S'PERP ORGANIZATION CONFIDENCE'
p1383
S''
sS'HUM TGT EFFECT OF INCIDENT'
p1384
S''
sS'INCIDENT LOCATION'
p1385
S'CHILE ARICA CITY'
p1386
sS'PHYS TGT ID'
p1387
S''
sS'PERP INCIDENT CATEGORY'
p1388
S'TERRORIST ACT'
p1389
sS'PERP ORGANIZATION ID'
p1390
S''
sS'HUM TGT TYPE'
p1391
S'POLITICAL FIGURE MEMBERS OF THE PARTYS BOARD'
p1392
sS'HUM TGT TOTAL NUMBER'
p1393
S''
sS'INCIDENT INSTRUMENT ID'
p1394
S''
sS'INCIDENT INSTRUMENT TYPE'
p1395
S''
sS'PHYS TGT FOREIGN NATION'
p1396
S''
sS'HUM TGT NUMBER'
p1397
S'PLURAL MEMBERS OF THE PARTYS BOARD'
p1398
sS'PHYS TGT TYPE'
p1399
S''
sS'HUM TGT NAME'
p1400
S''
sS'INCIDENT TYPE'
p1401
S'ATTACK'
p1402
sS'PHYS TGT NUMBER'
p1403
S''
sS'PERP INDIVIDUAL ID'
p1404
S'UNIDENTIFIED INDIVIDUALS INDIVIDUALS'
p1405
sS'INCIDENT STAGE OF EXECUTION'
p1406
S'THREATENED'
p1407
sS'HUM TGT DESCRIPTION'
p1408
S'MEMBERS OF THE PARTYS BOARD'
p1409
sS'PHYS TGT EFFECT OF INCIDENT'
p1410
S''
sS'HUM TGT FOREIGN NATION'
p1411
S''
sS'INCIDENT DATE'
p1412
S'28 SEP 88'
p1413
sS'MESSAGE TEMPLATE'
p1414
S'3'
sS'PHYS TGT TOTAL NUMBER'
p1415
S''
ssS'TST4-MUC4-0025'
p1416
(dp1417
S'PERP ORGANIZATION CONFIDENCE'
p1418
S'REPORTED AS FACT FMLN'
p1419
sS'HUM TGT EFFECT OF INCIDENT'
p1420
S''
sS'INCIDENT LOCATION'
p1421
S'EL SALVADOR LA PAZ DEPARTMENT SAN FRANCISCO CHINAMECA TOWN'
p1422
sS'PHYS TGT ID'
p1423
S'ANTEL NATIONAL ADMINISTRATION FOR TELECOMMUNICATIONS INSTALLATIONS'
p1424
sS'PERP INCIDENT CATEGORY'
p1425
S'TERRORIST ACT'
p1426
sS'PERP ORGANIZATION ID'
p1427
S'FMLN'
p1428
sS'HUM TGT TYPE'
p1429
S''
sS'HUM TGT TOTAL NUMBER'
p1430
S''
sS'INCIDENT INSTRUMENT ID'
p1431
S''
sS'INCIDENT INSTRUMENT TYPE'
p1432
S''
sS'PHYS TGT FOREIGN NATION'
p1433
S''
sS'HUM TGT NUMBER'
p1434
S''
sS'PHYS TGT TYPE'
p1435
S'COMMUNICATIONS ANTEL NATIONAL ADMINISTRATION FOR TELECOMMUNICATIONS INSTALLATIONS'
p1436
sS'HUM TGT NAME'
p1437
S''
sS'INCIDENT TYPE'
p1438
S'ATTACK'
p1439
sS'PHYS TGT NUMBER'
p1440
S'PLURAL ANTEL NATIONAL ADMINISTRATION FOR TELECOMMUNICATIONS INSTALLATIONS'
p1441
sS'PERP INDIVIDUAL ID'
p1442
S''
sS'INCIDENT STAGE OF EXECUTION'
p1443
S'ACCOMPLISHED'
p1444
sS'HUM TGT DESCRIPTION'
p1445
S''
sS'PHYS TGT EFFECT OF INCIDENT'
p1446
S'DESTROYED ANTEL NATIONAL ADMINISTRATION FOR TELECOMMUNICATIONS INSTALLATIONS'
p1447
sS'HUM TGT FOREIGN NATION'
p1448
S''
sS'INCIDENT DATE'
p1449
S'30 SEP 88'
p1450
sS'MESSAGE TEMPLATE'
p1451
S'1'
sS'PHYS TGT TOTAL NUMBER'
p1452
S''
ssS'TST4-MUC4-0026'
p1453
(dp1454
S'PERP ORGANIZATION CONFIDENCE'
p1455
S''
sS'HUM TGT EFFECT OF INCIDENT'
p1456
S''
sS'INCIDENT LOCATION'
p1457
S''
sS'PHYS TGT ID'
p1458
S''
sS'PERP INCIDENT CATEGORY'
p1459
S''
sS'PERP ORGANIZATION ID'
p1460
S''
sS'HUM TGT TYPE'
p1461
S''
sS'HUM TGT TOTAL NUMBER'
p1462
S''
sS'INCIDENT INSTRUMENT ID'
p1463
S''
sS'INCIDENT INSTRUMENT TYPE'
p1464
S''
sS'PHYS TGT FOREIGN NATION'
p1465
S''
sS'HUM TGT NUMBER'
p1466
S''
sS'PHYS TGT TYPE'
p1467
S''
sS'HUM TGT NAME'
p1468
S''
sS'INCIDENT TYPE'
p1469
S''
sS'PHYS TGT NUMBER'
p1470
S''
sS'PERP INDIVIDUAL ID'
p1471
S''
sS'INCIDENT STAGE OF EXECUTION'
p1472
S''
sS'HUM TGT DESCRIPTION'
p1473
S''
sS'PHYS TGT EFFECT OF INCIDENT'
p1474
S''
sS'HUM TGT FOREIGN NATION'
p1475
S''
sS'INCIDENT DATE'
p1476
S''
sS'MESSAGE TEMPLATE'
p1477
S''
sS'PHYS TGT TOTAL NUMBER'
p1478
S''
ssS'TST4-MUC4-0027'
p1479
(dp1480
S'PERP ORGANIZATION CONFIDENCE'
p1481
S''
sS'HUM TGT EFFECT OF INCIDENT'
p1482
S''
sS'INCIDENT LOCATION'
p1483
S''
sS'PHYS TGT ID'
p1484
S''
sS'PERP INCIDENT CATEGORY'
p1485
S''
sS'PERP ORGANIZATION ID'
p1486
S''
sS'HUM TGT TYPE'
p1487
S''
sS'HUM TGT TOTAL NUMBER'
p1488
S''
sS'INCIDENT INSTRUMENT ID'
p1489
S''
sS'INCIDENT INSTRUMENT TYPE'
p1490
S''
sS'PHYS TGT FOREIGN NATION'
p1491
S''
sS'HUM TGT NUMBER'
p1492
S''
sS'PHYS TGT TYPE'
p1493
S''
sS'HUM TGT NAME'
p1494
S''
sS'INCIDENT TYPE'
p1495
S''
sS'PHYS TGT NUMBER'
p1496
S''
sS'PERP INDIVIDUAL ID'
p1497
S''
sS'INCIDENT STAGE OF EXECUTION'
p1498
S''
sS'HUM TGT DESCRIPTION'
p1499
S''
sS'PHYS TGT EFFECT OF INCIDENT'
p1500
S''
sS'HUM TGT FOREIGN NATION'
p1501
S''
sS'INCIDENT DATE'
p1502
S''
sS'MESSAGE TEMPLATE'
p1503
S''
sS'PHYS TGT TOTAL NUMBER'
p1504
S''
ssS'TST4-MUC4-0020'
p1505
(dp1506
S'PERP ORGANIZATION CONFIDENCE'
p1507
S''
sS'HUM TGT EFFECT OF INCIDENT'
p1508
S''
sS'INCIDENT LOCATION'
p1509
S''
sS'PHYS TGT ID'
p1510
S''
sS'PERP INCIDENT CATEGORY'
p1511
S''
sS'PERP ORGANIZATION ID'
p1512
S''
sS'HUM TGT TYPE'
p1513
S''
sS'HUM TGT TOTAL NUMBER'
p1514
S''
sS'INCIDENT INSTRUMENT ID'
p1515
S''
sS'INCIDENT INSTRUMENT TYPE'
p1516
S''
sS'PHYS TGT FOREIGN NATION'
p1517
S''
sS'HUM TGT NUMBER'
p1518
S''
sS'PHYS TGT TYPE'
p1519
S''
sS'HUM TGT NAME'
p1520
S''
sS'INCIDENT TYPE'
p1521
S''
sS'PHYS TGT NUMBER'
p1522
S''
sS'PERP INDIVIDUAL ID'
p1523
S''
sS'INCIDENT STAGE OF EXECUTION'
p1524
S''
sS'HUM TGT DESCRIPTION'
p1525
S''
sS'PHYS TGT EFFECT OF INCIDENT'
p1526
S''
sS'HUM TGT FOREIGN NATION'
p1527
S''
sS'INCIDENT DATE'
p1528
S''
sS'MESSAGE TEMPLATE'
p1529
S''
sS'PHYS TGT TOTAL NUMBER'
p1530
S''
ssS'TST4-MUC4-0021'
p1531
(dp1532
S'PERP ORGANIZATION CONFIDENCE'
p1533
S''
sS'HUM TGT EFFECT OF INCIDENT'
p1534
S'INJURY PEOPLE'
p1535
sS'INCIDENT LOCATION'
p1536
S'COLOMBIA BUCARAMANGA CITY'
p1537
sS'PHYS TGT ID'
p1538
S'2D ARMY DIVISION HEADQUARTERS'
p1539
sS'PERP INCIDENT CATEGORY'
p1540
S'TERRORIST ACT'
p1541
sS'PERP ORGANIZATION ID'
p1542
S''
sS'HUM TGT TYPE'
p1543
S'CIVILIAN ACTIVE MILITARY PEOPLE'
p1544
sS'HUM TGT TOTAL NUMBER'
p1545
S''
sS'INCIDENT INSTRUMENT ID'
p1546
S''
sS'INCIDENT INSTRUMENT TYPE'
p1547
S''
sS'PHYS TGT FOREIGN NATION'
p1548
S''
sS'HUM TGT NUMBER'
p1549
S'7 PEOPLE'
p1550
sS'PHYS TGT TYPE'
p1551
S'OTHER 2D ARMY DIVISION HEADQUARTERS'
p1552
sS'HUM TGT NAME'
p1553
S''
sS'HOMES'
p1554
S''
sS'INCIDENT TYPE'
p1555
S'ATTACK'
p1556
sS'PHYS TGT NUMBER'
p1557
S'1 PLURAL 2D ARMY DIVISION HEADQUARTERS'
p1558
sS'PERP INDIVIDUAL ID'
p1559
S'TERRORIST'
p1560
sS'INCIDENT STAGE OF EXECUTION'
p1561
S'ACCOMPLISHED'
p1562
sS'HUM TGT DESCRIPTION'
p1563
S'PEOPLE'
p1564
sS'PHYS TGT EFFECT OF INCIDENT'
p1565
S'SOME DAMAGE 2D ARMY DIVISION HEADQUARTERS'
p1566
sS'HUM TGT FOREIGN NATION'
p1567
S''
sS'INCIDENT DATE'
p1568
S'21 SEP 88'
p1569
sS'MESSAGE TEMPLATE'
p1570
S'2'
sS'PHYS TGT TOTAL NUMBER'
p1571
S''
ssS'TST4-MUC4-0022'
p1572
(dp1573
S'PERP ORGANIZATION CONFIDENCE'
p1574
S''
sS'HUM TGT EFFECT OF INCIDENT'
p1575
S''
sS'INCIDENT LOCATION'
p1576
S'PERU SAN CLEMENTE TOWN'
p1577
sS'PHYS TGT ID'
p1578
S'MACHINERY BELONGING TO ALBOLONES PERUANOS INC MACHINERY'
p1579
sS'PERP INCIDENT CATEGORY'
p1580
S'TERRORIST ACT'
p1581
sS'PERP ORGANIZATION ID'
p1582
S''
sS'HUM TGT TYPE'
p1583
S'CIVILIAN WORKERS'
p1584
sS'HUM TGT TOTAL NUMBER'
p1585
S''
sS'INCIDENT INSTRUMENT ID'
p1586
S'MOLOTOV COCKTAILS'
p1587
sS'INCIDENT INSTRUMENT TYPE'
p1588
S'DYNAMITE'
p1589
sS'PHYS TGT FOREIGN NATION'
p1590
S''
sS'HUM TGT NUMBER'
p1591
S'20 WORKERS'
p1592
sS'PHYS TGT TYPE'
p1593
S'OTHER MACHINERY BELONGING TO ALBOLONES PERUANOS INC MACHINERY'
p1594
sS'HUM TGT NAME'
p1595
S''
sS'INCIDENT TYPE'
p1596
S'BOMBING'
p1597
sS'PHYS TGT NUMBER'
p1598
S'1 PLURAL MACHINERY BELONGING TO ALBOLONES PERUANOS INC MACHINERY'
p1599
sS'PERP INDIVIDUAL ID'
p1600
S'GROUP OF TERRORISTS TERRORISTS APPROXIMATELY 20 TERRORISTS'
p1601
sS'INCIDENT STAGE OF EXECUTION'
p1602
S'ACCOMPLISHED'
p1603
sS'HUM TGT DESCRIPTION'
p1604
S'WORKERS'
p1605
sS'PHYS TGT EFFECT OF INCIDENT'
p1606
S''
sS'HUM TGT FOREIGN NATION'
p1607
S''
sS'INCIDENT DATE'
p1608
S'22 SEP 88 22 SEP 88 23 SEP 88'
p1609
sS'MESSAGE TEMPLATE'
p1610
S'1'
sS'PHYS TGT TOTAL NUMBER'
p1611
S''
ssS'TST4-MUC4-0023'
p1612
(dp1613
S'PERP ORGANIZATION CONFIDENCE'
p1614
S''
sS'HUM TGT EFFECT OF INCIDENT'
p1615
S''
sS'INCIDENT LOCATION'
p1616
S''
sS'PHYS TGT ID'
p1617
S''
sS'PERP INCIDENT CATEGORY'
p1618
S''
sS'PERP ORGANIZATION ID'
p1619
S''
sS'HUM TGT TYPE'
p1620
S''
sS'HUM TGT TOTAL NUMBER'
p1621
S''
sS'INCIDENT INSTRUMENT ID'
p1622
S''
sS'INCIDENT INSTRUMENT TYPE'
p1623
S''
sS'PHYS TGT FOREIGN NATION'
p1624
S''
sS'HUM TGT NUMBER'
p1625
S''
sS'PHYS TGT TYPE'
p1626
S''
sS'HUM TGT NAME'
p1627
S''
sS'INCIDENT TYPE'
p1628
S''
sS'PHYS TGT NUMBER'
p1629
S''
sS'PERP INDIVIDUAL ID'
p1630
S''
sS'INCIDENT STAGE OF EXECUTION'
p1631
S''
sS'HUM TGT DESCRIPTION'
p1632
S''
sS'PHYS TGT EFFECT OF INCIDENT'
p1633
S''
sS'HUM TGT FOREIGN NATION'
p1634
S''
sS'INCIDENT DATE'
p1635
S''
sS'MESSAGE TEMPLATE'
p1636
S''
sS'PHYS TGT TOTAL NUMBER'
p1637
S''
ssS'TST4-MUC4-0039'
p1638
(dp1639
S'PERP ORGANIZATION CONFIDENCE'
p1640
S''
sS'HUM TGT EFFECT OF INCIDENT'
p1641
S''
sS'INCIDENT LOCATION'
p1642
S''
sS'PHYS TGT ID'
p1643
S''
sS'PERP INCIDENT CATEGORY'
p1644
S''
sS'PERP ORGANIZATION ID'
p1645
S''
sS'HUM TGT TYPE'
p1646
S''
sS'HUM TGT TOTAL NUMBER'
p1647
S''
sS'INCIDENT INSTRUMENT ID'
p1648
S''
sS'INCIDENT INSTRUMENT TYPE'
p1649
S''
sS'PHYS TGT FOREIGN NATION'
p1650
S''
sS'HUM TGT NUMBER'
p1651
S''
sS'PHYS TGT TYPE'
p1652
S''
sS'HUM TGT NAME'
p1653
S''
sS'INCIDENT TYPE'
p1654
S''
sS'PHYS TGT NUMBER'
p1655
S''
sS'PERP INDIVIDUAL ID'
p1656
S''
sS'INCIDENT STAGE OF EXECUTION'
p1657
S''
sS'HUM TGT DESCRIPTION'
p1658
S''
sS'PHYS TGT EFFECT OF INCIDENT'
p1659
S''
sS'HUM TGT FOREIGN NATION'
p1660
S''
sS'INCIDENT DATE'
p1661
S''
sS'MESSAGE TEMPLATE'
p1662
S''
sS'PHYS TGT TOTAL NUMBER'
p1663
S''
ssS'TST4-MUC4-0038'
p1664
(dp1665
S'PERP ORGANIZATION CONFIDENCE'
p1666
S'REPORTED AS FACT EPS'
p1667
sS'HUM TGT EFFECT OF INCIDENT'
p1668
S'REGAINED FREEDOM GUILLERMO SAUL MEJIA HERRERA'
p1669
sS'INCIDENT LOCATION'
p1670
S'HONDURAS'
p1671
sS'PHYS TGT ID'
p1672
S''
sS'PERP INCIDENT CATEGORY'
p1673
S'STATESPONSORED VIOLENCE'
p1674
sS'PERP ORGANIZATION ID'
p1675
S'EPS'
p1676
sS'HUM TGT TYPE'
p1677
S'CIVILIAN ROSALIO MEJIA RODRIGUEZ'
p1678
sS'HUM TGT TOTAL NUMBER'
p1679
S''
sS'INCIDENT INSTRUMENT ID'
p1680
S''
sS'INCIDENT INSTRUMENT TYPE'
p1681
S''
sS'PHYS TGT FOREIGN NATION'
p1682
S''
sS'HUM TGT NUMBER'
p1683
S'1 ROSALIO MEJIA RODRIGUEZ'
p1684
sS'PHYS TGT TYPE'
p1685
S''
sS'HUM TGT NAME'
p1686
S'ROSALIO MEJIA RODRIGUEZ'
p1687
sS'INCIDENT TYPE'
p1688
S'KIDNAPPING'
p1689
sS'PHYS TGT NUMBER'
p1690
S''
sS'PERP INDIVIDUAL ID'
p1691
S'EPS SOLDIERS SOLDIERS EPS TROOPS TROOPS'
p1692
sS'GUILLERMO SAUL MEJIA HERRERA'
p1693
S''
sS'INCIDENT STAGE OF EXECUTION'
p1694
S'ACCOMPLISHED'
p1695
sS'HECTOR ROSALES MEJIA RODRIGUEZ'
p1696
S''
sS'HUM TGT DESCRIPTION'
p1697
S'HER SON SON HIS SON GUILLERMO SAUL MEJIA HERRERA'
p1698
sS'PHYS TGT EFFECT OF INCIDENT'
p1699
S''
sS'HUM TGT FOREIGN NATION'
p1700
S''
sS'INCIDENT DATE'
p1701
S'21 AUG 88'
p1702
sS'MESSAGE TEMPLATE'
p1703
S'1'
sS'PHYS TGT TOTAL NUMBER'
p1704
S''
ssS'TST4-MUC4-0033'
p1705
(dp1706
S'PERP ORGANIZATION CONFIDENCE'
p1707
S''
sS'HUM TGT EFFECT OF INCIDENT'
p1708
S''
sS'INCIDENT LOCATION'
p1709
S''
sS'PHYS TGT ID'
p1710
S''
sS'PERP INCIDENT CATEGORY'
p1711
S''
sS'PERP ORGANIZATION ID'
p1712
S''
sS'HUM TGT TYPE'
p1713
S''
sS'HUM TGT TOTAL NUMBER'
p1714
S''
sS'INCIDENT INSTRUMENT ID'
p1715
S''
sS'INCIDENT INSTRUMENT TYPE'
p1716
S''
sS'PHYS TGT FOREIGN NATION'
p1717
S''
sS'HUM TGT NUMBER'
p1718
S''
sS'PHYS TGT TYPE'
p1719
S''
sS'HUM TGT NAME'
p1720
S''
sS'INCIDENT TYPE'
p1721
S''
sS'PHYS TGT NUMBER'
p1722
S''
sS'PERP INDIVIDUAL ID'
p1723
S''
sS'INCIDENT STAGE OF EXECUTION'
p1724
S''
sS'HUM TGT DESCRIPTION'
p1725
S''
sS'PHYS TGT EFFECT OF INCIDENT'
p1726
S''
sS'HUM TGT FOREIGN NATION'
p1727
S''
sS'INCIDENT DATE'
p1728
S''
sS'MESSAGE TEMPLATE'
p1729
S''
sS'PHYS TGT TOTAL NUMBER'
p1730
S''
ssS'TST4-MUC4-0032'
p1731
(dp1732
S'PERP ORGANIZATION CONFIDENCE'
p1733
S''
sS'HUM TGT EFFECT OF INCIDENT'
p1734
S'NO INJURY OR DEATH NO DEATH'
p1735
sS'INCIDENT LOCATION'
p1736
S'ARGENTINA CORDOBA CITY BARRIO ALTA NEIGHBORHOOD'
p1737
sS'PHYS TGT ID'
p1738
S'HEADQUARTERS OF THE SHOE INDUSTRY WORKERS UNION'
p1739
sS'PERP INCIDENT CATEGORY'
p1740
S''
sS'PERP ORGANIZATION ID'
p1741
S''
sS'HUM TGT TYPE'
p1742
S''
sS'HUM TGT TOTAL NUMBER'
p1743
S''
sS'INCIDENT INSTRUMENT ID'
p1744
S'SMALL HOMEMADE BOMB HOMEMADE BOMB BOMB'
p1745
sS'INCIDENT INSTRUMENT TYPE'
p1746
S'BOMB SMALL HOMEMADE BOMB HOMEMADE BOMB BOMB'
p1747
sS'PHYS TGT FOREIGN NATION'
p1748
S''
sS'HUM TGT NUMBER'
p1749
S''
sS'PHYS TGT TYPE'
p1750
S'ORGANIZATION OFFICE HEADQUARTERS OF THE SHOE INDUSTRY WORKERS UNION'
p1751
sS'HUM TGT NAME'
p1752
S''
sS'INCIDENT TYPE'
p1753
S'BOMBING'
p1754
sS'PHYS TGT NUMBER'
p1755
S'1 PLURAL HEADQUARTERS OF THE SHOE INDUSTRY WORKERS UNION'
p1756
sS'PERP INDIVIDUAL ID'
p1757
S''
sS'INCIDENT STAGE OF EXECUTION'
p1758
S'ACCOMPLISHED'
p1759
sS'HUM TGT DESCRIPTION'
p1760
S''
sS'PHYS TGT EFFECT OF INCIDENT'
p1761
S'SOME DAMAGE HEADQUARTERS OF THE SHOE INDUSTRY WORKERS UNION'
p1762
sS'HUM TGT FOREIGN NATION'
p1763
S''
sS'INCIDENT DATE'
p1764
S'09 OCT 88'
p1765
sS'MESSAGE TEMPLATE'
p1766
S'1'
sS'PHYS TGT TOTAL NUMBER'
p1767
S''
ssS'TST4-MUC4-0031'
p1768
(dp1769
S'PERP ORGANIZATION CONFIDENCE'
p1770
S'SUSPECTED OR ACCUSED REPORTED AS FACT ELN'
p1771
sS'HUM TGT EFFECT OF INCIDENT'
p1772
S''
sS'INCIDENT LOCATION'
p1773
S'COLOMBIA ALTO DE SAN PABLO AREA'
p1774
sS'PHYS TGT ID'
p1775
S'SECTION OF THE MULTIPURPOSE PIPELINE RUNNING FROM BARRANCABERMEJA TO BUCARAMANGA MULTIPURPOSE PIPELINE RUNNING FROM BARRANCABERMEJA TO BUCARAMANGA MULTIPURPOSE PIPELINE BUCARAMANGA BARRANCABERMEJA MULTIPURPOSE PIPELINE 30METER SECTION OF PIPELINE PIPELINE OIL PIPELINE SECTION OF THE MULTIPURPOSE PIPELINE BETWEEN BARRANCABERMEJA AND BUCARAMANGA SECTION OF THE MULTIPURPOSE PIPELINE'
p1776
sS'PERP INCIDENT CATEGORY'
p1777
S'TERRORIST ACT'
p1778
sS'PERP ORGANIZATION ID'
p1779
S'ELN'
p1780
sS'HUM TGT TYPE'
p1781
S''
sS'HUM TGT TOTAL NUMBER'
p1782
S''
sS'INCIDENT INSTRUMENT ID'
p1783
S''
sS'INCIDENT INSTRUMENT TYPE'
p1784
S'DYNAMITE'
p1785
sS'100METER SECTION OF THE CENTRA'
p1786
S'L HIGHWAY SECTION OF THE CENTRAL HIGHWAY CENTRAL HIGHWAY HIGHWAY'
p1787
sS'PHYS TGT FOREIGN NATION'
p1788
S''
sS'HUM TGT NUMBER'
p1789
S''
sS'PHYS TGT TYPE'
p1790
S'ENERGY SECTION OF THE MULTIPURPOSE PIPELINE RUNNING FROM BARRANCABERMEJA TO BUCARAMANGA MULTIPURPOSE PIPELINE RUNNING FROM BARRANCABERMEJA TO BUCARAMANGA MULTIPURPOSE PIPELINE BUCARAMANGA BARRANCABERMEJA MULTIPURPOSE PIPELINE 30METER SECTION OF PIPELINE PIPELINE OIL PIPELINE SECTION OF THE MULTIPURPOSE PIPELINE BETWEEN BARRANCABERMEJA AND BUCARAMANGA SECTION OF THE MULTIPURPOSE PIPELINE'
p1791
sS'HUM TGT NAME'
p1792
S''
sS'INCIDENT TYPE'
p1793
S'BOMBING'
p1794
sS'PHYS TGT NUMBER'
p1795
S'1 SECTION OF THE MULTIPURPOSE PIPELINE RUNNING FROM BARRANCABERMEJA TO BUCARAMANGA MULTIPURPOSE PIPELINE RUNNING FROM BARRANCABERMEJA TO BUCARAMANGA MULTIPURPOSE PIPELINE BUCARAMANGA BARRANCABERMEJA MULTIPURPOSE PIPELINE 30METER SECTION OF PIPELINE PIPELINE OIL PIPELINE SECTION OF THE MULTIPURPOSE PIPELINE BETWEEN BARRANCABERMEJA AND BUCARAMANGA SECTION OF THE MULTIPURPOSE PIPELINE'
p1796
sS'PERP INDIVIDUAL ID'
p1797
S'TERRORIST'
p1798
sS'INCIDENT STAGE OF EXECUTION'
p1799
S'ACCOMPLISHED'
p1800
sS'HUM TGT DESCRIPTION'
p1801
S''
sS'PHYS TGT EFFECT OF INCIDENT'
p1802
S'DESTROYED SECTION OF THE MULTIPURPOSE PIPELINE RUNNING FROM BARRANCABERMEJA TO BUCARAMANGA MULTIPURPOSE PIPELINE RUNNING FROM BARRANCABERMEJA TO BUCARAMANGA MULTIPURPOSE PIPELINE BUCARAMANGA BARRANCABERMEJA MULTIPURPOSE PIPELINE 30METER SECTION OF PIPELINE PIPELINE OIL PIPELINE SECTION OF THE MULTIPURPOSE PIPELINE BETWEEN BARRANCABERMEJA AND BUCARAMANGA SECTION OF THE MULTIPURPOSE PIPELINE'
p1803
sS'HUM TGT FOREIGN NATION'
p1804
S''
sS'INCIDENT DATE'
p1805
S'07 OCT 88'
p1806
sS'MESSAGE TEMPLATE'
p1807
S'1'
sS'PHYS TGT TOTAL NUMBER'
p1808
S''
ssS'TST4-MUC4-0030'
p1809
(dp1810
S'PERP ORGANIZATION CONFIDENCE'
p1811
S''
sS'HUM TGT EFFECT OF INCIDENT'
p1812
S''
sS'INCIDENT LOCATION'
p1813
S''
sS'PHYS TGT ID'
p1814
S''
sS'PERP INCIDENT CATEGORY'
p1815
S''
sS'PERP ORGANIZATION ID'
p1816
S''
sS'HUM TGT TYPE'
p1817
S''
sS'HUM TGT TOTAL NUMBER'
p1818
S''
sS'INCIDENT INSTRUMENT ID'
p1819
S''
sS'INCIDENT INSTRUMENT TYPE'
p1820
S''
sS'PHYS TGT FOREIGN NATION'
p1821
S''
sS'HUM TGT NUMBER'
p1822
S''
sS'PHYS TGT TYPE'
p1823
S''
sS'HUM TGT NAME'
p1824
S''
sS'INCIDENT TYPE'
p1825
S''
sS'PHYS TGT NUMBER'
p1826
S''
sS'PERP INDIVIDUAL ID'
p1827
S''
sS'INCIDENT STAGE OF EXECUTION'
p1828
S''
sS'HUM TGT DESCRIPTION'
p1829
S''
sS'PHYS TGT EFFECT OF INCIDENT'
p1830
S''
sS'HUM TGT FOREIGN NATION'
p1831
S''
sS'INCIDENT DATE'
p1832
S''
sS'MESSAGE TEMPLATE'
p1833
S''
sS'PHYS TGT TOTAL NUMBER'
p1834
S''
ssS'TST4-MUC4-0037'
p1835
(dp1836
S'PERP ORGANIZATION CONFIDENCE'
p1837
S'REPORTED AS FACT FMLN'
p1838
sS'HUM TGT EFFECT OF INCIDENT'
p1839
S''
sS'INCIDENT LOCATION'
p1840
S'EL SALVADOR ILOBASCO JURISDICTION GALERA QUEMADA CANTON'
p1841
sS'PHYS TGT ID'
p1842
S'POWER POLE'
p1843
sS'PERP INCIDENT CATEGORY'
p1844
S'TERRORIST ACT'
p1845
sS'PERP ORGANIZATION ID'
p1846
S'FMLN'
p1847
sS'HUM TGT TYPE'
p1848
S''
sS'HUM TGT TOTAL NUMBER'
p1849
S''
sS'INCIDENT INSTRUMENT ID'
p1850
S''
sS'INCIDENT INSTRUMENT TYPE'
p1851
S'EXPLOSIVE'
p1852
sS'PHYS TGT FOREIGN NATION'
p1853
S''
sS'HUM TGT NUMBER'
p1854
S''
sS'PHYS TGT TYPE'
p1855
S'ENERGY POWER POLE'
p1856
sS'HUM TGT NAME'
p1857
S''
sS'INCIDENT TYPE'
p1858
S'BOMBING'
p1859
sS'PHYS TGT NUMBER'
p1860
S'1 POWER POLE'
p1861
sS'PERP INDIVIDUAL ID'
p1862
S'FMLN GUERRILLAS GUERRILLAS'
p1863
sS'INCIDENT STAGE OF EXECUTION'
p1864
S'ACCOMPLISHED'
p1865
sS'HUM TGT DESCRIPTION'
p1866
S''
sS'PHYS TGT EFFECT OF INCIDENT'
p1867
S'DESTROYED POWER POLE'
p1868
sS'HUM TGT FOREIGN NATION'
p1869
S''
sS'INCIDENT DATE'
p1870
S'12 OCT 88'
p1871
sS'MESSAGE TEMPLATE'
p1872
S'3'
sS'PHYS TGT TOTAL NUMBER'
p1873
S''
ssS'TST4-MUC4-0036'
p1874
(dp1875
S'PERP ORGANIZATION CONFIDENCE'
p1876
S''
sS'HUM TGT EFFECT OF INCIDENT'
p1877
S''
sS'INCIDENT LOCATION'
p1878
S''
sS'PHYS TGT ID'
p1879
S''
sS'PERP INCIDENT CATEGORY'
p1880
S''
sS'PERP ORGANIZATION ID'
p1881
S''
sS'HUM TGT TYPE'
p1882
S''
sS'HUM TGT TOTAL NUMBER'
p1883
S''
sS'INCIDENT INSTRUMENT ID'
p1884
S''
sS'INCIDENT INSTRUMENT TYPE'
p1885
S''
sS'PHYS TGT FOREIGN NATION'
p1886
S''
sS'HUM TGT NUMBER'
p1887
S''
sS'PHYS TGT TYPE'
p1888
S''
sS'HUM TGT NAME'
p1889
S''
sS'INCIDENT TYPE'
p1890
S''
sS'PHYS TGT NUMBER'
p1891
S''
sS'PERP INDIVIDUAL ID'
p1892
S''
sS'INCIDENT STAGE OF EXECUTION'
p1893
S''
sS'HUM TGT DESCRIPTION'
p1894
S''
sS'PHYS TGT EFFECT OF INCIDENT'
p1895
S''
sS'HUM TGT FOREIGN NATION'
p1896
S''
sS'INCIDENT DATE'
p1897
S''
sS'MESSAGE TEMPLATE'
p1898
S''
sS'PHYS TGT TOTAL NUMBER'
p1899
S''
ssS'TST4-MUC4-0035'
p1900
(dp1901
S'PERP ORGANIZATION CONFIDENCE'
p1902
S''
sS'HUM TGT EFFECT OF INCIDENT'
p1903
S''
sS'INCIDENT LOCATION'
p1904
S''
sS'PHYS TGT ID'
p1905
S''
sS'PERP INCIDENT CATEGORY'
p1906
S''
sS'PERP ORGANIZATION ID'
p1907
S''
sS'HUM TGT TYPE'
p1908
S''
sS'HUM TGT TOTAL NUMBER'
p1909
S''
sS'INCIDENT INSTRUMENT ID'
p1910
S''
sS'INCIDENT INSTRUMENT TYPE'
p1911
S''
sS'PHYS TGT FOREIGN NATION'
p1912
S''
sS'HUM TGT NUMBER'
p1913
S''
sS'PHYS TGT TYPE'
p1914
S''
sS'HUM TGT NAME'
p1915
S''
sS'INCIDENT TYPE'
p1916
S''
sS'PHYS TGT NUMBER'
p1917
S''
sS'PERP INDIVIDUAL ID'
p1918
S''
sS'INCIDENT STAGE OF EXECUTION'
p1919
S''
sS'HUM TGT DESCRIPTION'
p1920
S''
sS'PHYS TGT EFFECT OF INCIDENT'
p1921
S''
sS'HUM TGT FOREIGN NATION'
p1922
S''
sS'INCIDENT DATE'
p1923
S''
sS'MESSAGE TEMPLATE'
p1924
S''
sS'PHYS TGT TOTAL NUMBER'
p1925
S''
ssS'TST4-MUC4-0034'
p1926
(dp1927
S'PERP ORGANIZATION CONFIDENCE'
p1928
S''
sS'HUM TGT EFFECT OF INCIDENT'
p1929
S'NO INJURY OR DEATH NO INJURY ENRIQUE FRANCO'
p1930
sS'INCIDENT LOCATION'
p1931
S'PERU LIMA CITY SAN BORJA NEIGHBORHOOD'
p1932
sS'PHYS TGT ID'
p1933
S'HOME OF A PERUVIAN ARMY GENERAL HOME OF GENERAL ENRIQUE FRANCO'
p1934
sS'PERP INCIDENT CATEGORY'
p1935
S'TERRORIST ACT'
p1936
sS'PERP ORGANIZATION ID'
p1937
S''
sS'HUM TGT TYPE'
p1938
S'ACTIVE MILITARY ENRIQUE FRANCO'
p1939
sS'HUM TGT TOTAL NUMBER'
p1940
S''
sS'INCIDENT INSTRUMENT ID'
p1941
S'BOMB'
p1942
sS'INCIDENT INSTRUMENT TYPE'
p1943
S'BOMB BOMB'
p1944
sS'PHYS TGT FOREIGN NATION'
p1945
S''
sS'HUM TGT NUMBER'
p1946
S'1 ENRIQUE FRANCO'
p1947
sS'GENERALS VEHICLE VEHICLE'
p1948
S''
sS'PHYS TGT TYPE'
p1949
S'OTHER HOME OF A PERUVIAN ARMY GENERAL HOME OF GENERAL ENRIQUE FRANCO'
p1950
sS'HUM TGT NAME'
p1951
S'ENRIQUE FRANCO'
p1952
sS'INCIDENT TYPE'
p1953
S'BOMBING'
p1954
sS'PHYS TGT NUMBER'
p1955
S'1 HOME OF A PERUVIAN ARMY GENERAL HOME OF GENERAL ENRIQUE FRANCO'
p1956
sS'PERP INDIVIDUAL ID'
p1957
S'GROUP OF UNIDENTIFIED INDIVIDUALS UNIDENTIFIED INDIVIDUALS INDIVIDUALS'
p1958
sS'INCIDENT STAGE OF EXECUTION'
p1959
S'ACCOMPLISHED'
p1960
sS'HUM TGT DESCRIPTION'
p1961
S'ARMY GENERAL GENERAL ENRIQUE FRANCO'
p1962
sS'PHYS TGT EFFECT OF INCIDENT'
p1963
S'SOME DAMAGE HOME OF A PERUVIAN ARMY GENERAL HOME OF GENERAL ENRIQUE FRANCO'
p1964
sS'HUM TGT FOREIGN NATION'
p1965
S''
sS'INCIDENT DATE'
p1966
S'09 OCT 88'
p1967
sS'MESSAGE TEMPLATE'
p1968
S'1'
sS'PHYS TGT TOTAL NUMBER'
p1969
S''
ssS'TST4-MUC4-0048'
p1970
(dp1971
S'PERP ORGANIZATION CONFIDENCE'
p1972
S'CLAIMED OR ADMITTED SUSPECTED OR ACCUSED BY AUTHORITIES ARMED FORCES'
p1973
sS'HUM TGT EFFECT OF INCIDENT'
p1974
S'DEATH PATRIOTIC UNION UP MEMBERS'
p1975
sS'INCIDENT LOCATION'
p1976
S'COLOMBIA'
p1977
sS'PHYS TGT ID'
p1978
S''
sS'PERP INCIDENT CATEGORY'
p1979
S'STATESPONSORED VIOLENCE'
p1980
sS'PERP ORGANIZATION ID'
p1981
S'ARMED FORCES'
p1982
sS'HUM TGT TYPE'
p1983
S'CIVILIAN POLITICAL FIGURE PATRIOTIC UNION UP MEMBERS'
p1984
sS'HUM TGT TOTAL NUMBER'
p1985
S''
sS'INCIDENT INSTRUMENT ID'
p1986
S''
sS'INCIDENT INSTRUMENT TYPE'
p1987
S''
sS'PHYS TGT FOREIGN NATION'
p1988
S''
sS'HUM TGT NUMBER'
p1989
S'PLURAL PATRIOTIC UNION UP MEMBERS'
p1990
sS'PHYS TGT TYPE'
p1991
S''
sS'HUM TGT NAME'
p1992
S''
sS'INCIDENT TYPE'
p1993
S'ATTACK'
p1994
sS'PHYS TGT NUMBER'
p1995
S''
sS'PERP INDIVIDUAL ID'
p1996
S'PARAMILITARY DEATH SQUADS DEATH SQUADS'
p1997
sS'INCIDENT STAGE OF EXECUTION'
p1998
S'ACCOMPLISHED'
p1999
sS'HUM TGT DESCRIPTION'
p2000
S'PATRIOTIC UNION UP MEMBERS'
p2001
sS'PHYS TGT EFFECT OF INCIDENT'
p2002
S''
sS'HUM TGT FOREIGN NATION'
p2003
S''
sS'INCIDENT DATE'
p2004
S'29 OCT 88'
p2005
sS'MESSAGE TEMPLATE'
p2006
S'1 OPTIONAL'
p2007
sS'PHYS TGT TOTAL NUMBER'
p2008
S''
ssS'TST4-MUC4-0049'
p2009
(dp2010
S'PERP ORGANIZATION CONFIDENCE'
p2011
S''
sS'HUM TGT EFFECT OF INCIDENT'
p2012
S''
sS'INCIDENT LOCATION'
p2013
S''
sS'PHYS TGT ID'
p2014
S''
sS'PERP INCIDENT CATEGORY'
p2015
S''
sS'PERP ORGANIZATION ID'
p2016
S''
sS'HUM TGT TYPE'
p2017
S''
sS'HUM TGT TOTAL NUMBER'
p2018
S''
sS'INCIDENT INSTRUMENT ID'
p2019
S''
sS'INCIDENT INSTRUMENT TYPE'
p2020
S''
sS'PHYS TGT FOREIGN NATION'
p2021
S''
sS'HUM TGT NUMBER'
p2022
S''
sS'PHYS TGT TYPE'
p2023
S''
sS'HUM TGT NAME'
p2024
S''
sS'INCIDENT TYPE'
p2025
S''
sS'PHYS TGT NUMBER'
p2026
S''
sS'PERP INDIVIDUAL ID'
p2027
S''
sS'INCIDENT STAGE OF EXECUTION'
p2028
S''
sS'HUM TGT DESCRIPTION'
p2029
S''
sS'PHYS TGT EFFECT OF INCIDENT'
p2030
S''
sS'HUM TGT FOREIGN NATION'
p2031
S''
sS'INCIDENT DATE'
p2032
S''
sS'MESSAGE TEMPLATE'
p2033
S''
sS'PHYS TGT TOTAL NUMBER'
p2034
S''
ssS'TST4-MUC4-0046'
p2035
(dp2036
S'PERP ORGANIZATION CONFIDENCE'
p2037
S'SUSPECTED OR ACCUSED CLAIMED OR ADMITTED ARMED FORCES'
p2038
sS'HUM TGT EFFECT OF INCIDENT'
p2039
S'DEATH OSCAR ARNULFO ROMERO'
p2040
sS'INCIDENT LOCATION'
p2041
S'EL SALVADOR'
p2042
sS'PHYS TGT ID'
p2043
S''
sS'PERP INCIDENT CATEGORY'
p2044
S'STATESPONSORED VIOLENCE'
p2045
sS'PERP ORGANIZATION ID'
p2046
S'ARMED FORCES'
p2047
sS'HUM TGT TYPE'
p2048
S'CIVILIAN OSCAR ARNULFO ROMERO'
p2049
sS'HUM TGT TOTAL NUMBER'
p2050
S''
sS'INCIDENT INSTRUMENT ID'
p2051
S''
sS'INCIDENT INSTRUMENT TYPE'
p2052
S''
sS'PHYS TGT FOREIGN NATION'
p2053
S''
sS'HUM TGT NUMBER'
p2054
S'1 OSCAR ARNULFO ROMERO'
p2055
sS'PHYS TGT TYPE'
p2056
S''
sS'HUM TGT NAME'
p2057
S'OSCAR ARNULFO ROMERO'
p2058
sS'INCIDENT TYPE'
p2059
S'ATTACK'
p2060
sS'PHYS TGT NUMBER'
p2061
S''
sS'PERP INDIVIDUAL ID'
p2062
S'RIGHTWING MEMBERS SEVERAL RIGHTWING MEMBERS SOME DEATH SQUAD MEMBERS DEATH SQUAD MEMBERS'
p2063
sS'INCIDENT STAGE OF EXECUTION'
p2064
S'ACCOMPLISHED'
p2065
sS'HUM TGT DESCRIPTION'
p2066
S'MSGR OSCAR ARNULFO ROMERO'
p2067
sS'PHYS TGT EFFECT OF INCIDENT'
p2068
S''
sS'HUM TGT FOREIGN NATION'
p2069
S''
sS'INCIDENT DATE'
p2070
S'26 OCT 88'
p2071
sS'MESSAGE TEMPLATE'
p2072
S'1'
sS'PHYS TGT TOTAL NUMBER'
p2073
S''
ssS'TST4-MUC4-0047'
p2074
(dp2075
S'PERP ORGANIZATION CONFIDENCE'
p2076
S''
sS'HUM TGT EFFECT OF INCIDENT'
p2077
S'DEATH CIVILIANS'
p2078
sS'INCIDENT LOCATION'
p2079
S'NICARAGUA'
p2080
sS'PHYS TGT ID'
p2081
S''
sS'PERP INCIDENT CATEGORY'
p2082
S'TERRORIST ACT'
p2083
sS'PERP ORGANIZATION ID'
p2084
S''
sS'HUM TGT TYPE'
p2085
S'CIVILIAN CIVILIANS'
p2086
sS'HUM TGT TOTAL NUMBER'
p2087
S''
sS'INCIDENT INSTRUMENT ID'
p2088
S''
sS'INCIDENT INSTRUMENT TYPE'
p2089
S''
sS'PHYS TGT FOREIGN NATION'
p2090
S''
sS'HUM TGT NUMBER'
p2091
S'5 CIVILIANS'
p2092
sS'PHYS TGT TYPE'
p2093
S''
sS'HUM TGT NAME'
p2094
S''
sS'INCIDENT TYPE'
p2095
S'ATTACK'
p2096
sS'PHYS TGT NUMBER'
p2097
S''
sS'PERP INDIVIDUAL ID'
p2098
S'CONTRAS REBELS'
p2099
sS'INCIDENT STAGE OF EXECUTION'
p2100
S'ACCOMPLISHED'
p2101
sS'HUM TGT DESCRIPTION'
p2102
S'CIVILIANS'
p2103
sS'PHYS TGT EFFECT OF INCIDENT'
p2104
S''
sS'HUM TGT FOREIGN NATION'
p2105
S''
sS'INCIDENT DATE'
p2106
S'27 OCT 88'
p2107
sS'MESSAGE TEMPLATE'
p2108
S'1 OPTIONAL'
p2109
sS'PHYS TGT TOTAL NUMBER'
p2110
S''
ssS'TST4-MUC4-0044'
p2111
(dp2112
S'PERP ORGANIZATION CONFIDENCE'
p2113
S'CLAIMED OR ADMITTED POSSIBLE MANUEL RODRIGUEZ PATRIOTIC FRONT FPMR'
p2114
sS'HUM TGT EFFECT OF INCIDENT'
p2115
S''
sS'INCIDENT LOCATION'
p2116
S'CHILE'
p2117
sS'PHYS TGT ID'
p2118
S''
sS'PERP INCIDENT CATEGORY'
p2119
S'TERRORIST ACT'
p2120
sS'PERP ORGANIZATION ID'
p2121
S'MANUEL RODRIGUEZ PATRIOTIC FRONT FPMR'
p2122
sS'HUM TGT TYPE'
p2123
S'GOVERNMENT OFFICIAL AUGUSTO PINOCHET'
p2124
sS'HUM TGT TOTAL NUMBER'
p2125
S''
sS'INCIDENT INSTRUMENT ID'
p2126
S''
sS'INCIDENT INSTRUMENT TYPE'
p2127
S''
sS'PHYS TGT FOREIGN NATION'
p2128
S''
sS'HUM TGT NUMBER'
p2129
S'1 AUGUSTO PINOCHET'
p2130
sS'PHYS TGT TYPE'
p2131
S''
sS'HUM TGT NAME'
p2132
S'AUGUSTO PINOCHET'
p2133
sS'INCIDENT TYPE'
p2134
S'ATTACK'
p2135
sS'PHYS TGT NUMBER'
p2136
S''
sS'PERP INDIVIDUAL ID'
p2137
S'VICTOR DIAZ CARO'
p2138
sS'INCIDENT STAGE OF EXECUTION'
p2139
S'ACCOMPLISHED'
p2140
sS'HUM TGT DESCRIPTION'
p2141
S'PRESIDENT AUGUSTO PINOCHET'
p2142
sS'PHYS TGT EFFECT OF INCIDENT'
p2143
S''
sS'HUM TGT FOREIGN NATION'
p2144
S''
sS'INCIDENT DATE'
p2145
S'16 OCT 88'
p2146
sS'MESSAGE TEMPLATE'
p2147
S'1'
sS'PHYS TGT TOTAL NUMBER'
p2148
S''
ssS'TST4-MUC4-0045'
p2149
(dp2150
S'EMPLOYEES OF THE CIVIL REGISTRY'
p2151
S'OFFICE'
p2152
sS'PERP ORGANIZATION CONFIDENCE'
p2153
S'REPORTED AS FACT EPL POPULAR LIBERATION ARMY'
p2154
sS'HUM TGT EFFECT OF INCIDENT'
p2155
S'DEATH POLICEMEN'
p2156
sS'INCIDENT LOCATION'
p2157
S'COLOMBIA ANTIOQUIA DEPARTMENT JUNTAS DE URAMITA TOWN'
p2158
sS'PHYS TGT ID'
p2159
S'BRIDGE'
p2160
sS'PERP INCIDENT CATEGORY'
p2161
S'TERRORIST ACT'
p2162
sS'PERP ORGANIZATION ID'
p2163
S'EPL POPULAR LIBERATION ARMY'
p2164
sS'HUM TGT TYPE'
p2165
S'LAW ENFORCEMENT POLICEMEN'
p2166
sS'HUM TGT TOTAL NUMBER'
p2167
S''
sS'INCIDENT INSTRUMENT ID'
p2168
S''
sS'INCIDENT INSTRUMENT TYPE'
p2169
S'EXPLOSIVE'
p2170
sS'PHYS TGT FOREIGN NATION'
p2171
S''
sS'HUM TGT NUMBER'
p2172
S'9 POLICEMEN'
p2173
sS'PHYS TGT TYPE'
p2174
S'TRANSPORTATION ROUTE BRIDGE'
p2175
sS'HUM TGT NAME'
p2176
S''
sS'INCIDENT TYPE'
p2177
S'BOMBING'
p2178
sS'PHYS TGT NUMBER'
p2179
S'1 BRIDGE'
p2180
sS'INCIDENT DATE'
p2181
S'25 OCT 88'
p2182
sS'PERP INDIVIDUAL ID'
p2183
S'EPL POPULAR LIBERATION ARMY GUERRILLAS GUERRILLAS'
p2184
sS'INCIDENT STAGE OF EXECUTION'
p2185
S'ACCOMPLISHED'
p2186
sS'HUM TGT DESCRIPTION'
p2187
S'POLICEMEN'
p2188
sS'PHYS TGT EFFECT OF INCIDENT'
p2189
S'DESTROYED BRIDGE'
p2190
sS'HUM TGT FOREIGN NATION'
p2191
S''
sS'CIVILIANS'
p2192
S''
sS'MESSAGE TEMPLATE'
p2193
S'1'
sS'PHYS TGT TOTAL NUMBER'
p2194
S''
ssS'TST4-MUC4-0042'
p2195
(dp2196
S'PERP ORGANIZATION CONFIDENCE'
p2197
S'REPORTED AS FACT FARC'
p2198
sS'HUM TGT EFFECT OF INCIDENT'
p2199
S''
sS'INCIDENT LOCATION'
p2200
S'COLOMBIA'
p2201
sS'PHYS TGT ID'
p2202
S''
sS'PERP INCIDENT CATEGORY'
p2203
S'TERRORIST ACT'
p2204
sS'PERP ORGANIZATION ID'
p2205
S'FARC'
p2206
sS'HUM TGT TYPE'
p2207
S'CIVILIAN WORKERS'
p2208
sS'HUM TGT TOTAL NUMBER'
p2209
S''
sS'INCIDENT INSTRUMENT ID'
p2210
S''
sS'INCIDENT INSTRUMENT TYPE'
p2211
S''
sS'PHYS TGT FOREIGN NATION'
p2212
S''
sS'HUM TGT NUMBER'
p2213
S'PLURAL WORKERS'
p2214
sS'PHYS TGT TYPE'
p2215
S''
sS'HUM TGT NAME'
p2216
S''
sS'INCIDENT TYPE'
p2217
S'FORCED WORK STOPPAGE'
p2218
sS'PHYS TGT NUMBER'
p2219
S''
sS'PERP INDIVIDUAL ID'
p2220
S''
sS'INCIDENT STAGE OF EXECUTION'
p2221
S'THREATENED'
p2222
sS'HUM TGT DESCRIPTION'
p2223
S'WORKERS'
p2224
sS'PHYS TGT EFFECT OF INCIDENT'
p2225
S''
sS'HUM TGT FOREIGN NATION'
p2226
S''
sS'INCIDENT DATE'
p2227
S'24 OCT 88'
p2228
sS'MESSAGE TEMPLATE'
p2229
S'4'
sS'PHYS TGT TOTAL NUMBER'
p2230
S''
ssS'TST4-MUC4-0043'
p2231
(dp2232
S'PERP ORGANIZATION CONFIDENCE'
p2233
S'REPORTED AS FACT SUSPECTED OR ACCUSED SUSPECTED OR ACCUSED BY AUTHORITIES FMLN'
p2234
sS'HUM TGT EFFECT OF INCIDENT'
p2235
S''
sS'INCIDENT LOCATION'
p2236
S'EL SALVADOR'
p2237
sS'PHYS TGT ID'
p2238
S'CHAIN OF WORDS INDISTINCT CHAIN'
p2239
sS'PERP INCIDENT CATEGORY'
p2240
S'TERRORIST ACT'
p2241
sS'PERP ORGANIZATION ID'
p2242
S'FMLN'
p2243
sS'HUM TGT TYPE'
p2244
S''
sS'HUM TGT TOTAL NUMBER'
p2245
S''
sS'INCIDENT INSTRUMENT ID'
p2246
S'CAR BOMBS'
p2247
sS'INCIDENT INSTRUMENT TYPE'
p2248
S'VEHICLE BOMB CAR BOMBS'
p2249
sS'PHYS TGT FOREIGN NATION'
p2250
S''
sS'HUM TGT NUMBER'
p2251
S''
sS'PHYS TGT TYPE'
p2252
S'COMMERCIAL OTHER CHAIN OF WORDS INDISTINCT CHAIN'
p2253
sS'HUM TGT NAME'
p2254
S''
sS'INCIDENT TYPE'
p2255
S'BOMBING'
p2256
sS'PHYS TGT NUMBER'
p2257
S'1 CHAIN OF WORDS INDISTINCT CHAIN'
p2258
sS'PERP INDIVIDUAL ID'
p2259
S''
sS'INCIDENT STAGE OF EXECUTION'
p2260
S'ACCOMPLISHED'
p2261
sS'SHOPPING MALL'
p2262
S''
sS'HUM TGT DESCRIPTION'
p2263
S''
sS'PHYS TGT EFFECT OF INCIDENT'
p2264
S''
sS'HUM TGT FOREIGN NATION'
p2265
S''
sS'INCIDENT DATE'
p2266
S'24 OCT 88'
p2267
sS'MESSAGE TEMPLATE'
p2268
S'1'
sS'PHYS TGT TOTAL NUMBER'
p2269
S''
ssS'TST4-MUC4-0040'
p2270
(dp2271
S'PERP ORGANIZATION CONFIDENCE'
p2272
S'REPORTED AS FACT MANUEL JOSE ARCE URBAN COMMAND'
p2273
sS'HUM TGT EFFECT OF INCIDENT'
p2274
S''
sS'INCIDENT LOCATION'
p2275
S'EL SALVADOR APOPA CITY EL SALVADOR APOPA NEIGHBORHOOD'
p2276
sS'PHYS TGT ID'
p2277
S'LANCER MOTEL'
p2278
sS'PERP INCIDENT CATEGORY'
p2279
S'TERRORIST ACT'
p2280
sS'PERP ORGANIZATION ID'
p2281
S'MANUEL JOSE ARCE URBAN COMMAND'
p2282
sS'HUM TGT TYPE'
p2283
S''
sS'HUM TGT TOTAL NUMBER'
p2284
S''
sS'INCIDENT INSTRUMENT ID'
p2285
S''
sS'INCIDENT INSTRUMENT TYPE'
p2286
S''
sS'PHYS TGT FOREIGN NATION'
p2287
S''
sS'HUM TGT NUMBER'
p2288
S''
sS'PHYS TGT TYPE'
p2289
S'COMMERCIAL LANCER MOTEL'
p2290
sS'HUM TGT NAME'
p2291
S''
sS'INCIDENT TYPE'
p2292
S'ATTACK'
p2293
sS'PHYS TGT NUMBER'
p2294
S'1 LANCER MOTEL'
p2295
sS'PERP INDIVIDUAL ID'
p2296
S''
sS'INCIDENT STAGE OF EXECUTION'
p2297
S'ACCOMPLISHED'
p2298
sS'HUM TGT DESCRIPTION'
p2299
S''
sS'PHYS TGT EFFECT OF INCIDENT'
p2300
S''
sS'HUM TGT FOREIGN NATION'
p2301
S''
sS'INCIDENT DATE'
p2302
S'19 OCT 88'
p2303
sS'MESSAGE TEMPLATE'
p2304
S'3 OPTIONAL'
p2305
sS'PHYS TGT TOTAL NUMBER'
p2306
S''
ssS'TST4-MUC4-0041'
p2307
(dp2308
S'PERP ORGANIZATION CONFIDENCE'
p2309
S''
sS'HUM TGT EFFECT OF INCIDENT'
p2310
S''
sS'INCIDENT LOCATION'
p2311
S''
sS'PHYS TGT ID'
p2312
S''
sS'PERP INCIDENT CATEGORY'
p2313
S''
sS'PERP ORGANIZATION ID'
p2314
S''
sS'HUM TGT TYPE'
p2315
S''
sS'HUM TGT TOTAL NUMBER'
p2316
S''
sS'INCIDENT INSTRUMENT ID'
p2317
S''
sS'INCIDENT INSTRUMENT TYPE'
p2318
S''
sS'PHYS TGT FOREIGN NATION'
p2319
S''
sS'HUM TGT NUMBER'
p2320
S''
sS'PHYS TGT TYPE'
p2321
S''
sS'HUM TGT NAME'
p2322
S''
sS'INCIDENT TYPE'
p2323
S''
sS'PHYS TGT NUMBER'
p2324
S''
sS'PERP INDIVIDUAL ID'
p2325
S''
sS'INCIDENT STAGE OF EXECUTION'
p2326
S''
sS'HUM TGT DESCRIPTION'
p2327
S''
sS'PHYS TGT EFFECT OF INCIDENT'
p2328
S''
sS'HUM TGT FOREIGN NATION'
p2329
S''
sS'INCIDENT DATE'
p2330
S''
sS'MESSAGE TEMPLATE'
p2331
S''
sS'PHYS TGT TOTAL NUMBER'
p2332
S''
ssS'TST4-MUC4-0059'
p2333
(dp2334
S'PERP ORGANIZATION CONFIDENCE'
p2335
S''
sS'HUM TGT EFFECT OF INCIDENT'
p2336
S''
sS'INCIDENT LOCATION'
p2337
S'COLOMBIA'
p2338
sS'PHYS TGT ID'
p2339
S'POWER TOWERS OF THE NATIONAL ENERGY NETWORK POWER TOWERS'
p2340
sS'PERP INCIDENT CATEGORY'
p2341
S'TERRORIST ACT'
p2342
sS'PERP ORGANIZATION ID'
p2343
S''
sS'HUM TGT TYPE'
p2344
S''
sS'HUM TGT TOTAL NUMBER'
p2345
S''
sS'INCIDENT INSTRUMENT ID'
p2346
S''
sS'INCIDENT INSTRUMENT TYPE'
p2347
S'EXPLOSIVE'
p2348
sS'PHYS TGT FOREIGN NATION'
p2349
S''
sS'HUM TGT NUMBER'
p2350
S''
sS'PHYS TGT TYPE'
p2351
S'ENERGY POWER TOWERS OF THE NATIONAL ENERGY NETWORK POWER TOWERS'
p2352
sS'HUM TGT NAME'
p2353
S''
sS'INCIDENT TYPE'
p2354
S'BOMBING'
p2355
sS'PHYS TGT NUMBER'
p2356
S'7 POWER TOWERS OF THE NATIONAL ENERGY NETWORK POWER TOWERS'
p2357
sS'PERP INDIVIDUAL ID'
p2358
S'TERRORISTS'
p2359
sS'INCIDENT STAGE OF EXECUTION'
p2360
S'ACCOMPLISHED'
p2361
sS'HUM TGT DESCRIPTION'
p2362
S''
sS'PHYS TGT EFFECT OF INCIDENT'
p2363
S'DESTROYED POWER TOWERS OF THE NATIONAL ENERGY NETWORK POWER TOWERS'
p2364
sS'HUM TGT FOREIGN NATION'
p2365
S''
sS'INCIDENT DATE'
p2366
S'31 OCT 88 27 OCT 88'
p2367
sS'MESSAGE TEMPLATE'
p2368
S'1'
sS'PHYS TGT TOTAL NUMBER'
p2369
S''
ssS'TST4-MUC4-0058'
p2370
(dp2371
S'PERP ORGANIZATION CONFIDENCE'
p2372
S'POSSIBLE SHINING PATH'
p2373
sS'HUM TGT EFFECT OF INCIDENT'
p2374
S'INJURY PEOPLE'
p2375
sS'INCIDENT LOCATION'
p2376
S'PERU AYACUCHO CITY'
p2377
sS'PHYS TGT ID'
p2378
S'DANCE HALL'
p2379
sS'PERP INCIDENT CATEGORY'
p2380
S'TERRORIST ACT'
p2381
sS'PERP ORGANIZATION ID'
p2382
S'SHINING PATH'
p2383
sS'HUM TGT TYPE'
p2384
S'CIVILIAN PEOPLE'
p2385
sS'HUM TGT TOTAL NUMBER'
p2386
S'26'
p2387
sS'INCIDENT INSTRUMENT ID'
p2388
S'HOMEMADE BOMB CALLED RUSSIAN CHEESE HOMEMADE BOMB BOMB'
p2389
sS'INCIDENT INSTRUMENT TYPE'
p2390
S'BOMB HOMEMADE BOMB CALLED RUSSIAN CHEESE HOMEMADE BOMB BOMB'
p2391
sS'PHYS TGT FOREIGN NATION'
p2392
S''
sS'HUM TGT NUMBER'
p2393
S'26 PEOPLE'
p2394
sS'PHYS TGT TYPE'
p2395
S'COMMERCIAL OTHER DANCE HALL'
p2396
sS'HUM TGT NAME'
p2397
S''
sS'INCIDENT TYPE'
p2398
S'BOMBING'
p2399
sS'PHYS TGT NUMBER'
p2400
S'1 DANCE HALL'
p2401
sS'POLICEMEN'
p2402
S''
sS'PERP INDIVIDUAL ID'
p2403
S'TERRORISTS'
p2404
sS'INCIDENT STAGE OF EXECUTION'
p2405
S'ACCOMPLISHED'
p2406
sS'HUM TGT DESCRIPTION'
p2407
S'PEOPLE'
p2408
sS'PHYS TGT EFFECT OF INCIDENT'
p2409
S''
sS'HUM TGT FOREIGN NATION'
p2410
S''
sS'INCIDENT DATE'
p2411
S'30 OCT 88'
p2412
sS'MESSAGE TEMPLATE'
p2413
S'1'
sS'PHYS TGT TOTAL NUMBER'
p2414
S''
ssS'TST4-MUC4-0055'
p2415
(dp2416
S'PERP ORGANIZATION CONFIDENCE'
p2417
S''
sS'HUM TGT EFFECT OF INCIDENT'
p2418
S''
sS'INCIDENT LOCATION'
p2419
S'PERU LIMA CITY PERU'
p2420
sS'PHYS TGT ID'
p2421
S'ANDRES AVELINO CACERES PARK'
p2422
sS'PERP INCIDENT CATEGORY'
p2423
S''
sS'PERP ORGANIZATION ID'
p2424
S''
sS'HUM TGT TYPE'
p2425
S'GOVERNMENT OFFICIAL ALAN GARCIA'
p2426
sS'HUM TGT TOTAL NUMBER'
p2427
S''
sS'INCIDENT INSTRUMENT ID'
p2428
S'POWERFUL BOMB BOMB'
p2429
sS'INCIDENT INSTRUMENT TYPE'
p2430
S'BOMB POWERFUL BOMB BOMB'
p2431
sS'PHYS TGT FOREIGN NATION'
p2432
S''
sS'HUM TGT NUMBER'
p2433
S'1 ALAN GARCIA'
p2434
sS'PHYS TGT TYPE'
p2435
S'OTHER ANDRES AVELINO CACERES PARK'
p2436
sS'HUM TGT NAME'
p2437
S'ALAN GARCIA'
p2438
sS'INCIDENT TYPE'
p2439
S'BOMBING'
p2440
sS'PHYS TGT NUMBER'
p2441
S'1 ANDRES AVELINO CACERES PARK'
p2442
sS'PERP INDIVIDUAL ID'
p2443
S''
sS'INCIDENT STAGE OF EXECUTION'
p2444
S'ATTEMPTED'
p2445
sS'HUM TGT DESCRIPTION'
p2446
S'PRESIDENT ALAN GARCIA'
p2447
sS'PHYS TGT EFFECT OF INCIDENT'
p2448
S''
sS'HUM TGT FOREIGN NATION'
p2449
S''
sS'INCIDENT DATE'
p2450
S'28 NOV 88 28 NOV 88'
p2451
sS'MESSAGE TEMPLATE'
p2452
S'1'
sS'PHYS TGT TOTAL NUMBER'
p2453
S''
ssS'TST4-MUC4-0054'
p2454
(dp2455
S'PERP ORGANIZATION CONFIDENCE'
p2456
S'REPORTED AS FACT SUSPECTED OR ACCUSED NATIONAL LIBERATION ARMY'
p2457
sS'HUM TGT EFFECT OF INCIDENT'
p2458
S''
sS'INCIDENT LOCATION'
p2459
S'COLOMBIA ANTIOQUIA DEPARTMENT CIUDAD BOLIVAR CITY'
p2460
sS'PHYS TGT ID'
p2461
S'FARMS'
p2462
sS'PERP INCIDENT CATEGORY'
p2463
S'TERRORIST ACT'
p2464
sS'PERP ORGANIZATION ID'
p2465
S'NATIONAL LIBERATION ARMY'
p2466
sS'HUM TGT TYPE'
p2467
S''
sS'HUM TGT TOTAL NUMBER'
p2468
S''
sS'INCIDENT INSTRUMENT ID'
p2469
S'BOMB'
p2470
sS'INCIDENT INSTRUMENT TYPE'
p2471
S'BOMB BOMB'
p2472
sS'PHYS TGT FOREIGN NATION'
p2473
S''
sS'HUM TGT NUMBER'
p2474
S''
sS'PHYS TGT TYPE'
p2475
S'CIVILIAN RESIDENCE OTHER FARMS'
p2476
sS'HUM TGT NAME'
p2477
S''
sS'INCIDENT TYPE'
p2478
S'ATTACK BOMBING'
p2479
sS'PHYS TGT NUMBER'
p2480
S'4 FARMS'
p2481
sS'PERP INDIVIDUAL ID'
p2482
S'INSURGENTS APPARENTLY BELONGING TO THE NATIONAL LIBERATION ARMY INSURGENTS'
p2483
sS'INCIDENT STAGE OF EXECUTION'
p2484
S'ACCOMPLISHED'
p2485
sS'HUM TGT DESCRIPTION'
p2486
S''
sS'PHYS TGT EFFECT OF INCIDENT'
p2487
S'DESTROYED FARMS'
p2488
sS'HUM TGT FOREIGN NATION'
p2489
S''
sS'INCIDENT DATE'
p2490
S'27 NOV 88'
p2491
sS'MESSAGE TEMPLATE'
p2492
S'2 OPTIONAL'
p2493
sS'PHYS TGT TOTAL NUMBER'
p2494
S''
ssS'TST4-MUC4-0057'
p2495
(dp2496
S'PERP ORGANIZATION CONFIDENCE'
p2497
S'SUSPECTED OR ACCUSED ARMY ARMED FORCES'
p2498
sS'HUM TGT EFFECT OF INCIDENT'
p2499
S'DEATH PEASANTS'
p2500
sS'INCIDENT LOCATION'
p2501
S'EL SALVADOR MORAZAN DEPARTMENT YAMABAL CANTON EL SALVADOR MORAZAN COUNTY YAMABAL CANTON'
p2502
sS'PHYS TGT ID'
p2503
S''
sS'PERP INCIDENT CATEGORY'
p2504
S'STATESPONSORED VIOLENCE'
p2505
sS'PERP ORGANIZATION ID'
p2506
S'ARMY ARMED FORCES'
p2507
sS'HUM TGT TYPE'
p2508
S'CIVILIAN PEASANTS'
p2509
sS'HUM TGT TOTAL NUMBER'
p2510
S''
sS'INCIDENT INSTRUMENT ID'
p2511
S''
sS'INCIDENT INSTRUMENT TYPE'
p2512
S''
sS'PHYS TGT FOREIGN NATION'
p2513
S''
sS'HUM TGT NUMBER'
p2514
S'3 PEASANTS'
p2515
sS'PHYS TGT TYPE'
p2516
S''
sS'HUM TGT NAME'
p2517
S''
sS'INCIDENT TYPE'
p2518
S'ATTACK'
p2519
sS'PHYS TGT NUMBER'
p2520
S''
sS'PERP INDIVIDUAL ID'
p2521
S'DEATH SQUAD'
p2522
sS'INCIDENT STAGE OF EXECUTION'
p2523
S'ACCOMPLISHED'
p2524
sS'HUM TGT DESCRIPTION'
p2525
S'PEASANTS'
p2526
sS'PHYS TGT EFFECT OF INCIDENT'
p2527
S''
sS'HUM TGT FOREIGN NATION'
p2528
S''
sS'INCIDENT DATE'
p2529
S'12 NOV 88'
p2530
sS'MESSAGE TEMPLATE'
p2531
S'2 OPTIONAL'
p2532
sS'PHYS TGT TOTAL NUMBER'
p2533
S''
ssS'TST4-MUC4-0056'
p2534
(dp2535
S'PERP ORGANIZATION CONFIDENCE'
p2536
S'REPORTED AS FACT VENEZUELAN ARMY ARMY'
p2537
sS'HUM TGT EFFECT OF INCIDENT'
p2538
S'DEATH FISHERMEN PEASANTS OF THE BORDER AREA PEASANTS'
p2539
sS'INCIDENT LOCATION'
p2540
S'VENEZUELA EL AMPARO CITY VENEZUELA EL AMPARO TOWN'
p2541
sS'PHYS TGT ID'
p2542
S''
sS'PERP INCIDENT CATEGORY'
p2543
S'STATESPONSORED VIOLENCE'
p2544
sS'PERP ORGANIZATION ID'
p2545
S'VENEZUELAN ARMY ARMY'
p2546
sS'HUM TGT TYPE'
p2547
S'CIVILIAN FISHERMEN PEASANTS OF THE BORDER AREA PEASANTS'
p2548
sS'HUM TGT TOTAL NUMBER'
p2549
S'14'
p2550
sS'INCIDENT INSTRUMENT ID'
p2551
S''
sS'INCIDENT INSTRUMENT TYPE'
p2552
S'GUN'
p2553
sS'PHYS TGT FOREIGN NATION'
p2554
S''
sS'HUM TGT NUMBER'
p2555
S'14 FISHERMEN PEASANTS OF THE BORDER AREA PEASANTS'
p2556
sS'PHYS TGT TYPE'
p2557
S''
sS'HUM TGT NAME'
p2558
S''
sS'INCIDENT TYPE'
p2559
S'ATTACK'
p2560
sS'PHYS TGT NUMBER'
p2561
S''
sS'PERP INDIVIDUAL ID'
p2562
S'VENEZUELAN MILITARY AUTHORITIES MILITARY AUTHORITIES'
p2563
sS'INCIDENT STAGE OF EXECUTION'
p2564
S'ACCOMPLISHED'
p2565
sS'HUM TGT DESCRIPTION'
p2566
S'FISHERMEN PEASANTS OF THE BORDER AREA PEASANTS'
p2567
sS'PHYS TGT EFFECT OF INCIDENT'
p2568
S''
sS'HUM TGT FOREIGN NATION'
p2569
S'COLOMBIA FISHERMEN PEASANTS OF THE BORDER AREA PEASANTS'
p2570
sS'FISHERMEN PEASANTS OF THE B'
p2571
S'ORDER AREA PEASANTS'
p2572
sS'INCIDENT DATE'
p2573
S'22 OCT 88'
p2574
sS'MESSAGE TEMPLATE'
p2575
S'1'
sS'PHYS TGT TOTAL NUMBER'
p2576
S''
ssS'TST4-MUC4-0051'
p2577
(dp2578
S'PERP ORGANIZATION CONFIDENCE'
p2579
S''
sS'HUM TGT EFFECT OF INCIDENT'
p2580
S'DEATH CARLOS SOTO SEDICE'
p2581
sS'INCIDENT LOCATION'
p2582
S'PERU PISCO CITY'
p2583
sS'PHYS TGT ID'
p2584
S''
sS'PERP INCIDENT CATEGORY'
p2585
S''
sS'PERP ORGANIZATION ID'
p2586
S''
sS'HUM TGT TYPE'
p2587
S'GOVERNMENT OFFICIAL CARLOS SOTO SEDICE'
p2588
sS'HUM TGT TOTAL NUMBER'
p2589
S''
sS'INCIDENT INSTRUMENT ID'
p2590
S''
sS'INCIDENT INSTRUMENT TYPE'
p2591
S'CUTTING DEVICE'
p2592
sS'PHYS TGT FOREIGN NATION'
p2593
S''
sS'HUM TGT NUMBER'
p2594
S'1 CARLOS SOTO SEDICE'
p2595
sS'PHYS TGT TYPE'
p2596
S''
sS'HUM TGT NAME'
p2597
S'CARLOS SOTO SEDICE'
p2598
sS'INCIDENT TYPE'
p2599
S'ATTACK'
p2600
sS'PHYS TGT NUMBER'
p2601
S''
sS'PERP INDIVIDUAL ID'
p2602
S'FOUR MASKED INDIVIDUALS MASKED INDIVIDUALS INDIVIDUALS CRIMINALS'
p2603
sS'INCIDENT STAGE OF EXECUTION'
p2604
S'ACCOMPLISHED'
p2605
sS'HUM TGT DESCRIPTION'
p2606
S'PISCO DEPUTY PREFECT DEPUTY PREFECT OUTSTANDING APRA LEADER APRA LEADER CARLOS SOTO SEDICE'
p2607
sS'PHYS TGT EFFECT OF INCIDENT'
p2608
S''
sS'HUM TGT FOREIGN NATION'
p2609
S''
sS'INCIDENT DATE'
p2610
S'23 NOV 88'
p2611
sS'MESSAGE TEMPLATE'
p2612
S'1'
sS'PHYS TGT TOTAL NUMBER'
p2613
S''
ssS'TST4-MUC4-0050'
p2614
(dp2615
S'PERP ORGANIZATION CONFIDENCE'
p2616
S''
sS'HUM TGT EFFECT OF INCIDENT'
p2617
S''
sS'INCIDENT LOCATION'
p2618
S''
sS'PHYS TGT ID'
p2619
S''
sS'PERP INCIDENT CATEGORY'
p2620
S''
sS'PERP ORGANIZATION ID'
p2621
S''
sS'HUM TGT TYPE'
p2622
S''
sS'HUM TGT TOTAL NUMBER'
p2623
S''
sS'INCIDENT INSTRUMENT ID'
p2624
S''
sS'INCIDENT INSTRUMENT TYPE'
p2625
S''
sS'PHYS TGT FOREIGN NATION'
p2626
S''
sS'HUM TGT NUMBER'
p2627
S''
sS'PHYS TGT TYPE'
p2628
S''
sS'HUM TGT NAME'
p2629
S''
sS'INCIDENT TYPE'
p2630
S''
sS'PHYS TGT NUMBER'
p2631
S''
sS'PERP INDIVIDUAL ID'
p2632
S''
sS'INCIDENT STAGE OF EXECUTION'
p2633
S''
sS'HUM TGT DESCRIPTION'
p2634
S''
sS'PHYS TGT EFFECT OF INCIDENT'
p2635
S''
sS'HUM TGT FOREIGN NATION'
p2636
S''
sS'INCIDENT DATE'
p2637
S''
sS'MESSAGE TEMPLATE'
p2638
S''
sS'PHYS TGT TOTAL NUMBER'
p2639
S''
ssS'TST4-MUC4-0053'
p2640
(dp2641
S'PERP ORGANIZATION CONFIDENCE'
p2642
S''
sS'HUM TGT EFFECT OF INCIDENT'
p2643
S''
sS'INCIDENT LOCATION'
p2644
S''
sS'PHYS TGT ID'
p2645
S''
sS'PERP INCIDENT CATEGORY'
p2646
S''
sS'PERP ORGANIZATION ID'
p2647
S''
sS'HUM TGT TYPE'
p2648
S''
sS'HUM TGT TOTAL NUMBER'
p2649
S''
sS'INCIDENT INSTRUMENT ID'
p2650
S''
sS'INCIDENT INSTRUMENT TYPE'
p2651
S''
sS'PHYS TGT FOREIGN NATION'
p2652
S''
sS'HUM TGT NUMBER'
p2653
S''
sS'PHYS TGT TYPE'
p2654
S''
sS'HUM TGT NAME'
p2655
S''
sS'INCIDENT TYPE'
p2656
S''
sS'PHYS TGT NUMBER'
p2657
S''
sS'PERP INDIVIDUAL ID'
p2658
S''
sS'INCIDENT STAGE OF EXECUTION'
p2659
S''
sS'HUM TGT DESCRIPTION'
p2660
S''
sS'PHYS TGT EFFECT OF INCIDENT'
p2661
S''
sS'HUM TGT FOREIGN NATION'
p2662
S''
sS'INCIDENT DATE'
p2663
S''
sS'MESSAGE TEMPLATE'
p2664
S''
sS'PHYS TGT TOTAL NUMBER'
p2665
S''
ssS'TST4-MUC4-0052'
p2666
(dp2667
S'PERP ORGANIZATION CONFIDENCE'
p2668
S''
sS'HUM TGT EFFECT OF INCIDENT'
p2669
S'DEATH RAUL PELLEGRIN'
p2670
sS'INCIDENT LOCATION'
p2671
S'CHILE'
p2672
sS'PHYS TGT ID'
p2673
S''
sS'PERP INCIDENT CATEGORY'
p2674
S''
sS'PERP ORGANIZATION ID'
p2675
S''
sS'HUM TGT TYPE'
p2676
S'POLITICAL FIGURE CIVILIAN RAUL PELLEGRIN'
p2677
sS'HUM TGT TOTAL NUMBER'
p2678
S''
sS'INCIDENT INSTRUMENT ID'
p2679
S''
sS'INCIDENT INSTRUMENT TYPE'
p2680
S''
sS'PHYS TGT FOREIGN NATION'
p2681
S''
sS'HUM TGT NUMBER'
p2682
S'1 RAUL PELLEGRIN'
p2683
sS'PHYS TGT TYPE'
p2684
S''
sS'HUM TGT NAME'
p2685
S'RAUL PELLEGRIN'
p2686
sS'INCIDENT TYPE'
p2687
S'ATTACK'
p2688
sS'PHYS TGT NUMBER'
p2689
S''
sS'PERP INDIVIDUAL ID'
p2690
S''
sS'INCIDENT STAGE OF EXECUTION'
p2691
S'ACCOMPLISHED'
p2692
sS'CECILIA MAGNI'
p2693
S''
sS'HUM TGT DESCRIPTION'
p2694
S'MEMBERS OF THE MANUEL RODRIGUEZ PATRIOTIC FRONT RAUL PELLEGRIN'
p2695
sS'PHYS TGT EFFECT OF INCIDENT'
p2696
S''
sS'HUM TGT FOREIGN NATION'
p2697
S''
sS'INCIDENT DATE'
p2698
S'12 NOV 88'
p2699
sS'MESSAGE TEMPLATE'
p2700
S'1'
sS'PHYS TGT TOTAL NUMBER'
p2701
S''
ssS'TST4-MUC4-0100'
p2702
(dp2703
S'PERP ORGANIZATION CONFIDENCE'
p2704
S''
sS'HUM TGT EFFECT OF INCIDENT'
p2705
S''
sS'INCIDENT LOCATION'
p2706
S''
sS'PHYS TGT ID'
p2707
S''
sS'PERP INCIDENT CATEGORY'
p2708
S''
sS'PERP ORGANIZATION ID'
p2709
S''
sS'HUM TGT TYPE'
p2710
S''
sS'HUM TGT TOTAL NUMBER'
p2711
S''
sS'INCIDENT INSTRUMENT ID'
p2712
S''
sS'INCIDENT INSTRUMENT TYPE'
p2713
S''
sS'PHYS TGT FOREIGN NATION'
p2714
S''
sS'HUM TGT NUMBER'
p2715
S''
sS'PHYS TGT TYPE'
p2716
S''
sS'HUM TGT NAME'
p2717
S''
sS'INCIDENT TYPE'
p2718
S''
sS'PHYS TGT NUMBER'
p2719
S''
sS'PERP INDIVIDUAL ID'
p2720
S''
sS'INCIDENT STAGE OF EXECUTION'
p2721
S''
sS'HUM TGT DESCRIPTION'
p2722
S''
sS'PHYS TGT EFFECT OF INCIDENT'
p2723
S''
sS'HUM TGT FOREIGN NATION'
p2724
S''
sS'INCIDENT DATE'
p2725
S''
sS'MESSAGE TEMPLATE'
p2726
S''
sS'PHYS TGT TOTAL NUMBER'
p2727
S''
ssS'TST4-MUC4-0068'
p2728
(dp2729
S'PERP ORGANIZATION CONFIDENCE'
p2730
S'REPORTED AS FACT NATIONAL LIBERATION ARMY ELN'
p2731
sS'HUM TGT EFFECT OF INCIDENT'
p2732
S''
sS'INCIDENT LOCATION'
p2733
S'COLOMBIA MEDELLIN CITY DORADAL TOWN DORADAL TOWN'
p2734
sS'PHYS TGT ID'
p2735
S''
sS'PERP INCIDENT CATEGORY'
p2736
S'TERRORIST ACT'
p2737
sS'PERP ORGANIZATION ID'
p2738
S'NATIONAL LIBERATION ARMY ELN'
p2739
sS'HUM TGT TYPE'
p2740
S'FORMER ACTIVE MILITARY CIVILIAN GOVERNMENT OFFICIAL GUILLERMO RODRIGUEZ VELASQUEZ'
p2741
sS'HUM TGT TOTAL NUMBER'
p2742
S'2'
sS'INCIDENT INSTRUMENT ID'
p2743
S''
sS'INCIDENT INSTRUMENT TYPE'
p2744
S''
sS'PHYS TGT FOREIGN NATION'
p2745
S''
sS'HUM TGT NUMBER'
p2746
S'1 GUILLERMO RODRIGUEZ VELASQUEZ'
p2747
sS'PHYS TGT TYPE'
p2748
S''
sS'HUM TGT NAME'
p2749
S'GUILLERMO RODRIGUEZ VELASQUEZ'
p2750
sS'INCIDENT TYPE'
p2751
S'KIDNAPPING'
p2752
sS'PHYS TGT NUMBER'
p2753
S''
sS'PERP INDIVIDUAL ID'
p2754
S'NATIONAL LIBERATION ARMY ELN GUERRILLAS GUERRILLAS ELN COMMANDO COMMANDO'
p2755
sS'INCIDENT STAGE OF EXECUTION'
p2756
S'ACCOMPLISHED'
p2757
sS'MIGUEL ANTONIO AVILA BARRETO'
p2758
S''
sS'HUM TGT DESCRIPTION'
p2759
S'ANTIOQUIA COLOMBIAN CIVIL DEFENSE DCC COMMANDER MAJOR GUILLERMO RODRIGUEZ VELASQUEZ'
p2760
sS'PHYS TGT EFFECT OF INCIDENT'
p2761
S''
sS'HUM TGT FOREIGN NATION'
p2762
S''
sS'INCIDENT DATE'
p2763
S'06 NOV 88'
p2764
sS'MESSAGE TEMPLATE'
p2765
S'1 OPTIONAL'
p2766
sS'PHYS TGT TOTAL NUMBER'
p2767
S''
ssS'TST4-MUC4-0069'
p2768
(dp2769
S'PERP ORGANIZATION CONFIDENCE'
p2770
S''
sS'HUM TGT EFFECT OF INCIDENT'
p2771
S''
sS'INCIDENT LOCATION'
p2772
S''
sS'PHYS TGT ID'
p2773
S''
sS'PERP INCIDENT CATEGORY'
p2774
S''
sS'PERP ORGANIZATION ID'
p2775
S''
sS'HUM TGT TYPE'
p2776
S''
sS'HUM TGT TOTAL NUMBER'
p2777
S''
sS'INCIDENT INSTRUMENT ID'
p2778
S''
sS'INCIDENT INSTRUMENT TYPE'
p2779
S''
sS'PHYS TGT FOREIGN NATION'
p2780
S''
sS'HUM TGT NUMBER'
p2781
S''
sS'PHYS TGT TYPE'
p2782
S''
sS'HUM TGT NAME'
p2783
S''
sS'INCIDENT TYPE'
p2784
S''
sS'PHYS TGT NUMBER'
p2785
S''
sS'PERP INDIVIDUAL ID'
p2786
S''
sS'INCIDENT STAGE OF EXECUTION'
p2787
S''
sS'HUM TGT DESCRIPTION'
p2788
S''
sS'PHYS TGT EFFECT OF INCIDENT'
p2789
S''
sS'HUM TGT FOREIGN NATION'
p2790
S''
sS'INCIDENT DATE'
p2791
S''
sS'MESSAGE TEMPLATE'
p2792
S''
sS'PHYS TGT TOTAL NUMBER'
p2793
S''
ssS'TST4-MUC4-0060'
p2794
(dp2795
S'PERP ORGANIZATION CONFIDENCE'
p2796
S''
sS'HUM TGT EFFECT OF INCIDENT'
p2797
S''
sS'INCIDENT LOCATION'
p2798
S''
sS'PHYS TGT ID'
p2799
S''
sS'PERP INCIDENT CATEGORY'
p2800
S''
sS'PERP ORGANIZATION ID'
p2801
S''
sS'HUM TGT TYPE'
p2802
S''
sS'HUM TGT TOTAL NUMBER'
p2803
S''
sS'INCIDENT INSTRUMENT ID'
p2804
S''
sS'INCIDENT INSTRUMENT TYPE'
p2805
S''
sS'PHYS TGT FOREIGN NATION'
p2806
S''
sS'HUM TGT NUMBER'
p2807
S''
sS'PHYS TGT TYPE'
p2808
S''
sS'HUM TGT NAME'
p2809
S''
sS'INCIDENT TYPE'
p2810
S''
sS'PHYS TGT NUMBER'
p2811
S''
sS'PERP INDIVIDUAL ID'
p2812
S''
sS'INCIDENT STAGE OF EXECUTION'
p2813
S''
sS'HUM TGT DESCRIPTION'
p2814
S''
sS'PHYS TGT EFFECT OF INCIDENT'
p2815
S''
sS'HUM TGT FOREIGN NATION'
p2816
S''
sS'INCIDENT DATE'
p2817
S''
sS'MESSAGE TEMPLATE'
p2818
S''
sS'PHYS TGT TOTAL NUMBER'
p2819
S''
ssS'TST4-MUC4-0061'
p2820
(dp2821
S'PERP ORGANIZATION CONFIDENCE'
p2822
S'REPORTED AS FACT FMLN'
p2823
sS'HUM TGT EFFECT OF INCIDENT'
p2824
S'DEATH PEOPLE'
p2825
sS'NEARBY HOUSE HOUSE'
p2826
S''
sS'INCIDENT LOCATION'
p2827
S'EL SALVADOR APOPA CITY EL SALVADOR APOPA NEIGHBORHOOD'
p2828
sS'PHYS TGT ID'
p2829
S'EL ANGEL SUGAR MILL ADMINISTRATIVE OFFICES OF THE SUGAR MILL'
p2830
sS'PERP INCIDENT CATEGORY'
p2831
S'TERRORIST ACT'
p2832
sS'PERP ORGANIZATION ID'
p2833
S'FMLN'
p2834
sS'HUM TGT TYPE'
p2835
S'CIVILIAN PEOPLE'
p2836
sS'HUM TGT TOTAL NUMBER'
p2837
S''
sS'INCIDENT INSTRUMENT ID'
p2838
S'RIFLES'
p2839
sS'INCIDENT INSTRUMENT TYPE'
p2840
S'RIFLE RIFLES'
p2841
sS'PHYS TGT FOREIGN NATION'
p2842
S''
sS'HUM TGT NUMBER'
p2843
S'2 PEOPLE'
p2844
sS'4 PEOPLE'
p2845
S''
sS'PHYS TGT TYPE'
p2846
S'COMMERCIAL EL ANGEL SUGAR MILL ADMINISTRATIVE OFFICES OF THE SUGAR MILL'
p2847
sS'HUM TGT NAME'
p2848
S''
sS'INCIDENT TYPE'
p2849
S'ATTACK'
p2850
sS'PHYS TGT NUMBER'
p2851
S'1 PLURAL EL ANGEL SUGAR MILL ADMINISTRATIVE OFFICES OF THE SUGAR MILL'
p2852
sS'PERP INDIVIDUAL ID'
p2853
S'ABOUT 50 GUERRILLAS 50 GUERRILLAS GUERRILLAS INSURGENTS'
p2854
sS'INCIDENT STAGE OF EXECUTION'
p2855
S'ACCOMPLISHED'
p2856
sS'HUM TGT DESCRIPTION'
p2857
S'PEOPLE'
p2858
sS'PHYS TGT EFFECT OF INCIDENT'
p2859
S'SOME DAMAGE EL ANGEL SUGAR MILL ADMINISTRATIVE OFFICES OF THE SUGAR MILL'
p2860
sS'HUM TGT FOREIGN NATION'
p2861
S''
sS'INCIDENT DATE'
p2862
S'02 NOV 88'
p2863
sS'MESSAGE TEMPLATE'
p2864
S'1'
sS'PHYS TGT TOTAL NUMBER'
p2865
S''
ssS'TST4-MUC4-0062'
p2866
(dp2867
S'PERP ORGANIZATION CONFIDENCE'
p2868
S''
sS'HUM TGT EFFECT OF INCIDENT'
p2869
S''
sS'INCIDENT LOCATION'
p2870
S''
sS'PHYS TGT ID'
p2871
S''
sS'PERP INCIDENT CATEGORY'
p2872
S''
sS'PERP ORGANIZATION ID'
p2873
S''
sS'HUM TGT TYPE'
p2874
S''
sS'HUM TGT TOTAL NUMBER'
p2875
S''
sS'INCIDENT INSTRUMENT ID'
p2876
S''
sS'INCIDENT INSTRUMENT TYPE'
p2877
S''
sS'PHYS TGT FOREIGN NATION'
p2878
S''
sS'HUM TGT NUMBER'
p2879
S''
sS'PHYS TGT TYPE'
p2880
S''
sS'HUM TGT NAME'
p2881
S''
sS'INCIDENT TYPE'
p2882
S''
sS'PHYS TGT NUMBER'
p2883
S''
sS'PERP INDIVIDUAL ID'
p2884
S''
sS'INCIDENT STAGE OF EXECUTION'
p2885
S''
sS'HUM TGT DESCRIPTION'
p2886
S''
sS'PHYS TGT EFFECT OF INCIDENT'
p2887
S''
sS'HUM TGT FOREIGN NATION'
p2888
S''
sS'INCIDENT DATE'
p2889
S''
sS'MESSAGE TEMPLATE'
p2890
S''
sS'PHYS TGT TOTAL NUMBER'
p2891
S''
ssS'TST4-MUC4-0063'
p2892
(dp2893
S'PERP ORGANIZATION CONFIDENCE'
p2894
S'REPORTED AS FACT FMLN'
p2895
sS'HUM TGT EFFECT OF INCIDENT'
p2896
S'NO INJURY OR DEATH NO DEATH'
p2897
sS'INCIDENT LOCATION'
p2898
S'EL SALVADOR DULCE NOMBRE DE MARIA CITY'
p2899
sS'PHYS TGT ID'
p2900
S'ANTEL NATIONAL ADMINISTRATION FOR TELECOMMUNICATIONS OFFICE'
p2901
sS'PERP INCIDENT CATEGORY'
p2902
S'TERRORIST ACT'
p2903
sS'PERP ORGANIZATION ID'
p2904
S'FMLN'
p2905
sS'HUM TGT TYPE'
p2906
S''
sS'HUM TGT TOTAL NUMBER'
p2907
S''
sS'INCIDENT INSTRUMENT ID'
p2908
S''
sS'INCIDENT INSTRUMENT TYPE'
p2909
S'DYNAMITE'
p2910
sS'PHYS TGT FOREIGN NATION'
p2911
S''
sS'HUM TGT NUMBER'
p2912
S''
sS'PHYS TGT TYPE'
p2913
S'COMMUNICATIONS ANTEL NATIONAL ADMINISTRATION FOR TELECOMMUNICATIONS OFFICE'
p2914
sS'HUM TGT NAME'
p2915
S''
sS'INCIDENT TYPE'
p2916
S'BOMBING'
p2917
sS'PHYS TGT NUMBER'
p2918
S'1 ANTEL NATIONAL ADMINISTRATION FOR TELECOMMUNICATIONS OFFICE'
p2919
sS'PERP INDIVIDUAL ID'
p2920
S'LARGE GROUP OF REBELS REBELS GROUP OF REBELS'
p2921
sS'INCIDENT STAGE OF EXECUTION'
p2922
S'ACCOMPLISHED'
p2923
sS'HUM TGT DESCRIPTION'
p2924
S''
sS'COMMUNITY CENTER'
p2925
S''
sS'PHYS TGT EFFECT OF INCIDENT'
p2926
S''
sS'HUM TGT FOREIGN NATION'
p2927
S''
sS'INCIDENT DATE'
p2928
S'01 NOV 88'
p2929
sS'MESSAGE TEMPLATE'
p2930
S'1'
sS'PHYS TGT TOTAL NUMBER'
p2931
S''
ssS'TST4-MUC4-0064'
p2932
(dp2933
S'PERP ORGANIZATION CONFIDENCE'
p2934
S''
sS'HUM TGT EFFECT OF INCIDENT'
p2935
S''
sS'INCIDENT LOCATION'
p2936
S''
sS'PHYS TGT ID'
p2937
S''
sS'PERP INCIDENT CATEGORY'
p2938
S''
sS'PERP ORGANIZATION ID'
p2939
S''
sS'HUM TGT TYPE'
p2940
S''
sS'HUM TGT TOTAL NUMBER'
p2941
S''
sS'INCIDENT INSTRUMENT ID'
p2942
S''
sS'INCIDENT INSTRUMENT TYPE'
p2943
S''
sS'PHYS TGT FOREIGN NATION'
p2944
S''
sS'HUM TGT NUMBER'
p2945
S''
sS'PHYS TGT TYPE'
p2946
S''
sS'HUM TGT NAME'
p2947
S''
sS'INCIDENT TYPE'
p2948
S''
sS'PHYS TGT NUMBER'
p2949
S''
sS'PERP INDIVIDUAL ID'
p2950
S''
sS'INCIDENT STAGE OF EXECUTION'
p2951
S''
sS'HUM TGT DESCRIPTION'
p2952
S''
sS'PHYS TGT EFFECT OF INCIDENT'
p2953
S''
sS'HUM TGT FOREIGN NATION'
p2954
S''
sS'INCIDENT DATE'
p2955
S''
sS'MESSAGE TEMPLATE'
p2956
S''
sS'PHYS TGT TOTAL NUMBER'
p2957
S''
ssS'TST4-MUC4-0065'
p2958
(dp2959
S'PERP ORGANIZATION CONFIDENCE'
p2960
S''
sS'HUM TGT EFFECT OF INCIDENT'
p2961
S''
sS'INCIDENT LOCATION'
p2962
S''
sS'PHYS TGT ID'
p2963
S''
sS'PERP INCIDENT CATEGORY'
p2964
S''
sS'PERP ORGANIZATION ID'
p2965
S''
sS'HUM TGT TYPE'
p2966
S''
sS'HUM TGT TOTAL NUMBER'
p2967
S''
sS'INCIDENT INSTRUMENT ID'
p2968
S''
sS'INCIDENT INSTRUMENT TYPE'
p2969
S''
sS'PHYS TGT FOREIGN NATION'
p2970
S''
sS'HUM TGT NUMBER'
p2971
S''
sS'PHYS TGT TYPE'
p2972
S''
sS'HUM TGT NAME'
p2973
S''
sS'INCIDENT TYPE'
p2974
S''
sS'PHYS TGT NUMBER'
p2975
S''
sS'PERP INDIVIDUAL ID'
p2976
S''
sS'INCIDENT STAGE OF EXECUTION'
p2977
S''
sS'HUM TGT DESCRIPTION'
p2978
S''
sS'PHYS TGT EFFECT OF INCIDENT'
p2979
S''
sS'HUM TGT FOREIGN NATION'
p2980
S''
sS'INCIDENT DATE'
p2981
S''
sS'MESSAGE TEMPLATE'
p2982
S''
sS'PHYS TGT TOTAL NUMBER'
p2983
S''
ssS'TST4-MUC4-0066'
p2984
(dp2985
S'PERP ORGANIZATION CONFIDENCE'
p2986
S''
sS'HUM TGT EFFECT OF INCIDENT'
p2987
S'INJURY LUZ LEON'
p2988
sS'INCIDENT LOCATION'
p2989
S'COLOMBIA VILLAVICENCIO CITY'
p2990
sS'PHYS TGT ID'
p2991
S''
sS'PERP INCIDENT CATEGORY'
p2992
S''
sS'PERP ORGANIZATION ID'
p2993
S''
sS'HUM TGT TYPE'
p2994
S'GOVERNMENT OFFICIAL LUZ LEON'
p2995
sS'HUM TGT TOTAL NUMBER'
p2996
S''
sS'INCIDENT INSTRUMENT ID'
p2997
S''
sS'INCIDENT INSTRUMENT TYPE'
p2998
S''
sS'PHYS TGT FOREIGN NATION'
p2999
S''
sS'HUM TGT NUMBER'
p3000
S'1 LUZ LEON'
p3001
sS'PHYS TGT TYPE'
p3002
S''
sS'HUM TGT NAME'
p3003
S'LUZ LEON'
p3004
sS'INCIDENT TYPE'
p3005
S'ATTACK'
p3006
sS'PHYS TGT NUMBER'
p3007
S''
sS'PARMENIDES CUENCA'
p3008
S''
sS'PERP INDIVIDUAL ID'
p3009
S''
sS'INCIDENT STAGE OF EXECUTION'
p3010
S'ACCOMPLISHED'
p3011
sS'HUM TGT DESCRIPTION'
p3012
S'PATRIOTIC UNION UP COUNCILWOMAN FOR META DEPARTMENT PATRIOTIC UNION UP COUNCILWOMAN COUNCILWOMAN LUZ LEON'
p3013
sS'PHYS TGT EFFECT OF INCIDENT'
p3014
S''
sS'HUM TGT FOREIGN NATION'
p3015
S''
sS'INCIDENT DATE'
p3016
S'05 NOV 88'
p3017
sS'MESSAGE TEMPLATE'
p3018
S'1'
sS'PHYS TGT TOTAL NUMBER'
p3019
S''
ssS'TST4-MUC4-0067'
p3020
(dp3021
S'PERP ORGANIZATION CONFIDENCE'
p3022
S''
sS'HUM TGT EFFECT OF INCIDENT'
p3023
S''
sS'INCIDENT LOCATION'
p3024
S''
sS'PHYS TGT ID'
p3025
S''
sS'PERP INCIDENT CATEGORY'
p3026
S''
sS'PERP ORGANIZATION ID'
p3027
S''
sS'HUM TGT TYPE'
p3028
S''
sS'HUM TGT TOTAL NUMBER'
p3029
S''
sS'INCIDENT INSTRUMENT ID'
p3030
S''
sS'INCIDENT INSTRUMENT TYPE'
p3031
S''
sS'PHYS TGT FOREIGN NATION'
p3032
S''
sS'HUM TGT NUMBER'
p3033
S''
sS'PHYS TGT TYPE'
p3034
S''
sS'HUM TGT NAME'
p3035
S''
sS'INCIDENT TYPE'
p3036
S''
sS'PHYS TGT NUMBER'
p3037
S''
sS'PERP INDIVIDUAL ID'
p3038
S''
sS'INCIDENT STAGE OF EXECUTION'
p3039
S''
sS'HUM TGT DESCRIPTION'
p3040
S''
sS'PHYS TGT EFFECT OF INCIDENT'
p3041
S''
sS'HUM TGT FOREIGN NATION'
p3042
S''
sS'INCIDENT DATE'
p3043
S''
sS'MESSAGE TEMPLATE'
p3044
S''
sS'PHYS TGT TOTAL NUMBER'
p3045
S''
ssS'TST4-MUC4-0077'
p3046
(dp3047
S'PERP ORGANIZATION CONFIDENCE'
p3048
S'SUSPECTED OR ACCUSED BY AUTHORITIES POSSIBLE SHINING PATH'
p3049
sS'HUM TGT EFFECT OF INCIDENT'
p3050
S'DEATH WIVES OF THE JERSEY CITY UNITED STATES WIVES'
p3051
sS'INCIDENT LOCATION'
p3052
S'PERU CUSCO DEPARTMENT MACHU PICHU TOWN PERU CUSCO CITY MACHU PICHU TOWN PERU CUSCO DEPARTMENT PERU CUSCO CITY'
p3053
sS'PHYS TGT ID'
p3054
S'BUS'
p3055
sS'PERP INCIDENT CATEGORY'
p3056
S'TERRORIST ACT'
p3057
sS'PERP ORGANIZATION ID'
p3058
S'SHINING PATH'
p3059
sS'HUM TGT TYPE'
p3060
S'CIVILIAN WIVES OF THE JERSEY CITY UNITED STATES WIVES'
p3061
sS'HUM TGT TOTAL NUMBER'
p3062
S''
sS'INCIDENT INSTRUMENT ID'
p3063
S''
sS'INCIDENT INSTRUMENT TYPE'
p3064
S''
sS'PHYS TGT FOREIGN NATION'
p3065
S''
sS'HUM TGT NUMBER'
p3066
S'1 WIVES OF THE JERSEY CITY UNITED STATES WIVES'
p3067
sS'PHYS TGT TYPE'
p3068
S'TRANSPORT VEHICLE BUS'
p3069
sS'HUM TGT NAME'
p3070
S''
sS'INCIDENT TYPE'
p3071
S'ATTACK'
p3072
sS'PHYS TGT NUMBER'
p3073
S'1 BUS'
p3074
sS'CUSCO MAYORS WIVES'
p3075
S''
sS'PERP INDIVIDUAL ID'
p3076
S'PRESUMED TERRORISTS TERRORISTS TERRORIST GROUPS'
p3077
sS'INCIDENT STAGE OF EXECUTION'
p3078
S'ACCOMPLISHED'
p3079
sS'HUM TGT DESCRIPTION'
p3080
S'WIVES OF THE JERSEY CITY UNITED STATES WIVES'
p3081
sS'PHYS TGT EFFECT OF INCIDENT'
p3082
S''
sS'HUM TGT FOREIGN NATION'
p3083
S'UNITED STATES WIVES OF THE JERSEY CITY UNITED STATES WIVES'
p3084
sS'INCIDENT DATE'
p3085
S'02 DEC 88'
p3086
sS'MESSAGE TEMPLATE'
p3087
S'3'
sS'PHYS TGT TOTAL NUMBER'
p3088
S''
ssS'TST4-MUC4-0076'
p3089
(dp3090
S'PERP ORGANIZATION CONFIDENCE'
p3091
S''
sS'HUM TGT EFFECT OF INCIDENT'
p3092
S''
sS'INCIDENT LOCATION'
p3093
S''
sS'PHYS TGT ID'
p3094
S''
sS'PERP INCIDENT CATEGORY'
p3095
S''
sS'PERP ORGANIZATION ID'
p3096
S''
sS'HUM TGT TYPE'
p3097
S''
sS'HUM TGT TOTAL NUMBER'
p3098
S''
sS'INCIDENT INSTRUMENT ID'
p3099
S''
sS'INCIDENT INSTRUMENT TYPE'
p3100
S''
sS'PHYS TGT FOREIGN NATION'
p3101
S''
sS'HUM TGT NUMBER'
p3102
S''
sS'PHYS TGT TYPE'
p3103
S''
sS'HUM TGT NAME'
p3104
S''
sS'INCIDENT TYPE'
p3105
S''
sS'PHYS TGT NUMBER'
p3106
S''
sS'PERP INDIVIDUAL ID'
p3107
S''
sS'INCIDENT STAGE OF EXECUTION'
p3108
S''
sS'HUM TGT DESCRIPTION'
p3109
S''
sS'PHYS TGT EFFECT OF INCIDENT'
p3110
S''
sS'HUM TGT FOREIGN NATION'
p3111
S''
sS'INCIDENT DATE'
p3112
S''
sS'MESSAGE TEMPLATE'
p3113
S''
sS'PHYS TGT TOTAL NUMBER'
p3114
S''
ssS'TST4-MUC4-0075'
p3115
(dp3116
S'PERP ORGANIZATION CONFIDENCE'
p3117
S''
sS'HUM TGT EFFECT OF INCIDENT'
p3118
S''
sS'INCIDENT LOCATION'
p3119
S''
sS'PHYS TGT ID'
p3120
S''
sS'PERP INCIDENT CATEGORY'
p3121
S''
sS'PERP ORGANIZATION ID'
p3122
S''
sS'HUM TGT TYPE'
p3123
S''
sS'HUM TGT TOTAL NUMBER'
p3124
S''
sS'INCIDENT INSTRUMENT ID'
p3125
S''
sS'INCIDENT INSTRUMENT TYPE'
p3126
S''
sS'PHYS TGT FOREIGN NATION'
p3127
S''
sS'HUM TGT NUMBER'
p3128
S''
sS'PHYS TGT TYPE'
p3129
S''
sS'HUM TGT NAME'
p3130
S''
sS'INCIDENT TYPE'
p3131
S''
sS'PHYS TGT NUMBER'
p3132
S''
sS'PERP INDIVIDUAL ID'
p3133
S''
sS'INCIDENT STAGE OF EXECUTION'
p3134
S''
sS'HUM TGT DESCRIPTION'
p3135
S''
sS'PHYS TGT EFFECT OF INCIDENT'
p3136
S''
sS'HUM TGT FOREIGN NATION'
p3137
S''
sS'INCIDENT DATE'
p3138
S''
sS'MESSAGE TEMPLATE'
p3139
S''
sS'PHYS TGT TOTAL NUMBER'
p3140
S''
ssS'TST4-MUC4-0074'
p3141
(dp3142
S'PERP ORGANIZATION CONFIDENCE'
p3143
S''
sS'HUM TGT EFFECT OF INCIDENT'
p3144
S''
sS'INCIDENT LOCATION'
p3145
S''
sS'PHYS TGT ID'
p3146
S''
sS'PERP INCIDENT CATEGORY'
p3147
S''
sS'PERP ORGANIZATION ID'
p3148
S''
sS'HUM TGT TYPE'
p3149
S''
sS'HUM TGT TOTAL NUMBER'
p3150
S''
sS'INCIDENT INSTRUMENT ID'
p3151
S''
sS'INCIDENT INSTRUMENT TYPE'
p3152
S''
sS'PHYS TGT FOREIGN NATION'
p3153
S''
sS'HUM TGT NUMBER'
p3154
S''
sS'PHYS TGT TYPE'
p3155
S''
sS'HUM TGT NAME'
p3156
S''
sS'INCIDENT TYPE'
p3157
S''
sS'PHYS TGT NUMBER'
p3158
S''
sS'PERP INDIVIDUAL ID'
p3159
S''
sS'INCIDENT STAGE OF EXECUTION'
p3160
S''
sS'HUM TGT DESCRIPTION'
p3161
S''
sS'PHYS TGT EFFECT OF INCIDENT'
p3162
S''
sS'HUM TGT FOREIGN NATION'
p3163
S''
sS'INCIDENT DATE'
p3164
S''
sS'MESSAGE TEMPLATE'
p3165
S''
sS'PHYS TGT TOTAL NUMBER'
p3166
S''
ssS'TST4-MUC4-0073'
p3167
(dp3168
S'PERP ORGANIZATION CONFIDENCE'
p3169
S''
sS'HUM TGT EFFECT OF INCIDENT'
p3170
S''
sS'INCIDENT LOCATION'
p3171
S''
sS'PHYS TGT ID'
p3172
S''
sS'PERP INCIDENT CATEGORY'
p3173
S''
sS'PERP ORGANIZATION ID'
p3174
S''
sS'HUM TGT TYPE'
p3175
S''
sS'HUM TGT TOTAL NUMBER'
p3176
S''
sS'INCIDENT INSTRUMENT ID'
p3177
S''
sS'INCIDENT INSTRUMENT TYPE'
p3178
S''
sS'PHYS TGT FOREIGN NATION'
p3179
S''
sS'HUM TGT NUMBER'
p3180
S''
sS'PHYS TGT TYPE'
p3181
S''
sS'HUM TGT NAME'
p3182
S''
sS'INCIDENT TYPE'
p3183
S''
sS'PHYS TGT NUMBER'
p3184
S''
sS'PERP INDIVIDUAL ID'
p3185
S''
sS'INCIDENT STAGE OF EXECUTION'
p3186
S''
sS'HUM TGT DESCRIPTION'
p3187
S''
sS'PHYS TGT EFFECT OF INCIDENT'
p3188
S''
sS'HUM TGT FOREIGN NATION'
p3189
S''
sS'INCIDENT DATE'
p3190
S''
sS'MESSAGE TEMPLATE'
p3191
S''
sS'PHYS TGT TOTAL NUMBER'
p3192
S''
ssS'TST4-MUC4-0072'
p3193
(dp3194
S'PERP ORGANIZATION CONFIDENCE'
p3195
S''
sS'HUM TGT EFFECT OF INCIDENT'
p3196
S''
sS'INCIDENT LOCATION'
p3197
S''
sS'PHYS TGT ID'
p3198
S''
sS'PERP INCIDENT CATEGORY'
p3199
S''
sS'PERP ORGANIZATION ID'
p3200
S''
sS'HUM TGT TYPE'
p3201
S''
sS'HUM TGT TOTAL NUMBER'
p3202
S''
sS'INCIDENT INSTRUMENT ID'
p3203
S''
sS'INCIDENT INSTRUMENT TYPE'
p3204
S''
sS'PHYS TGT FOREIGN NATION'
p3205
S''
sS'HUM TGT NUMBER'
p3206
S''
sS'PHYS TGT TYPE'
p3207
S''
sS'HUM TGT NAME'
p3208
S''
sS'INCIDENT TYPE'
p3209
S''
sS'PHYS TGT NUMBER'
p3210
S''
sS'PERP INDIVIDUAL ID'
p3211
S''
sS'INCIDENT STAGE OF EXECUTION'
p3212
S''
sS'HUM TGT DESCRIPTION'
p3213
S''
sS'PHYS TGT EFFECT OF INCIDENT'
p3214
S''
sS'HUM TGT FOREIGN NATION'
p3215
S''
sS'INCIDENT DATE'
p3216
S''
sS'MESSAGE TEMPLATE'
p3217
S''
sS'PHYS TGT TOTAL NUMBER'
p3218
S''
ssS'TST4-MUC4-0071'
p3219
(dp3220
S'PERP ORGANIZATION CONFIDENCE'
p3221
S'REPORTED AS FACT VENEZUELAN ARMED FORCES VENEZUELAN ARMY'
p3222
sS'HUM TGT EFFECT OF INCIDENT'
p3223
S'DEATH JOSE ANTONIO AREGUA'
p3224
sS'FISHERMEN VENEZUELAN CITIZ'
p3225
S'ENS'
p3226
sS'INCIDENT LOCATION'
p3227
S'COLOMBIA ARAUCA DEPARTMENT CANO COLORADA TOWN'
p3228
sS'PHYS TGT ID'
p3229
S''
sS'PERP INCIDENT CATEGORY'
p3230
S'STATESPONSORED VIOLENCE'
p3231
sS'PERP ORGANIZATION ID'
p3232
S'VENEZUELAN ARMED FORCES VENEZUELAN ARMY'
p3233
sS'JUSTO PASTOR CEBALLOS'
p3234
S''
sS'HUM TGT TYPE'
p3235
S'CIVILIAN JOSE ANTONIO AREGUA'
p3236
sS'HUM TGT TOTAL NUMBER'
p3237
S'14'
p3238
sS'INCIDENT INSTRUMENT ID'
p3239
S''
sS'INCIDENT INSTRUMENT TYPE'
p3240
S''
sS'PHYS TGT FOREIGN NATION'
p3241
S''
sS'HUM TGT NUMBER'
p3242
S'1 JOSE ANTONIO AREGUA'
p3243
sS'PHYS TGT TYPE'
p3244
S''
sS'HUM TGT NAME'
p3245
S'JOSE ANTONIO AREGUA'
p3246
sS'INCIDENT TYPE'
p3247
S'ATTACK'
p3248
sS'PHYS TGT NUMBER'
p3249
S''
sS'PERP INDIVIDUAL ID'
p3250
S'TWO SURVIVORS SUBVERSIVES'
p3251
sS'INCIDENT STAGE OF EXECUTION'
p3252
S'ACCOMPLISHED'
p3253
sS'HUM TGT DESCRIPTION'
p3254
S'FISHERMEN JOSE ANTONIO AREGUA'
p3255
sS'PHYS TGT EFFECT OF INCIDENT'
p3256
S''
sS'HUM TGT FOREIGN NATION'
p3257
S'VENEZUELA FISHERMEN VENEZUELAN CITIZENS'
p3258
sS'INCIDENT DATE'
p3259
S'29 OCT 88'
p3260
sS'MESSAGE TEMPLATE'
p3261
S'1'
sS'PHYS TGT TOTAL NUMBER'
p3262
S''
ssS'TST4-MUC4-0070'
p3263
(dp3264
S'PERP ORGANIZATION CONFIDENCE'
p3265
S''
sS'HUM TGT EFFECT OF INCIDENT'
p3266
S''
sS'INCIDENT LOCATION'
p3267
S''
sS'PHYS TGT ID'
p3268
S''
sS'PERP INCIDENT CATEGORY'
p3269
S''
sS'PERP ORGANIZATION ID'
p3270
S''
sS'HUM TGT TYPE'
p3271
S''
sS'HUM TGT TOTAL NUMBER'
p3272
S''
sS'INCIDENT INSTRUMENT ID'
p3273
S''
sS'INCIDENT INSTRUMENT TYPE'
p3274
S''
sS'PHYS TGT FOREIGN NATION'
p3275
S''
sS'HUM TGT NUMBER'
p3276
S''
sS'PHYS TGT TYPE'
p3277
S''
sS'HUM TGT NAME'
p3278
S''
sS'INCIDENT TYPE'
p3279
S''
sS'PHYS TGT NUMBER'
p3280
S''
sS'PERP INDIVIDUAL ID'
p3281
S''
sS'INCIDENT STAGE OF EXECUTION'
p3282
S''
sS'HUM TGT DESCRIPTION'
p3283
S''
sS'PHYS TGT EFFECT OF INCIDENT'
p3284
S''
sS'HUM TGT FOREIGN NATION'
p3285
S''
sS'INCIDENT DATE'
p3286
S''
sS'MESSAGE TEMPLATE'
p3287
S''
sS'PHYS TGT TOTAL NUMBER'
p3288
S''
ssS'TST4-MUC4-0079'
p3289
(dp3290
S'PERP ORGANIZATION CONFIDENCE'
p3291
S''
sS'HUM TGT EFFECT OF INCIDENT'
p3292
S''
sS'INCIDENT LOCATION'
p3293
S''
sS'PHYS TGT ID'
p3294
S''
sS'PERP INCIDENT CATEGORY'
p3295
S''
sS'PERP ORGANIZATION ID'
p3296
S''
sS'HUM TGT TYPE'
p3297
S''
sS'HUM TGT TOTAL NUMBER'
p3298
S''
sS'INCIDENT INSTRUMENT ID'
p3299
S''
sS'INCIDENT INSTRUMENT TYPE'
p3300
S''
sS'PHYS TGT FOREIGN NATION'
p3301
S''
sS'HUM TGT NUMBER'
p3302
S''
sS'PHYS TGT TYPE'
p3303
S''
sS'HUM TGT NAME'
p3304
S''
sS'INCIDENT TYPE'
p3305
S''
sS'PHYS TGT NUMBER'
p3306
S''
sS'PERP INDIVIDUAL ID'
p3307
S''
sS'INCIDENT STAGE OF EXECUTION'
p3308
S''
sS'HUM TGT DESCRIPTION'
p3309
S''
sS'PHYS TGT EFFECT OF INCIDENT'
p3310
S''
sS'HUM TGT FOREIGN NATION'
p3311
S''
sS'INCIDENT DATE'
p3312
S''
sS'MESSAGE TEMPLATE'
p3313
S''
sS'PHYS TGT TOTAL NUMBER'
p3314
S''
ssS'TST4-MUC4-0078'
p3315
(dp3316
S'PERP ORGANIZATION CONFIDENCE'
p3317
S'REPORTED AS FACT FMLN'
p3318
sS'HUM TGT EFFECT OF INCIDENT'
p3319
S'DEATH PEOPLE'
p3320
sS'INCIDENT LOCATION'
p3321
S'EL SALVADOR'
p3322
sS'PHYS TGT ID'
p3323
S'TRAINS BELONGING TO THE SALVADORAN NATIONAL RAILROAD FENADESAL TRAINS BELONGING TO THE SALVADORAN NATIONAL RAILROAD TRAINS'
p3324
sS'PERP INCIDENT CATEGORY'
p3325
S'TERRORIST ACT'
p3326
sS'PERP ORGANIZATION ID'
p3327
S'FMLN'
p3328
sS'HUM TGT TYPE'
p3329
S'CIVILIAN PEOPLE'
p3330
sS'HUM TGT TOTAL NUMBER'
p3331
S''
sS'INCIDENT INSTRUMENT ID'
p3332
S'MINE'
p3333
sS'INCIDENT INSTRUMENT TYPE'
p3334
S'MINE MINE'
p3335
sS'PHYS TGT FOREIGN NATION'
p3336
S''
sS'HUM TGT NUMBER'
p3337
S'6 PEOPLE'
p3338
sS'PHYS TGT TYPE'
p3339
S'TRANSPORT VEHICLE TRAINS BELONGING TO THE SALVADORAN NATIONAL RAILROAD FENADESAL TRAINS BELONGING TO THE SALVADORAN NATIONAL RAILROAD TRAINS'
p3340
sS'HUM TGT NAME'
p3341
S''
sS'INCIDENT TYPE'
p3342
S'BOMBING'
p3343
sS'PHYS TGT NUMBER'
p3344
S'4 TRAINS BELONGING TO THE SALVADORAN NATIONAL RAILROAD FENADESAL TRAINS BELONGING TO THE SALVADORAN NATIONAL RAILROAD TRAINS'
p3345
sS'PERP INDIVIDUAL ID'
p3346
S'GUERRILLAS FMLN GUERRILLAS FMLN REBELS REBELS'
p3347
sS'INCIDENT STAGE OF EXECUTION'
p3348
S'ACCOMPLISHED'
p3349
sS'HUM TGT DESCRIPTION'
p3350
S'PEOPLE'
p3351
sS'PEOPLE OTHERS'
p3352
S''
sS'PHYS TGT EFFECT OF INCIDENT'
p3353
S'DESTROYED TRAINS BELONGING TO THE SALVADORAN NATIONAL RAILROAD FENADESAL TRAINS BELONGING TO THE SALVADORAN NATIONAL RAILROAD TRAINS'
p3354
sS'HUM TGT FOREIGN NATION'
p3355
S''
sS'INCIDENT DATE'
p3356
S'01 NOV 88 30 NOV 88'
p3357
sS'MESSAGE TEMPLATE'
p3358
S'3 OPTIONAL'
p3359
sS'PHYS TGT TOTAL NUMBER'
p3360
S''
ss.