(dp1
S'TST4MUC40084'
p2
(dp3
S'PERP ORGANIZATION CONFIDENCE'
p4
S''
sS'HUM TGT EFFECT OF INCIDENT'
p5
S''
sS'INCIDENT LOCATION'
p6
S''
sS'PHYS TGT ID'
p7
S''
sS'PERP INCIDENT CATEGORY'
p8
S''
sS'PERP ORGANIZATION ID'
p9
S''
sS'HUM TGT TYPE'
p10
S''
sS'HUM TGT TOTAL NUMBER'
p11
S''
sS'INCIDENT INSTRUMENT ID'
p12
S''
sS'INCIDENT INSTRUMENT TYPE'
p13
S''
sS'PHYS TGT FOREIGN NATION'
p14
S''
sS'HUM TGT NUMBER'
p15
S''
sS'PHYS TGT TYPE'
p16
S''
sS'HUM TGT NAME'
p17
S''
sS'INCIDENT TYPE'
p18
S''
sS'PHYS TGT NUMBER'
p19
S''
sS'PERP INDIVIDUAL ID'
p20
S''
sS'INCIDENT STAGE OF EXECUTION'
p21
S''
sS'HUM TGT DESCRIPTION'
p22
S''
sS'PHYS TGT EFFECT OF INCIDENT'
p23
S''
sS'HUM TGT FOREIGN NATION'
p24
S''
sS'INCIDENT DATE'
p25
S''
sS'MESSAGE TEMPLATE'
p26
S''
sS'PHYS TGT TOTAL NUMBER'
p27
S''
ssS'TST4MUC40085'
p28
(dp29
S'PERP ORGANIZATION CONFIDENCE'
p30
S'SUSPECTED OR ACCUSED SHINING PATH'
p31
sS'HUM TGT EFFECT OF INCIDENT'
p32
S'DEATH THOMAS PELLISSIER'
p33
sS'INCIDENT LOCATION'
p34
S'PERU APURIMAC DEPARTMENT AQUIRA TOWN'
p35
sS'PHYS TGT ID'
p36
S''
sS'PERP INCIDENT CATEGORY'
p37
S'TERRORIST ACT'
p38
sS'PERP ORGANIZATION ID'
p39
S'SHINING PATH'
p40
sS'HUM TGT TYPE'
p41
S'CIVILIAN THOMAS PELLISSIER'
p42
sS'HUM TGT TOTAL NUMBER'
p43
S''
sS'INCIDENT INSTRUMENT ID'
p44
S''
sS'INCIDENT INSTRUMENT TYPE'
p45
S''
sS'PHYS TGT FOREIGN NATION'
p46
S''
sS'ENGINEERS PERUVIANS'
p47
S''
sS'HUM TGT NUMBER'
p48
S'1 THOMAS PELLISSIER'
p49
sS'INCIDENT STAGE OF EXECUTION'
p50
S'ACCOMPLISHED'
p51
sS'PHYS TGT TYPE'
p52
S''
sS'HUM TGT NAME'
p53
S'THOMAS PELLISSIER'
p54
sS'INCIDENT TYPE'
p55
S'ATTACK'
p56
sS'PHYS TGT NUMBER'
p57
S''
sS'PERP INDIVIDUAL ID'
p58
S'GROUP OF TERRORISTS TERRORISTS MEMBERS OF THE MAOIST SHINING PATH GUERRILLA MOVEMENT'
p59
sS'JUSTICE OF THE PEACE'
p60
S''
sS'CORINE SEGUIN'
p61
S''
sS'HUM TGT DESCRIPTION'
p62
S'ENGINEERS THOMAS PELLISSIER'
p63
sS'PHYS TGT EFFECT OF INCIDENT'
p64
S''
sS'HUM TGT FOREIGN NATION'
p65
S'FRANCE THOMAS PELLISSIER'
p66
sS'INCIDENT DATE'
p67
S'10 DEC 88 04 DEC 88'
p68
sS'MESSAGE TEMPLATE'
p69
S'2'
sS'PHYS TGT TOTAL NUMBER'
p70
S''
ssS'TST4MUC40086'
p71
(dp72
S'PERP ORGANIZATION CONFIDENCE'
p73
S'REPORTED AS FACT FMLN'
p74
sS'HUM TGT EFFECT OF INCIDENT'
p75
S'RESIGNATION HECTOR AREVALO'
p76
sS'INCIDENT LOCATION'
p77
S'EL SALVADOR SAN VICENTE DEPARTMENT SANTA CLARA TOWN'
p78
sS'PHYS TGT ID'
p79
S''
sS'PERP INCIDENT CATEGORY'
p80
S'TERRORIST ACT'
p81
sS'PERP ORGANIZATION ID'
p82
S'FMLN'
p83
sS'HUM TGT TYPE'
p84
S'GOVERNMENT OFFICIAL HECTOR AREVALO'
p85
sS'HUM TGT TOTAL NUMBER'
p86
S''
sS'INCIDENT INSTRUMENT ID'
p87
S''
sS'INCIDENT INSTRUMENT TYPE'
p88
S''
sS'PHYS TGT FOREIGN NATION'
p89
S''
sS'HUM TGT NUMBER'
p90
S'1 HECTOR AREVALO'
p91
sS'PHYS TGT TYPE'
p92
S''
sS'HUM TGT NAME'
p93
S'HECTOR AREVALO'
p94
sS'INCIDENT TYPE'
p95
S'ATTACK'
p96
sS'PHYS TGT NUMBER'
p97
S''
sS'PERP INDIVIDUAL ID'
p98
S'SALVADORAN GUERRILLAS GUERRILLAS'
p99
sS'INCIDENT STAGE OF EXECUTION'
p100
S'THREATENED'
p101
sS'HUM TGT DESCRIPTION'
p102
S'MAYOR HECTOR AREVALO'
p103
sS'PHYS TGT EFFECT OF INCIDENT'
p104
S''
sS'HUM TGT FOREIGN NATION'
p105
S''
sS'INCIDENT DATE'
p106
S'14 DEC 88'
p107
sS'MESSAGE TEMPLATE'
p108
S'1'
sS'PHYS TGT TOTAL NUMBER'
p109
S''
ssS'TST4MUC40087'
p110
(dp111
S'PERP ORGANIZATION CONFIDENCE'
p112
S''
sS'HUM TGT EFFECT OF INCIDENT'
p113
S'INJURY MANUEL SANTOS CRUZ ARBOLEDA'
p114
sS'INCIDENT LOCATION'
p115
S'COLOMBIA SIPI TOWN COLOMBIA'
p116
sS'PHYS TGT ID'
p117
S''
sS'PERP INCIDENT CATEGORY'
p118
S''
sS'PERP ORGANIZATION ID'
p119
S''
sS'HUM TGT TYPE'
p120
S'GOVERNMENT OFFICIAL MANUEL SANTOS CRUZ ARBOLEDA'
p121
sS'HUM TGT TOTAL NUMBER'
p122
S''
sS'INCIDENT INSTRUMENT ID'
p123
S''
sS'INCIDENT INSTRUMENT TYPE'
p124
S'GUN'
p125
sS'PHYS TGT FOREIGN NATION'
p126
S''
sS'HUM TGT NUMBER'
p127
S'1 MANUEL SANTOS CRUZ ARBOLEDA'
p128
sS'PHYS TGT TYPE'
p129
S''
sS'HUM TGT NAME'
p130
S'MANUEL SANTOS CRUZ ARBOLEDA'
p131
sS'INCIDENT TYPE'
p132
S'ATTACK'
p133
sS'PHYS TGT NUMBER'
p134
S''
sS'PERP INDIVIDUAL ID'
p135
S''
sS'INCIDENT STAGE OF EXECUTION'
p136
S'ACCOMPLISHED'
p137
sS'HUM TGT DESCRIPTION'
p138
S'SIPI MAYOR MAYOR MANUEL SANTOS CRUZ ARBOLEDA'
p139
sS'PHYS TGT EFFECT OF INCIDENT'
p140
S''
sS'HUM TGT FOREIGN NATION'
p141
S''
sS'INCIDENT DATE'
p142
S'10 DEC 88'
p143
sS'MESSAGE TEMPLATE'
p144
S'2'
sS'PHYS TGT TOTAL NUMBER'
p145
S''
ssS'TST4MUC40080'
p146
(dp147
S'PERP ORGANIZATION CONFIDENCE'
p148
S''
sS'HUM TGT EFFECT OF INCIDENT'
p149
S'DEATH GUSTAVO DE JESUS ESCOBAR FERNANDEZ'
p150
sS'INCIDENT LOCATION'
p151
S'COLOMBIA BOGOTA CITY COLOMBIA'
p152
sS'PHYS TGT ID'
p153
S''
sS'PERP INCIDENT CATEGORY'
p154
S''
sS'PERP ORGANIZATION ID'
p155
S''
sS'HUM TGT TYPE'
p156
S'LEGAL OR JUDICIAL CIVILIAN GUSTAVO DE JESUS ESCOBAR FERNANDEZ'
p157
sS'HUM TGT TOTAL NUMBER'
p158
S''
sS'INCIDENT INSTRUMENT ID'
p159
S'765 CALIBER PISTOL PISTOL'
p160
sS'INCIDENT INSTRUMENT TYPE'
p161
S'HANDGUN 765 CALIBER PISTOL PISTOL'
p162
sS'PHYS TGT FOREIGN NATION'
p163
S''
sS'HUM TGT NUMBER'
p164
S'1 GUSTAVO DE JESUS ESCOBAR FERNANDEZ'
p165
sS'PHYS TGT TYPE'
p166
S''
sS'HUM TGT NAME'
p167
S'GUSTAVO DE JESUS ESCOBAR FERNANDEZ'
p168
sS'INCIDENT TYPE'
p169
S'ATTACK'
p170
sS'PHYS TGT NUMBER'
p171
S''
sS'MARIA FLOREZ GUTIERREZ'
p172
S''
sS'PERP INDIVIDUAL ID'
p173
S'MAN'
p174
sS'INCIDENT STAGE OF EXECUTION'
p175
S'ACCOMPLISHED'
p176
sS'HUM TGT DESCRIPTION'
p177
S'CATTLEMAN LEGAL ADVISOR IN CONGRESS LEGAL ADVISOR COUSIN OF PABLO ESCOBAR GAVIRIA GUSTAVO DE JESUS ESCOBAR FERNANDEZ'
p178
sS'PHYS TGT EFFECT OF INCIDENT'
p179
S''
sS'HUM TGT FOREIGN NATION'
p180
S''
sS'INCIDENT DATE'
p181
S'15 NOV 88'
p182
sS'MESSAGE TEMPLATE'
p183
S'1'
sS'PHYS TGT TOTAL NUMBER'
p184
S''
ssS'TST4MUC40081'
p185
(dp186
S'PERP ORGANIZATION CONFIDENCE'
p187
S'REPORTED AS FACT POSSIBLE FMLN'
p188
sS'HUM TGT EFFECT OF INCIDENT'
p189
S'NO INJURY OR DEATH NO DEATH'
p190
sS'INCIDENT LOCATION'
p191
S'EL SALVADOR SOYAPANGO JURISDICTION'
p192
sS'PHYS TGT ID'
p193
S'TRAIN'
p194
sS'PERP INCIDENT CATEGORY'
p195
S'TERRORIST ACT'
p196
sS'PERP ORGANIZATION ID'
p197
S'FMLN'
p198
sS'HUM TGT TYPE'
p199
S''
sS'HUM TGT TOTAL NUMBER'
p200
S''
sS'INCIDENT INSTRUMENT ID'
p201
S'CLAYMORE MINE MINE'
p202
sS'INCIDENT INSTRUMENT TYPE'
p203
S'MINE CLAYMORE MINE MINE'
p204
sS'PHYS TGT FOREIGN NATION'
p205
S''
sS'HUM TGT NUMBER'
p206
S''
sS'PHYS TGT TYPE'
p207
S'TRANSPORT VEHICLE TRAIN'
p208
sS'HUM TGT NAME'
p209
S''
sS'INCIDENT TYPE'
p210
S'BOMBING'
p211
sS'PHYS TGT NUMBER'
p212
S'1 TRAIN'
p213
sS'PERP INDIVIDUAL ID'
p214
S'INSURGENTS GUERRILLAS'
p215
sS'INCIDENT STAGE OF EXECUTION'
p216
S'ACCOMPLISHED'
p217
sS'HUM TGT DESCRIPTION'
p218
S''
sS'PHYS TGT EFFECT OF INCIDENT'
p219
S'SOME DAMAGE TRAIN'
p220
sS'HUM TGT FOREIGN NATION'
p221
S''
sS'INCIDENT DATE'
p222
S'09 DEC 88'
p223
sS'MESSAGE TEMPLATE'
p224
S'1'
sS'PHYS TGT TOTAL NUMBER'
p225
S''
ssS'TST4MUC40082'
p226
(dp227
S'PERP ORGANIZATION CONFIDENCE'
p228
S''
sS'HUM TGT EFFECT OF INCIDENT'
p229
S''
sS'INCIDENT LOCATION'
p230
S''
sS'PHYS TGT ID'
p231
S''
sS'PERP INCIDENT CATEGORY'
p232
S''
sS'PERP ORGANIZATION ID'
p233
S''
sS'HUM TGT TYPE'
p234
S''
sS'HUM TGT TOTAL NUMBER'
p235
S''
sS'INCIDENT INSTRUMENT ID'
p236
S''
sS'INCIDENT INSTRUMENT TYPE'
p237
S''
sS'PHYS TGT FOREIGN NATION'
p238
S''
sS'HUM TGT NUMBER'
p239
S''
sS'PHYS TGT TYPE'
p240
S''
sS'HUM TGT NAME'
p241
S''
sS'INCIDENT TYPE'
p242
S''
sS'PHYS TGT NUMBER'
p243
S''
sS'PERP INDIVIDUAL ID'
p244
S''
sS'INCIDENT STAGE OF EXECUTION'
p245
S''
sS'HUM TGT DESCRIPTION'
p246
S''
sS'PHYS TGT EFFECT OF INCIDENT'
p247
S''
sS'HUM TGT FOREIGN NATION'
p248
S''
sS'INCIDENT DATE'
p249
S''
sS'MESSAGE TEMPLATE'
p250
S''
sS'PHYS TGT TOTAL NUMBER'
p251
S''
ssS'TST4MUC40083'
p252
(dp253
S'PERP ORGANIZATION CONFIDENCE'
p254
S''
sS'HUM TGT EFFECT OF INCIDENT'
p255
S'INJURY MAURICIO VERA BARRIOS'
p256
sS'INCIDENT LOCATION'
p257
S'CHILE ATACAMA OFFICIAL REGION COPIAPO CITY CHILE COPIAPO CITY'
p258
sS'PHYS TGT ID'
p259
S''
sS'PERP INCIDENT CATEGORY'
p260
S''
sS'PERP ORGANIZATION ID'
p261
S''
sS'HUM TGT TYPE'
p262
S'CIVILIAN MAURICIO VERA BARRIOS'
p263
sS'HUM TGT TOTAL NUMBER'
p264
S''
sS'INCIDENT INSTRUMENT ID'
p265
S'BOMB'
p266
sS'INCIDENT INSTRUMENT TYPE'
p267
S'BOMB BOMB'
p268
sS'PHYS TGT FOREIGN NATION'
p269
S''
sS'HUM TGT NUMBER'
p270
S'1 MAURICIO VERA BARRIOS'
p271
sS'PHYS TGT TYPE'
p272
S''
sS'HUM TGT NAME'
p273
S'MAURICIO VERA BARRIOS'
p274
sS'INCIDENT TYPE'
p275
S'BOMBING'
p276
sS'PHYS TGT NUMBER'
p277
S''
sS'PERP INDIVIDUAL ID'
p278
S''
sS'INCIDENT STAGE OF EXECUTION'
p279
S'ACCOMPLISHED'
p280
sS'HUM TGT DESCRIPTION'
p281
S'3DYEAR STUDENT IN THE CATHOLIC LYCEUM OF ATACAMA STUDENT IN THE CATHOLIC LYCEUM OF ATACAMA 3DYEAR STUDENT STUDENT MINOR MAURICIO VERA BARRIOS'
p282
sS'PHYS TGT EFFECT OF INCIDENT'
p283
S''
sS'HUM TGT FOREIGN NATION'
p284
S''
sS'INCIDENT DATE'
p285
S'09 DEC 88'
p286
sS'MESSAGE TEMPLATE'
p287
S'1'
sS'PHYS TGT TOTAL NUMBER'
p288
S''
ssS'TST4MUC40088'
p289
(dp290
S'PERP ORGANIZATION CONFIDENCE'
p291
S'CLAIMED OR ADMITTED MOR WORKERS REVOLUTIONARY MOVEMENT'
p292
sS'HUM TGT EFFECT OF INCIDENT'
p293
S'DEATH JUAN CARLOS VEGA LLONA'
p294
sS'INCIDENT LOCATION'
p295
S'BOLIVIA LA PAZ CITY'
p296
sS'PHYS TGT ID'
p297
S''
sS'PERP INCIDENT CATEGORY'
p298
S'TERRORIST ACT'
p299
sS'PERP ORGANIZATION ID'
p300
S'MOR WORKERS REVOLUTIONARY MOVEMENT'
p301
sS'HUM TGT TYPE'
p302
S'DIPLOMAT GOVERNMENT OFFICIAL JUAN CARLOS VEGA LLONA'
p303
sS'HUM TGT TOTAL NUMBER'
p304
S''
sS'INCIDENT INSTRUMENT ID'
p305
S''
sS'INCIDENT INSTRUMENT TYPE'
p306
S''
sS'PHYS TGT FOREIGN NATION'
p307
S''
sS'HUM TGT NUMBER'
p308
S'1 JUAN CARLOS VEGA LLONA'
p309
sS'PHYS TGT TYPE'
p310
S''
sS'HUM TGT NAME'
p311
S'JUAN CARLOS VEGA LLONA'
p312
sS'INCIDENT TYPE'
p313
S'ATTACK'
p314
sS'PHYS TGT NUMBER'
p315
S''
sS'PERP INDIVIDUAL ID'
p316
S''
sS'INCIDENT STAGE OF EXECUTION'
p317
S'ACCOMPLISHED'
p318
sS'HUM TGT DESCRIPTION'
p319
S'NAVAL ATTACHE JUAN CARLOS VEGA LLONA'
p320
sS'PHYS TGT EFFECT OF INCIDENT'
p321
S''
sS'HUM TGT FOREIGN NATION'
p322
S'PERU JUAN CARLOS VEGA LLONA'
p323
sS'INCIDENT DATE'
p324
S'10 DEC 88'
p325
sS'MESSAGE TEMPLATE'
p326
S'5 OPTIONAL'
p327
sS'PHYS TGT TOTAL NUMBER'
p328
S''
ssS'TST4MUC40089'
p329
(dp330
S'PERP ORGANIZATION CONFIDENCE'
p331
S''
sS'HUM TGT EFFECT OF INCIDENT'
p332
S''
sS'INCIDENT LOCATION'
p333
S''
sS'PHYS TGT ID'
p334
S''
sS'PERP INCIDENT CATEGORY'
p335
S''
sS'PERP ORGANIZATION ID'
p336
S''
sS'HUM TGT TYPE'
p337
S''
sS'HUM TGT TOTAL NUMBER'
p338
S''
sS'INCIDENT INSTRUMENT ID'
p339
S''
sS'INCIDENT INSTRUMENT TYPE'
p340
S''
sS'PHYS TGT FOREIGN NATION'
p341
S''
sS'HUM TGT NUMBER'
p342
S''
sS'PHYS TGT TYPE'
p343
S''
sS'HUM TGT NAME'
p344
S''
sS'INCIDENT TYPE'
p345
S''
sS'PHYS TGT NUMBER'
p346
S''
sS'PERP INDIVIDUAL ID'
p347
S''
sS'INCIDENT STAGE OF EXECUTION'
p348
S''
sS'HUM TGT DESCRIPTION'
p349
S''
sS'PHYS TGT EFFECT OF INCIDENT'
p350
S''
sS'HUM TGT FOREIGN NATION'
p351
S''
sS'INCIDENT DATE'
p352
S''
sS'MESSAGE TEMPLATE'
p353
S''
sS'PHYS TGT TOTAL NUMBER'
p354
S''
ssS'TST4MUC40008'
p355
(dp356
S'PERP ORGANIZATION CONFIDENCE'
p357
S''
sS'HUM TGT EFFECT OF INCIDENT'
p358
S''
sS'INCIDENT LOCATION'
p359
S''
sS'PHYS TGT ID'
p360
S''
sS'PERP INCIDENT CATEGORY'
p361
S''
sS'PERP ORGANIZATION ID'
p362
S''
sS'HUM TGT TYPE'
p363
S''
sS'HUM TGT TOTAL NUMBER'
p364
S''
sS'INCIDENT INSTRUMENT ID'
p365
S''
sS'INCIDENT INSTRUMENT TYPE'
p366
S''
sS'PHYS TGT FOREIGN NATION'
p367
S''
sS'HUM TGT NUMBER'
p368
S''
sS'PHYS TGT TYPE'
p369
S''
sS'HUM TGT NAME'
p370
S''
sS'INCIDENT TYPE'
p371
S''
sS'PHYS TGT NUMBER'
p372
S''
sS'PERP INDIVIDUAL ID'
p373
S''
sS'INCIDENT STAGE OF EXECUTION'
p374
S''
sS'HUM TGT DESCRIPTION'
p375
S''
sS'PHYS TGT EFFECT OF INCIDENT'
p376
S''
sS'HUM TGT FOREIGN NATION'
p377
S''
sS'INCIDENT DATE'
p378
S''
sS'MESSAGE TEMPLATE'
p379
S''
sS'PHYS TGT TOTAL NUMBER'
p380
S''
ssS'TST4MUC40009'
p381
(dp382
S'PERP ORGANIZATION CONFIDENCE'
p383
S''
sS'HUM TGT EFFECT OF INCIDENT'
p384
S''
sS'INCIDENT LOCATION'
p385
S''
sS'PHYS TGT ID'
p386
S''
sS'PERP INCIDENT CATEGORY'
p387
S''
sS'PERP ORGANIZATION ID'
p388
S''
sS'HUM TGT TYPE'
p389
S''
sS'HUM TGT TOTAL NUMBER'
p390
S''
sS'INCIDENT INSTRUMENT ID'
p391
S''
sS'INCIDENT INSTRUMENT TYPE'
p392
S''
sS'PHYS TGT FOREIGN NATION'
p393
S''
sS'HUM TGT NUMBER'
p394
S''
sS'PHYS TGT TYPE'
p395
S''
sS'HUM TGT NAME'
p396
S''
sS'INCIDENT TYPE'
p397
S''
sS'PHYS TGT NUMBER'
p398
S''
sS'PERP INDIVIDUAL ID'
p399
S''
sS'INCIDENT STAGE OF EXECUTION'
p400
S''
sS'HUM TGT DESCRIPTION'
p401
S''
sS'PHYS TGT EFFECT OF INCIDENT'
p402
S''
sS'HUM TGT FOREIGN NATION'
p403
S''
sS'INCIDENT DATE'
p404
S''
sS'MESSAGE TEMPLATE'
p405
S''
sS'PHYS TGT TOTAL NUMBER'
p406
S''
ssS'TST4MUC40004'
p407
(dp408
S'PERP ORGANIZATION CONFIDENCE'
p409
S''
sS'HUM TGT EFFECT OF INCIDENT'
p410
S''
sS'INCIDENT LOCATION'
p411
S''
sS'PHYS TGT ID'
p412
S''
sS'PERP INCIDENT CATEGORY'
p413
S''
sS'PERP ORGANIZATION ID'
p414
S''
sS'HUM TGT TYPE'
p415
S''
sS'HUM TGT TOTAL NUMBER'
p416
S''
sS'INCIDENT INSTRUMENT ID'
p417
S''
sS'INCIDENT INSTRUMENT TYPE'
p418
S''
sS'PHYS TGT FOREIGN NATION'
p419
S''
sS'HUM TGT NUMBER'
p420
S''
sS'PHYS TGT TYPE'
p421
S''
sS'HUM TGT NAME'
p422
S''
sS'INCIDENT TYPE'
p423
S''
sS'PHYS TGT NUMBER'
p424
S''
sS'PERP INDIVIDUAL ID'
p425
S''
sS'INCIDENT STAGE OF EXECUTION'
p426
S''
sS'HUM TGT DESCRIPTION'
p427
S''
sS'PHYS TGT EFFECT OF INCIDENT'
p428
S''
sS'HUM TGT FOREIGN NATION'
p429
S''
sS'INCIDENT DATE'
p430
S''
sS'MESSAGE TEMPLATE'
p431
S''
sS'PHYS TGT TOTAL NUMBER'
p432
S''
ssS'TST4MUC40005'
p433
(dp434
S'PERP ORGANIZATION CONFIDENCE'
p435
S''
sS'HUM TGT EFFECT OF INCIDENT'
p436
S'DEATH COLONEL ADOLFO ARNOLDO MAJANOS BODYGUARDS BODYGUARDS'
p437
sS'INCIDENT LOCATION'
p438
S'EL SALVADOR SAN SALVADOR CITY EL SALVADOR'
p439
sS'PHYS TGT ID'
p440
S''
sS'PERP INCIDENT CATEGORY'
p441
S''
sS'PERP ORGANIZATION ID'
p442
S''
sS'HUM TGT TYPE'
p443
S'SECURITY GUARD COLONEL ADOLFO ARNOLDO MAJANOS BODYGUARDS BODYGUARDS'
p444
sS'HUM TGT TOTAL NUMBER'
p445
S''
sS'INCIDENT INSTRUMENT ID'
p446
S''
sS'INCIDENT INSTRUMENT TYPE'
p447
S''
sS'PHYS TGT FOREIGN NATION'
p448
S''
sS'HUM TGT NUMBER'
p449
S'PLURAL COLONEL ADOLFO ARNOLDO MAJANOS BODYGUARDS BODYGUARDS'
p450
sS'PHYS TGT TYPE'
p451
S''
sS'HUM TGT NAME'
p452
S''
sS'INCIDENT TYPE'
p453
S'ATTACK'
p454
sS'PHYS TGT NUMBER'
p455
S''
sS'PERP INDIVIDUAL ID'
p456
S''
sS'INCIDENT STAGE OF EXECUTION'
p457
S'ACCOMPLISHED'
p458
sS'HUM TGT DESCRIPTION'
p459
S'COLONEL ADOLFO ARNOLDO MAJANOS BODYGUARDS BODYGUARDS'
p460
sS'PHYS TGT EFFECT OF INCIDENT'
p461
S''
sS'HUM TGT FOREIGN NATION'
p462
S''
sS'INCIDENT DATE'
p463
S'25 AUG 88'
p464
sS'MESSAGE TEMPLATE'
p465
S'1 OPTIONAL'
p466
sS'PHYS TGT TOTAL NUMBER'
p467
S''
ssS'TST4MUC40006'
p468
(dp469
S'PERP ORGANIZATION CONFIDENCE'
p470
S'REPORTED AS FACT FMLN'
p471
sS'HUM TGT EFFECT OF INCIDENT'
p472
S''
sS'INCIDENT LOCATION'
p473
S'EL SALVADOR QUETZALTEPEQUE TOWN'
p474
sS'PHYS TGT ID'
p475
S'ELECTRIC TOWER'
p476
sS'PERP INCIDENT CATEGORY'
p477
S'TERRORIST ACT'
p478
sS'PERP ORGANIZATION ID'
p479
S'FMLN'
p480
sS'HUM TGT TYPE'
p481
S''
sS'HUM TGT TOTAL NUMBER'
p482
S''
sS'INCIDENT INSTRUMENT ID'
p483
S''
sS'INCIDENT INSTRUMENT TYPE'
p484
S''
sS'PHYS TGT FOREIGN NATION'
p485
S''
sS'HUM TGT NUMBER'
p486
S''
sS'PHYS TGT TYPE'
p487
S'ENERGY ELECTRIC TOWER'
p488
sS'HUM TGT NAME'
p489
S''
sS'INCIDENT TYPE'
p490
S'ATTACK'
p491
sS'PHYS TGT NUMBER'
p492
S'1 ELECTRIC TOWER'
p493
sS'PERP INDIVIDUAL ID'
p494
S'REBELS INSURGENTS'
p495
sS'INCIDENT STAGE OF EXECUTION'
p496
S'ACCOMPLISHED'
p497
sS'HUM TGT DESCRIPTION'
p498
S''
sS'PHYS TGT EFFECT OF INCIDENT'
p499
S'SOME DAMAGE DESTROYED ELECTRIC TOWER'
p500
sS'HUM TGT FOREIGN NATION'
p501
S''
sS'INCIDENT DATE'
p502
S'24 AUG 88 24 AUG 88 25 AUG 88'
p503
sS'MESSAGE TEMPLATE'
p504
S'2'
sS'PHYS TGT TOTAL NUMBER'
p505
S''
ssS'TST4MUC40007'
p506
(dp507
S'PERP ORGANIZATION CONFIDENCE'
p508
S''
sS'HUM TGT EFFECT OF INCIDENT'
p509
S''
sS'INCIDENT LOCATION'
p510
S'GUATEMALA GUATEMALA CITY CITY'
p511
sS'PHYS TGT ID'
p512
S'AERONICAS REGIONAL OFFICES'
p513
sS'PERP INCIDENT CATEGORY'
p514
S'TERRORIST ACT'
p515
sS'PERP ORGANIZATION ID'
p516
S''
sS'HUM TGT TYPE'
p517
S''
sS'HUM TGT TOTAL NUMBER'
p518
S''
sS'INCIDENT INSTRUMENT ID'
p519
S'FRAGMENTATION GRENADES GRENADES'
p520
sS'INCIDENT INSTRUMENT TYPE'
p521
S'GRENADE FRAGMENTATION GRENADES GRENADES'
p522
sS'PHYS TGT FOREIGN NATION'
p523
S'NICARAGUA AERONICAS REGIONAL OFFICES'
p524
sS'HUM TGT NUMBER'
p525
S''
sS'PHYS TGT TYPE'
p526
S'TRANSPORTATION FACILITY COMMERCIAL AERONICAS REGIONAL OFFICES'
p527
sS'HUM TGT NAME'
p528
S''
sS'INCIDENT TYPE'
p529
S'ATTACK'
p530
sS'PHYS TGT NUMBER'
p531
S'PLURAL AERONICAS REGIONAL OFFICES'
p532
sS'PERP INDIVIDUAL ID'
p533
S'GUATEMALAN RIGHTIST SECTORS RIGHTIST SECTORS'
p534
sS'INCIDENT STAGE OF EXECUTION'
p535
S'ACCOMPLISHED'
p536
sS'HUM TGT DESCRIPTION'
p537
S''
sS'PHYS TGT EFFECT OF INCIDENT'
p538
S''
sS'HUM TGT FOREIGN NATION'
p539
S''
sS'INCIDENT DATE'
p540
S'26 AUG 88'
p541
sS'MESSAGE TEMPLATE'
p542
S'1'
sS'PHYS TGT TOTAL NUMBER'
p543
S''
ssS'TST4MUC40001'
p544
(dp545
S'PERP ORGANIZATION CONFIDENCE'
p546
S''
sS'HUM TGT EFFECT OF INCIDENT'
p547
S'NO INJURY OR DEATH NO INJURY'
p548
sS'INCIDENT LOCATION'
p549
S'CHILE TALCAHUANO DISTRICT'
p550
sS'PHYS TGT ID'
p551
S'MORMON CHURCH CHAPEL OF THE CHURCH OF JESUS CHRIST OF LATTERDAY SAINTS LOCATED AT NO 3856 GOMEZ CARRENO STREET CHAPEL OF THE CHURCH OF JESUS CHRIST OF LATTERDAY SAINTS CHAPEL CHURCH CHURCH OF JESUS CHRIST OF LATTERDAY SAINTS'
p552
sS'PERP INCIDENT CATEGORY'
p553
S''
sS'PERP ORGANIZATION ID'
p554
S''
sS'HUM TGT TYPE'
p555
S''
sS'HUM TGT TOTAL NUMBER'
p556
S''
sS'INCIDENT INSTRUMENT ID'
p557
S'BOMB'
p558
sS'INCIDENT INSTRUMENT TYPE'
p559
S'BOMB BOMB'
p560
sS'PHYS TGT FOREIGN NATION'
p561
S''
sS'HUM TGT NUMBER'
p562
S''
sS'PHYS TGT TYPE'
p563
S'OTHER MORMON CHURCH CHAPEL OF THE CHURCH OF JESUS CHRIST OF LATTERDAY SAINTS LOCATED AT NO 3856 GOMEZ CARRENO STREET CHAPEL OF THE CHURCH OF JESUS CHRIST OF LATTERDAY SAINTS CHAPEL CHURCH CHURCH OF JESUS CHRIST OF LATTERDAY SAINTS'
p564
sS'HUM TGT NAME'
p565
S''
sS'INCIDENT TYPE'
p566
S'BOMBING'
p567
sS'PHYS TGT NUMBER'
p568
S'1 MORMON CHURCH CHAPEL OF THE CHURCH OF JESUS CHRIST OF LATTERDAY SAINTS LOCATED AT NO 3856 GOMEZ CARRENO STREET CHAPEL OF THE CHURCH OF JESUS CHRIST OF LATTERDAY SAINTS CHAPEL CHURCH CHURCH OF JESUS CHRIST OF LATTERDAY SAINTS'
p569
sS'PERP INDIVIDUAL ID'
p570
S'UNIDENTIFIED INDIVIDUALS'
p571
sS'INCIDENT STAGE OF EXECUTION'
p572
S'ACCOMPLISHED'
p573
sS'HUM TGT DESCRIPTION'
p574
S''
sS'PHYS TGT EFFECT OF INCIDENT'
p575
S'SOME DAMAGE MORMON CHURCH CHAPEL OF THE CHURCH OF JESUS CHRIST OF LATTERDAY SAINTS LOCATED AT NO 3856 GOMEZ CARRENO STREET CHAPEL OF THE CHURCH OF JESUS CHRIST OF LATTERDAY SAINTS CHAPEL CHURCH CHURCH OF JESUS CHRIST OF LATTERDAY SAINTS'
p576
sS'HUM TGT FOREIGN NATION'
p577
S''
sS'INCIDENT DATE'
p578
S'23 AUG 88'
p579
sS'MESSAGE TEMPLATE'
p580
S'1'
sS'PHYS TGT TOTAL NUMBER'
p581
S''
ssS'TST4MUC40002'
p582
(dp583
S'PERP ORGANIZATION CONFIDENCE'
p584
S''
sS'HUM TGT EFFECT OF INCIDENT'
p585
S''
sS'INCIDENT LOCATION'
p586
S''
sS'PHYS TGT ID'
p587
S''
sS'PERP INCIDENT CATEGORY'
p588
S''
sS'PERP ORGANIZATION ID'
p589
S''
sS'HUM TGT TYPE'
p590
S''
sS'HUM TGT TOTAL NUMBER'
p591
S''
sS'INCIDENT INSTRUMENT ID'
p592
S''
sS'INCIDENT INSTRUMENT TYPE'
p593
S''
sS'PHYS TGT FOREIGN NATION'
p594
S''
sS'HUM TGT NUMBER'
p595
S''
sS'PHYS TGT TYPE'
p596
S''
sS'HUM TGT NAME'
p597
S''
sS'INCIDENT TYPE'
p598
S''
sS'PHYS TGT NUMBER'
p599
S''
sS'PERP INDIVIDUAL ID'
p600
S''
sS'INCIDENT STAGE OF EXECUTION'
p601
S''
sS'HUM TGT DESCRIPTION'
p602
S''
sS'PHYS TGT EFFECT OF INCIDENT'
p603
S''
sS'HUM TGT FOREIGN NATION'
p604
S''
sS'INCIDENT DATE'
p605
S''
sS'MESSAGE TEMPLATE'
p606
S''
sS'PHYS TGT TOTAL NUMBER'
p607
S''
ssS'TST4MUC40003'
p608
(dp609
S'PERP ORGANIZATION CONFIDENCE'
p610
S''
sS'HUM TGT EFFECT OF INCIDENT'
p611
S''
sS'INCIDENT LOCATION'
p612
S''
sS'PHYS TGT ID'
p613
S''
sS'PERP INCIDENT CATEGORY'
p614
S''
sS'PERP ORGANIZATION ID'
p615
S''
sS'HUM TGT TYPE'
p616
S''
sS'HUM TGT TOTAL NUMBER'
p617
S''
sS'INCIDENT INSTRUMENT ID'
p618
S''
sS'INCIDENT INSTRUMENT TYPE'
p619
S''
sS'PHYS TGT FOREIGN NATION'
p620
S''
sS'HUM TGT NUMBER'
p621
S''
sS'PHYS TGT TYPE'
p622
S''
sS'HUM TGT NAME'
p623
S''
sS'INCIDENT TYPE'
p624
S''
sS'PHYS TGT NUMBER'
p625
S''
sS'PERP INDIVIDUAL ID'
p626
S''
sS'INCIDENT STAGE OF EXECUTION'
p627
S''
sS'HUM TGT DESCRIPTION'
p628
S''
sS'PHYS TGT EFFECT OF INCIDENT'
p629
S''
sS'HUM TGT FOREIGN NATION'
p630
S''
sS'INCIDENT DATE'
p631
S''
sS'MESSAGE TEMPLATE'
p632
S''
sS'PHYS TGT TOTAL NUMBER'
p633
S''
ssS'TST4MUC40097'
p634
(dp635
S'PERP ORGANIZATION CONFIDENCE'
p636
S''
sS'HUM TGT EFFECT OF INCIDENT'
p637
S''
sS'INCIDENT LOCATION'
p638
S'COLOMBIA ANTIOQUIA DEPARTMENT SANTA FE REGION PASEO REAL TOWN'
p639
sS'PHYS TGT ID'
p640
S'CHECKPOINT'
p641
sS'PERP INCIDENT CATEGORY'
p642
S''
sS'PERP ORGANIZATION ID'
p643
S''
sS'HUM TGT TYPE'
p644
S''
sS'HUM TGT TOTAL NUMBER'
p645
S''
sS'INCIDENT INSTRUMENT ID'
p646
S'THREE BOMBS BOMBS'
p647
sS'INCIDENT INSTRUMENT TYPE'
p648
S'BOMB THREE BOMBS BOMBS'
p649
sS'PHYS TGT FOREIGN NATION'
p650
S''
sS'HUM TGT NUMBER'
p651
S''
sS'PHYS TGT TYPE'
p652
S'OTHER CHECKPOINT'
p653
sS'HUM TGT NAME'
p654
S''
sS'INCIDENT TYPE'
p655
S'BOMBING'
p656
sS'PHYS TGT NUMBER'
p657
S'1 CHECKPOINT'
p658
sS'PERP INDIVIDUAL ID'
p659
S''
sS'INCIDENT STAGE OF EXECUTION'
p660
S'ACCOMPLISHED'
p661
sS'HUM TGT DESCRIPTION'
p662
S''
sS'PHYS TGT EFFECT OF INCIDENT'
p663
S'DESTROYED CHECKPOINT'
p664
sS'HUM TGT FOREIGN NATION'
p665
S''
sS'INCIDENT DATE'
p666
S'25 DEC 88'
p667
sS'MESSAGE TEMPLATE'
p668
S'1 OPTIONAL'
p669
sS'PHYS TGT TOTAL NUMBER'
p670
S''
ssS'TST4MUC40096'
p671
(dp672
S'PERP ORGANIZATION CONFIDENCE'
p673
S''
sS'HUM TGT EFFECT OF INCIDENT'
p674
S''
sS'INCIDENT LOCATION'
p675
S''
sS'PHYS TGT ID'
p676
S''
sS'PERP INCIDENT CATEGORY'
p677
S''
sS'PERP ORGANIZATION ID'
p678
S''
sS'HUM TGT TYPE'
p679
S''
sS'HUM TGT TOTAL NUMBER'
p680
S''
sS'INCIDENT INSTRUMENT ID'
p681
S''
sS'INCIDENT INSTRUMENT TYPE'
p682
S''
sS'PHYS TGT FOREIGN NATION'
p683
S''
sS'HUM TGT NUMBER'
p684
S''
sS'PHYS TGT TYPE'
p685
S''
sS'HUM TGT NAME'
p686
S''
sS'INCIDENT TYPE'
p687
S''
sS'PHYS TGT NUMBER'
p688
S''
sS'PERP INDIVIDUAL ID'
p689
S''
sS'INCIDENT STAGE OF EXECUTION'
p690
S''
sS'HUM TGT DESCRIPTION'
p691
S''
sS'PHYS TGT EFFECT OF INCIDENT'
p692
S''
sS'HUM TGT FOREIGN NATION'
p693
S''
sS'INCIDENT DATE'
p694
S''
sS'MESSAGE TEMPLATE'
p695
S''
sS'PHYS TGT TOTAL NUMBER'
p696
S''
ssS'TST4MUC40095'
p697
(dp698
S'PERP ORGANIZATION CONFIDENCE'
p699
S''
sS'HUM TGT EFFECT OF INCIDENT'
p700
S''
sS'INCIDENT LOCATION'
p701
S'EL SALVADOR SANTA ANA CITY'
p702
sS'PHYS TGT ID'
p703
S'CEL LEMPA RIVER HYDROELECTRIC EXECUTIVE COMMISSION SAN LUIS SUBSTATION'
p704
sS'PERP INCIDENT CATEGORY'
p705
S'TERRORIST ACT'
p706
sS'PERP ORGANIZATION ID'
p707
S''
sS'HUM TGT TYPE'
p708
S''
sS'HUM TGT TOTAL NUMBER'
p709
S''
sS'INCIDENT INSTRUMENT ID'
p710
S'EXPLOSIVES'
p711
sS'INCIDENT INSTRUMENT TYPE'
p712
S'EXPLOSIVE EXPLOSIVES'
p713
sS'PHYS TGT FOREIGN NATION'
p714
S''
sS'HUM TGT NUMBER'
p715
S''
sS'PHYS TGT TYPE'
p716
S'ENERGY CEL LEMPA RIVER HYDROELECTRIC EXECUTIVE COMMISSION SAN LUIS SUBSTATION'
p717
sS'HUM TGT NAME'
p718
S''
sS'INCIDENT TYPE'
p719
S'BOMBING'
p720
sS'PHYS TGT NUMBER'
p721
S'1 CEL LEMPA RIVER HYDROELECTRIC EXECUTIVE COMMISSION SAN LUIS SUBSTATION'
p722
sS'PERP INDIVIDUAL ID'
p723
S'REBELS ANOTHER GROUP'
p724
sS'INCIDENT STAGE OF EXECUTION'
p725
S'ACCOMPLISHED'
p726
sS'HUM TGT DESCRIPTION'
p727
S''
sS'PHYS TGT EFFECT OF INCIDENT'
p728
S'SOME DAMAGE CEL LEMPA RIVER HYDROELECTRIC EXECUTIVE COMMISSION SAN LUIS SUBSTATION'
p729
sS'HUM TGT FOREIGN NATION'
p730
S''
sS'INCIDENT DATE'
p731
S'20 DEC 88'
p732
sS'MESSAGE TEMPLATE'
p733
S'1'
sS'PHYS TGT TOTAL NUMBER'
p734
S''
ssS'TST4MUC40094'
p735
(dp736
S'PERP ORGANIZATION CONFIDENCE'
p737
S''
sS'HUM TGT EFFECT OF INCIDENT'
p738
S''
sS'INCIDENT LOCATION'
p739
S''
sS'PHYS TGT ID'
p740
S''
sS'PERP INCIDENT CATEGORY'
p741
S''
sS'PERP ORGANIZATION ID'
p742
S''
sS'HUM TGT TYPE'
p743
S''
sS'HUM TGT TOTAL NUMBER'
p744
S''
sS'INCIDENT INSTRUMENT ID'
p745
S''
sS'INCIDENT INSTRUMENT TYPE'
p746
S''
sS'PHYS TGT FOREIGN NATION'
p747
S''
sS'HUM TGT NUMBER'
p748
S''
sS'PHYS TGT TYPE'
p749
S''
sS'HUM TGT NAME'
p750
S''
sS'INCIDENT TYPE'
p751
S''
sS'PHYS TGT NUMBER'
p752
S''
sS'PERP INDIVIDUAL ID'
p753
S''
sS'INCIDENT STAGE OF EXECUTION'
p754
S''
sS'HUM TGT DESCRIPTION'
p755
S''
sS'PHYS TGT EFFECT OF INCIDENT'
p756
S''
sS'HUM TGT FOREIGN NATION'
p757
S''
sS'INCIDENT DATE'
p758
S''
sS'MESSAGE TEMPLATE'
p759
S''
sS'PHYS TGT TOTAL NUMBER'
p760
S''
ssS'TST4MUC40093'
p761
(dp762
S'PERP ORGANIZATION CONFIDENCE'
p763
S''
sS'HUM TGT EFFECT OF INCIDENT'
p764
S''
sS'INCIDENT LOCATION'
p765
S''
sS'PHYS TGT ID'
p766
S''
sS'PERP INCIDENT CATEGORY'
p767
S''
sS'PERP ORGANIZATION ID'
p768
S''
sS'HUM TGT TYPE'
p769
S''
sS'HUM TGT TOTAL NUMBER'
p770
S''
sS'INCIDENT INSTRUMENT ID'
p771
S''
sS'INCIDENT INSTRUMENT TYPE'
p772
S''
sS'PHYS TGT FOREIGN NATION'
p773
S''
sS'HUM TGT NUMBER'
p774
S''
sS'PHYS TGT TYPE'
p775
S''
sS'HUM TGT NAME'
p776
S''
sS'INCIDENT TYPE'
p777
S''
sS'PHYS TGT NUMBER'
p778
S''
sS'PERP INDIVIDUAL ID'
p779
S''
sS'INCIDENT STAGE OF EXECUTION'
p780
S''
sS'HUM TGT DESCRIPTION'
p781
S''
sS'PHYS TGT EFFECT OF INCIDENT'
p782
S''
sS'HUM TGT FOREIGN NATION'
p783
S''
sS'INCIDENT DATE'
p784
S''
sS'MESSAGE TEMPLATE'
p785
S''
sS'PHYS TGT TOTAL NUMBER'
p786
S''
ssS'TST4MUC40092'
p787
(dp788
S'PERP ORGANIZATION CONFIDENCE'
p789
S'REPORTED AS FACT FMLN'
p790
sS'HUM TGT EFFECT OF INCIDENT'
p791
S''
sS'INCIDENT LOCATION'
p792
S'EL SALVADOR LA LIBERTAD DEPARTMENT SAN JOSE VILLANUEVA TOWN'
p793
sS'PHYS TGT ID'
p794
S'ANTEL NATIONAL ADMINISTRATION FOR TELECOMMUNICATIONS OFFICE'
p795
sS'PERP INCIDENT CATEGORY'
p796
S'TERRORIST ACT'
p797
sS'PERP ORGANIZATION ID'
p798
S'FMLN'
p799
sS'HUM TGT TYPE'
p800
S''
sS'HUM TGT TOTAL NUMBER'
p801
S''
sS'INCIDENT INSTRUMENT ID'
p802
S''
sS'INCIDENT INSTRUMENT TYPE'
p803
S''
sS'PHYS TGT FOREIGN NATION'
p804
S''
sS'HUM TGT NUMBER'
p805
S''
sS'PHYS TGT TYPE'
p806
S'COMMUNICATIONS ANTEL NATIONAL ADMINISTRATION FOR TELECOMMUNICATIONS OFFICE'
p807
sS'HUM TGT NAME'
p808
S''
sS'INCIDENT TYPE'
p809
S'ARSON'
p810
sS'PHYS TGT NUMBER'
p811
S'1 ANTEL NATIONAL ADMINISTRATION FOR TELECOMMUNICATIONS OFFICE'
p812
sS'PERP INDIVIDUAL ID'
p813
S'FMLN REBELS REBELS'
p814
sS'INCIDENT STAGE OF EXECUTION'
p815
S'ACCOMPLISHED'
p816
sS'HUM TGT DESCRIPTION'
p817
S''
sS'PHYS TGT EFFECT OF INCIDENT'
p818
S'SOME DAMAGE ANTEL NATIONAL ADMINISTRATION FOR TELECOMMUNICATIONS OFFICE'
p819
sS'HUM TGT FOREIGN NATION'
p820
S''
sS'INCIDENT DATE'
p821
S'21 DEC 88'
p822
sS'MESSAGE TEMPLATE'
p823
S'1'
sS'PHYS TGT TOTAL NUMBER'
p824
S''
ssS'TST4MUC40091'
p825
(dp826
S'PERP ORGANIZATION CONFIDENCE'
p827
S''
sS'HUM TGT EFFECT OF INCIDENT'
p828
S'INJURY OFFICER'
p829
sS'INCIDENT LOCATION'
p830
S'CHILE TONGOY BEACH TOWN'
p831
sS'PHYS TGT ID'
p832
S'BRIDGE'
p833
sS'PERP INCIDENT CATEGORY'
p834
S''
sS'NONCOMMISSIONED OFFICERS'
p835
S''
sS'PERP ORGANIZATION ID'
p836
S''
sS'HUM TGT TYPE'
p837
S'ACTIVE MILITARY OFFICER'
p838
sS'HUM TGT TOTAL NUMBER'
p839
S'3'
sS'INCIDENT INSTRUMENT ID'
p840
S'BOMB'
p841
sS'INCIDENT INSTRUMENT TYPE'
p842
S'BOMB BOMB'
p843
sS'PHYS TGT FOREIGN NATION'
p844
S''
sS'HUM TGT NUMBER'
p845
S'1 OFFICER'
p846
sS'PHYS TGT TYPE'
p847
S'TRANSPORTATION ROUTE BRIDGE'
p848
sS'HUM TGT NAME'
p849
S''
sS'INCIDENT TYPE'
p850
S'BOMBING'
p851
sS'PHYS TGT NUMBER'
p852
S'1 BRIDGE'
p853
sS'PERP INDIVIDUAL ID'
p854
S''
sS'INCIDENT STAGE OF EXECUTION'
p855
S'ACCOMPLISHED'
p856
sS'HUM TGT DESCRIPTION'
p857
S'OFFICER'
p858
sS'PHYS TGT EFFECT OF INCIDENT'
p859
S'DESTROYED BRIDGE'
p860
sS'HUM TGT FOREIGN NATION'
p861
S''
sS'INCIDENT DATE'
p862
S'18 DEC 88'
p863
sS'MESSAGE TEMPLATE'
p864
S'1'
sS'PHYS TGT TOTAL NUMBER'
p865
S''
ssS'TST4MUC40090'
p866
(dp867
S'PERP ORGANIZATION CONFIDENCE'
p868
S''
sS'HUM TGT EFFECT OF INCIDENT'
p869
S'DEATH ROSA IMELDA GONZALEZ MEDRANO'
p870
sS'INCIDENT LOCATION'
p871
S'EL SALVADOR SANTA ANA CITY SAN RAFAEL NEIGHBORHOOD EL SALVADOR SAN SALVADOR CITY SAN RAFAEL NEIGHBORHOOD EL SALVADOR SAN RAFAEL NEIGHBORHOOD'
p872
sS'PHYS TGT ID'
p873
S''
sS'PERP INCIDENT CATEGORY'
p874
S'TERRORIST ACT'
p875
sS'PERP ORGANIZATION ID'
p876
S''
sS'HUM TGT TYPE'
p877
S'CIVILIAN ROSA IMELDA GONZALEZ MEDRANO'
p878
sS'HUM TGT TOTAL NUMBER'
p879
S''
sS'INCIDENT INSTRUMENT ID'
p880
S''
sS'INCIDENT INSTRUMENT TYPE'
p881
S''
sS'PHYS TGT FOREIGN NATION'
p882
S''
sS'HUM TGT NUMBER'
p883
S'1 ROSA IMELDA GONZALEZ MEDRANO'
p884
sS'PHYS TGT TYPE'
p885
S''
sS'HUM TGT NAME'
p886
S'ROSA IMELDA GONZALEZ MEDRANO'
p887
sS'INCIDENT TYPE'
p888
S'ATTACK'
p889
sS'PHYS TGT NUMBER'
p890
S''
sS'PERP INDIVIDUAL ID'
p891
S'URBAN GUERRILLAS URBAN GUERRILLAS OPERATING IN SANTA ANA'
p892
sS'INCIDENT STAGE OF EXECUTION'
p893
S'ACCOMPLISHED'
p894
sS'HUM TGT DESCRIPTION'
p895
S'PROFESSOR AT THE WESTERN CAMPUS OF THE NATIONAL UNIVERSITY PROFESSOR HEAD OF THE LAW DEPARTMENT ROSA IMELDA GONZALEZ MEDRANO'
p896
sS'PHYS TGT EFFECT OF INCIDENT'
p897
S''
sS'HUM TGT FOREIGN NATION'
p898
S''
sS'INCIDENT DATE'
p899
S'16 DEC 88'
p900
sS'MESSAGE TEMPLATE'
p901
S'1 OPTIONAL'
p902
sS'PHYS TGT TOTAL NUMBER'
p903
S''
ssS'TST4MUC40099'
p904
(dp905
S'PERP ORGANIZATION CONFIDENCE'
p906
S'CLAIMED OR ADMITTED MANUEL RODRIGUEZ PATRIOTIC FRONT FPMR'
p907
sS'HUM TGT EFFECT OF INCIDENT'
p908
S''
sS'INCIDENT LOCATION'
p909
S'CHILE'
p910
sS'PHYS TGT ID'
p911
S''
sS'PERP INCIDENT CATEGORY'
p912
S'TERRORIST ACT'
p913
sS'PERP ORGANIZATION ID'
p914
S'MANUEL RODRIGUEZ PATRIOTIC FRONT FPMR'
p915
sS'HUM TGT TYPE'
p916
S'LEGAL OR JUDICIAL FERNANDO TORRES SILVA'
p917
sS'HUM TGT TOTAL NUMBER'
p918
S''
sS'INCIDENT INSTRUMENT ID'
p919
S''
sS'INCIDENT INSTRUMENT TYPE'
p920
S''
sS'PHYS TGT FOREIGN NATION'
p921
S''
sS'HUM TGT NUMBER'
p922
S'1 FERNANDO TORRES SILVA'
p923
sS'PHYS TGT TYPE'
p924
S''
sS'HUM TGT NAME'
p925
S'FERNANDO TORRES SILVA'
p926
sS'INCIDENT TYPE'
p927
S'ATTACK'
p928
sS'PHYS TGT NUMBER'
p929
S''
sS'PERP INDIVIDUAL ID'
p930
S''
sS'INCIDENT STAGE OF EXECUTION'
p931
S'THREATENED'
p932
sS'HUM TGT DESCRIPTION'
p933
S'MILITARY JUDGE FERNANDO TORRES SILVA'
p934
sS'PHYS TGT EFFECT OF INCIDENT'
p935
S''
sS'HUM TGT FOREIGN NATION'
p936
S''
sS'INCIDENT DATE'
p937
S'21 DEC 88'
p938
sS'MESSAGE TEMPLATE'
p939
S'2 OPTIONAL'
p940
sS'PHYS TGT TOTAL NUMBER'
p941
S''
ssS'TST4MUC40098'
p942
(dp943
S'PERP ORGANIZATION CONFIDENCE'
p944
S''
sS'HUM TGT EFFECT OF INCIDENT'
p945
S''
sS'INCIDENT LOCATION'
p946
S''
sS'PHYS TGT ID'
p947
S''
sS'PERP INCIDENT CATEGORY'
p948
S''
sS'PERP ORGANIZATION ID'
p949
S''
sS'HUM TGT TYPE'
p950
S''
sS'HUM TGT TOTAL NUMBER'
p951
S''
sS'INCIDENT INSTRUMENT ID'
p952
S''
sS'INCIDENT INSTRUMENT TYPE'
p953
S''
sS'PHYS TGT FOREIGN NATION'
p954
S''
sS'HUM TGT NUMBER'
p955
S''
sS'PHYS TGT TYPE'
p956
S''
sS'HUM TGT NAME'
p957
S''
sS'INCIDENT TYPE'
p958
S''
sS'PHYS TGT NUMBER'
p959
S''
sS'PERP INDIVIDUAL ID'
p960
S''
sS'INCIDENT STAGE OF EXECUTION'
p961
S''
sS'HUM TGT DESCRIPTION'
p962
S''
sS'PHYS TGT EFFECT OF INCIDENT'
p963
S''
sS'HUM TGT FOREIGN NATION'
p964
S''
sS'INCIDENT DATE'
p965
S''
sS'MESSAGE TEMPLATE'
p966
S''
sS'PHYS TGT TOTAL NUMBER'
p967
S''
ssS'TST4MUC40019'
p968
(dp969
S'PERP ORGANIZATION CONFIDENCE'
p970
S''
sS'HUM TGT EFFECT OF INCIDENT'
p971
S''
sS'INCIDENT LOCATION'
p972
S'PERU LIMA CITY'
p973
sS'PHYS TGT ID'
p974
S'LIMA AGRARIAN UNIT UNIDAD AGRARIA DE LIMA LIMA AGRARIAN UNIT DEPARTMENTAL AGRARIAN UNIT NO 6 UNIDAD AGRARIA DE LIMA'
p975
sS'PERP INCIDENT CATEGORY'
p976
S'TERRORIST ACT'
p977
sS'PERP ORGANIZATION ID'
p978
S''
sS'HUM TGT TYPE'
p979
S''
sS'HUM TGT TOTAL NUMBER'
p980
S''
sS'INCIDENT INSTRUMENT ID'
p981
S'POWERFUL BOMB BOMB'
p982
sS'INCIDENT INSTRUMENT TYPE'
p983
S'BOMB POWERFUL BOMB BOMB'
p984
sS'PHYS TGT FOREIGN NATION'
p985
S''
sS'ECONOMY MINISTRY ECONOMY AN'
p986
S'D FINANCE MINISTRY BUILDING'
p987
sS'HUM TGT NUMBER'
p988
S''
sS'PHYS TGT TYPE'
p989
S'GOVERNMENT OFFICE OR RESIDENCE ORGANIZATION OFFICE LIMA AGRARIAN UNIT UNIDAD AGRARIA DE LIMA LIMA AGRARIAN UNIT DEPARTMENTAL AGRARIAN UNIT NO 6 UNIDAD AGRARIA DE LIMA'
p990
sS'HUM TGT NAME'
p991
S''
sS'INCIDENT TYPE'
p992
S'BOMBING'
p993
sS'PHYS TGT NUMBER'
p994
S'1 LIMA AGRARIAN UNIT UNIDAD AGRARIA DE LIMA LIMA AGRARIAN UNIT DEPARTMENTAL AGRARIAN UNIT NO 6 UNIDAD AGRARIA DE LIMA'
p995
sS'PERP INDIVIDUAL ID'
p996
S'TERRORISTS'
p997
sS'INCIDENT STAGE OF EXECUTION'
p998
S'ACCOMPLISHED'
p999
sS'HUM TGT DESCRIPTION'
p1000
S''
sS'PHYS TGT EFFECT OF INCIDENT'
p1001
S''
sS'HUM TGT FOREIGN NATION'
p1002
S''
sS'INCIDENT DATE'
p1003
S'21 SEP 88'
p1004
sS'MESSAGE TEMPLATE'
p1005
S'1'
sS'PHYS TGT TOTAL NUMBER'
p1006
S''
ssS'TST4MUC40018'
p1007
(dp1008
S'PERP ORGANIZATION CONFIDENCE'
p1009
S''
sS'HUM TGT EFFECT OF INCIDENT'
p1010
S'DEATH NOEL KEMPFF'
p1011
sS'INCIDENT LOCATION'
p1012
S'BOLIVIA'
p1013
sS'PHYS TGT ID'
p1014
S''
sS'PERP INCIDENT CATEGORY'
p1015
S''
sS'PERP ORGANIZATION ID'
p1016
S''
sS'HUM TGT TYPE'
p1017
S'CIVILIAN NOEL KEMPFF'
p1018
sS'HUM TGT TOTAL NUMBER'
p1019
S''
sS'INCIDENT INSTRUMENT ID'
p1020
S''
sS'INCIDENT INSTRUMENT TYPE'
p1021
S''
sS'PHYS TGT FOREIGN NATION'
p1022
S''
sS'HUM TGT NUMBER'
p1023
S'1 NOEL KEMPFF'
p1024
sS'PHYS TGT TYPE'
p1025
S''
sS'HUM TGT NAME'
p1026
S'NOEL KEMPFF'
p1027
sS'INCIDENT TYPE'
p1028
S'ATTACK'
p1029
sS'PHYS TGT NUMBER'
p1030
S''
sS'PERP INDIVIDUAL ID'
p1031
S''
sS'INCIDENT STAGE OF EXECUTION'
p1032
S'ACCOMPLISHED'
p1033
sS'HUM TGT DESCRIPTION'
p1034
S'SCIENTIST NOEL KEMPFF'
p1035
sS'PHYS TGT EFFECT OF INCIDENT'
p1036
S''
sS'HUM TGT FOREIGN NATION'
p1037
S''
sS'INCIDENT DATE'
p1038
S'16 SEP 88'
p1039
sS'MESSAGE TEMPLATE'
p1040
S'1'
sS'PHYS TGT TOTAL NUMBER'
p1041
S''
ssS'TST4MUC40017'
p1042
(dp1043
S'PERP ORGANIZATION CONFIDENCE'
p1044
S''
sS'HUM TGT EFFECT OF INCIDENT'
p1045
S''
sS'INCIDENT LOCATION'
p1046
S''
sS'PHYS TGT ID'
p1047
S''
sS'PERP INCIDENT CATEGORY'
p1048
S''
sS'PERP ORGANIZATION ID'
p1049
S''
sS'HUM TGT TYPE'
p1050
S''
sS'HUM TGT TOTAL NUMBER'
p1051
S''
sS'INCIDENT INSTRUMENT ID'
p1052
S''
sS'INCIDENT INSTRUMENT TYPE'
p1053
S''
sS'PHYS TGT FOREIGN NATION'
p1054
S''
sS'HUM TGT NUMBER'
p1055
S''
sS'PHYS TGT TYPE'
p1056
S''
sS'HUM TGT NAME'
p1057
S''
sS'INCIDENT TYPE'
p1058
S''
sS'PHYS TGT NUMBER'
p1059
S''
sS'PERP INDIVIDUAL ID'
p1060
S''
sS'INCIDENT STAGE OF EXECUTION'
p1061
S''
sS'HUM TGT DESCRIPTION'
p1062
S''
sS'PHYS TGT EFFECT OF INCIDENT'
p1063
S''
sS'HUM TGT FOREIGN NATION'
p1064
S''
sS'INCIDENT DATE'
p1065
S''
sS'MESSAGE TEMPLATE'
p1066
S''
sS'PHYS TGT TOTAL NUMBER'
p1067
S''
ssS'TST4MUC40016'
p1068
(dp1069
S'PERP ORGANIZATION CONFIDENCE'
p1070
S'CLAIMED OR ADMITTED FMLN GENERAL COMMAND FMLN'
p1071
sS'HUM TGT EFFECT OF INCIDENT'
p1072
S''
sS'INCIDENT LOCATION'
p1073
S'EL SALVADOR SAN SALVADOR CITY'
p1074
sS'PHYS TGT ID'
p1075
S'GOVERNMENT VEHICLES LICENSE PLATES 6906 AND 6895 USED BY THE RURAL BASIC HEALTH PLAN SECTION OF THE HEALTH MINISTRY GOVERNMENT VEHICLES LICENSE PLATES 6906 AND 6895 GOVERNMENT VEHICLES VEHICLES CARS'
p1076
sS'PERP INCIDENT CATEGORY'
p1077
S'TERRORIST ACT'
p1078
sS'PERP ORGANIZATION ID'
p1079
S'FMLN GENERAL COMMAND FMLN'
p1080
sS'HUM TGT TYPE'
p1081
S''
sS'HUM TGT TOTAL NUMBER'
p1082
S''
sS'INCIDENT INSTRUMENT ID'
p1083
S'TWO POWERFUL BOMBS POWERFUL BOMBS BOMBS'
p1084
sS'INCIDENT INSTRUMENT TYPE'
p1085
S'BOMB TWO POWERFUL BOMBS POWERFUL BOMBS BOMBS'
p1086
sS'PHYS TGT FOREIGN NATION'
p1087
S''
sS'HUM TGT NUMBER'
p1088
S''
sS'PHYS TGT TYPE'
p1089
S'TRANSPORT VEHICLE GOVERNMENT VEHICLES LICENSE PLATES 6906 AND 6895 USED BY THE RURAL BASIC HEALTH PLAN SECTION OF THE HEALTH MINISTRY GOVERNMENT VEHICLES LICENSE PLATES 6906 AND 6895 GOVERNMENT VEHICLES VEHICLES CARS'
p1090
sS'HUM TGT NAME'
p1091
S''
sS'INCIDENT TYPE'
p1092
S'BOMBING'
p1093
sS'PHYS TGT NUMBER'
p1094
S'2 GOVERNMENT VEHICLES LICENSE PLATES 6906 AND 6895 USED BY THE RURAL BASIC HEALTH PLAN SECTION OF THE HEALTH MINISTRY GOVERNMENT VEHICLES LICENSE PLATES 6906 AND 6895 GOVERNMENT VEHICLES VEHICLES CARS'
p1095
sS'PERP INDIVIDUAL ID'
p1096
S'FMLN URBAN GUERRILLAS URBAN GUERRILLAS'
p1097
sS'INCIDENT STAGE OF EXECUTION'
p1098
S'ACCOMPLISHED'
p1099
sS'HUM TGT DESCRIPTION'
p1100
S''
sS'PHYS TGT EFFECT OF INCIDENT'
p1101
S'DESTROYED GOVERNMENT VEHICLES LICENSE PLATES 6906 AND 6895 USED BY THE RURAL BASIC HEALTH PLAN SECTION OF THE HEALTH MINISTRY GOVERNMENT VEHICLES LICENSE PLATES 6906 AND 6895 GOVERNMENT VEHICLES VEHICLES CARS'
p1102
sS'HUM TGT FOREIGN NATION'
p1103
S''
sS'INCIDENT DATE'
p1104
S'05 SEP 88'
p1105
sS'MESSAGE TEMPLATE'
p1106
S'1'
sS'PHYS TGT TOTAL NUMBER'
p1107
S''
ssS'TST4MUC40015'
p1108
(dp1109
S'PERP ORGANIZATION CONFIDENCE'
p1110
S'POSSIBLE POPULAR LIBERATION ARMY'
p1111
sS'HUM TGT EFFECT OF INCIDENT'
p1112
S'DEATH RESIDENTS THOSE WHO RAN FOR THEIR LIVES CIVILIANS OTHERS'
p1113
sS'INCIDENT LOCATION'
p1114
S'COLOMBIA CORDOBA DEPARTMENT CANALETES MUNICIPALITY EL TOMATE TOWN'
p1115
sS'PHYS TGT ID'
p1116
S'SHACKS HOUSES'
p1117
sS'PERP INCIDENT CATEGORY'
p1118
S'TERRORIST ACT'
p1119
sS'PERP ORGANIZATION ID'
p1120
S'POPULAR LIBERATION ARMY'
p1121
sS'HUM TGT TYPE'
p1122
S'CIVILIAN RESIDENTS THOSE WHO RAN FOR THEIR LIVES CIVILIANS OTHERS'
p1123
sS'HUM TGT TOTAL NUMBER'
p1124
S''
sS'INCIDENT INSTRUMENT ID'
p1125
S''
sS'INCIDENT INSTRUMENT TYPE'
p1126
S''
sS'PHYS TGT FOREIGN NATION'
p1127
S''
sS'BUS'
p1128
S''
sS'17 RESIDENTS THOSE WHO'
p1129
S'RAN FOR THEIR LIVES CIVILIANS OTHERS'
p1130
sS'HUM TGT NUMBER'
p1131
S'12 15 12 15 RESIDENTS THOSE WHO RAN FOR THEIR LIVES CIVILIANS OTHERS'
p1132
sS'PHYS TGT TYPE'
p1133
S'CIVILIAN RESIDENCE SHACKS HOUSES'
p1134
sS'HUM TGT NAME'
p1135
S''
sS'INCIDENT TYPE'
p1136
S'ARSON'
p1137
sS'PHYS TGT NUMBER'
p1138
S'21 26 47 SHACKS HOUSES'
p1139
sS'PERP INDIVIDUAL ID'
p1140
S'GANG POSSIBLY BELONGING TO THE POPULAR LIBERATION ARMY GANG'
p1141
sS'INCIDENT STAGE OF EXECUTION'
p1142
S'ACCOMPLISHED'
p1143
sS'HUM TGT DESCRIPTION'
p1144
S'RESIDENTS THOSE WHO RAN FOR THEIR LIVES CIVILIANS OTHERS'
p1145
sS'PHYS TGT EFFECT OF INCIDENT'
p1146
S'DESTROYED SHACKS HOUSES'
p1147
sS'HUM TGT FOREIGN NATION'
p1148
S''
sS'INCIDENT DATE'
p1149
S'01 SEP 88'
p1150
sS'MESSAGE TEMPLATE'
p1151
S'2'
sS'PHYS TGT TOTAL NUMBER'
p1152
S''
ssS'TST4MUC40014'
p1153
(dp1154
S'PERP ORGANIZATION CONFIDENCE'
p1155
S''
sS'HUM TGT EFFECT OF INCIDENT'
p1156
S''
sS'INCIDENT LOCATION'
p1157
S''
sS'PHYS TGT ID'
p1158
S''
sS'PERP INCIDENT CATEGORY'
p1159
S''
sS'PERP ORGANIZATION ID'
p1160
S''
sS'HUM TGT TYPE'
p1161
S''
sS'HUM TGT TOTAL NUMBER'
p1162
S''
sS'INCIDENT INSTRUMENT ID'
p1163
S''
sS'INCIDENT INSTRUMENT TYPE'
p1164
S''
sS'PHYS TGT FOREIGN NATION'
p1165
S''
sS'HUM TGT NUMBER'
p1166
S''
sS'PHYS TGT TYPE'
p1167
S''
sS'HUM TGT NAME'
p1168
S''
sS'INCIDENT TYPE'
p1169
S''
sS'PHYS TGT NUMBER'
p1170
S''
sS'PERP INDIVIDUAL ID'
p1171
S''
sS'INCIDENT STAGE OF EXECUTION'
p1172
S''
sS'HUM TGT DESCRIPTION'
p1173
S''
sS'PHYS TGT EFFECT OF INCIDENT'
p1174
S''
sS'HUM TGT FOREIGN NATION'
p1175
S''
sS'INCIDENT DATE'
p1176
S''
sS'MESSAGE TEMPLATE'
p1177
S''
sS'PHYS TGT TOTAL NUMBER'
p1178
S''
ssS'TST4MUC40013'
p1179
(dp1180
S'PERP ORGANIZATION CONFIDENCE'
p1181
S''
sS'HUM TGT EFFECT OF INCIDENT'
p1182
S'DEATH OSCAR ARNULFO ROMERO'
p1183
sS'INCIDENT LOCATION'
p1184
S'EL SALVADOR'
p1185
sS'PHYS TGT ID'
p1186
S''
sS'PERP INCIDENT CATEGORY'
p1187
S'STATESPONSORED VIOLENCE'
p1188
sS'PERP ORGANIZATION ID'
p1189
S''
sS'HUM TGT TYPE'
p1190
S'CIVILIAN OSCAR ARNULFO ROMERO'
p1191
sS'HUM TGT TOTAL NUMBER'
p1192
S''
sS'INCIDENT INSTRUMENT ID'
p1193
S''
sS'INCIDENT INSTRUMENT TYPE'
p1194
S''
sS'PHYS TGT FOREIGN NATION'
p1195
S''
sS'HUM TGT NUMBER'
p1196
S'1 OSCAR ARNULFO ROMERO'
p1197
sS'PHYS TGT TYPE'
p1198
S''
sS'HUM TGT NAME'
p1199
S'OSCAR ARNULFO ROMERO'
p1200
sS'INCIDENT TYPE'
p1201
S'ATTACK'
p1202
sS'PHYS TGT NUMBER'
p1203
S''
sS'PERP INDIVIDUAL ID'
p1204
S'FORMER CAPTAIN ALVARO SANABRIA CAPTAIN ALVARO SANABRIA'
p1205
sS'INCIDENT STAGE OF EXECUTION'
p1206
S'ACCOMPLISHED'
p1207
sS'HUM TGT DESCRIPTION'
p1208
S'MSGR OSCAR ARNULFO ROMERO'
p1209
sS'PHYS TGT EFFECT OF INCIDENT'
p1210
S''
sS'HUM TGT FOREIGN NATION'
p1211
S''
sS'INCIDENT DATE'
p1212
S'18 AUG 88'
p1213
sS'MESSAGE TEMPLATE'
p1214
S'1 OPTIONAL'
p1215
sS'PHYS TGT TOTAL NUMBER'
p1216
S''
ssS'TST4MUC40012'
p1217
(dp1218
S'PERP ORGANIZATION CONFIDENCE'
p1219
S''
sS'HUM TGT EFFECT OF INCIDENT'
p1220
S''
sS'INCIDENT LOCATION'
p1221
S''
sS'PHYS TGT ID'
p1222
S''
sS'PERP INCIDENT CATEGORY'
p1223
S''
sS'PERP ORGANIZATION ID'
p1224
S''
sS'HUM TGT TYPE'
p1225
S''
sS'HUM TGT TOTAL NUMBER'
p1226
S''
sS'INCIDENT INSTRUMENT ID'
p1227
S''
sS'INCIDENT INSTRUMENT TYPE'
p1228
S''
sS'PHYS TGT FOREIGN NATION'
p1229
S''
sS'HUM TGT NUMBER'
p1230
S''
sS'PHYS TGT TYPE'
p1231
S''
sS'HUM TGT NAME'
p1232
S''
sS'INCIDENT TYPE'
p1233
S''
sS'PHYS TGT NUMBER'
p1234
S''
sS'PERP INDIVIDUAL ID'
p1235
S''
sS'INCIDENT STAGE OF EXECUTION'
p1236
S''
sS'HUM TGT DESCRIPTION'
p1237
S''
sS'PHYS TGT EFFECT OF INCIDENT'
p1238
S''
sS'HUM TGT FOREIGN NATION'
p1239
S''
sS'INCIDENT DATE'
p1240
S''
sS'MESSAGE TEMPLATE'
p1241
S''
sS'PHYS TGT TOTAL NUMBER'
p1242
S''
ssS'TST4MUC40011'
p1243
(dp1244
S'PERP ORGANIZATION CONFIDENCE'
p1245
S''
sS'HUM TGT EFFECT OF INCIDENT'
p1246
S''
sS'INCIDENT LOCATION'
p1247
S''
sS'PHYS TGT ID'
p1248
S''
sS'PERP INCIDENT CATEGORY'
p1249
S''
sS'PERP ORGANIZATION ID'
p1250
S''
sS'HUM TGT TYPE'
p1251
S''
sS'HUM TGT TOTAL NUMBER'
p1252
S''
sS'INCIDENT INSTRUMENT ID'
p1253
S''
sS'INCIDENT INSTRUMENT TYPE'
p1254
S''
sS'PHYS TGT FOREIGN NATION'
p1255
S''
sS'HUM TGT NUMBER'
p1256
S''
sS'PHYS TGT TYPE'
p1257
S''
sS'HUM TGT NAME'
p1258
S''
sS'INCIDENT TYPE'
p1259
S''
sS'PHYS TGT NUMBER'
p1260
S''
sS'PERP INDIVIDUAL ID'
p1261
S''
sS'INCIDENT STAGE OF EXECUTION'
p1262
S''
sS'HUM TGT DESCRIPTION'
p1263
S''
sS'PHYS TGT EFFECT OF INCIDENT'
p1264
S''
sS'HUM TGT FOREIGN NATION'
p1265
S''
sS'INCIDENT DATE'
p1266
S''
sS'MESSAGE TEMPLATE'
p1267
S''
sS'PHYS TGT TOTAL NUMBER'
p1268
S''
ssS'TST4MUC40010'
p1269
(dp1270
S'PERP ORGANIZATION CONFIDENCE'
p1271
S''
sS'HUM TGT EFFECT OF INCIDENT'
p1272
S''
sS'INCIDENT LOCATION'
p1273
S'CHILE RANCAGUA CITY'
p1274
sS'PHYS TGT ID'
p1275
S'NATIONAL VANGUARD OFFICES'
p1276
sS'PERP INCIDENT CATEGORY'
p1277
S''
sS'PERP ORGANIZATION ID'
p1278
S''
sS'HUM TGT TYPE'
p1279
S''
sS'HUM TGT TOTAL NUMBER'
p1280
S''
sS'INCIDENT INSTRUMENT ID'
p1281
S'BOMB'
p1282
sS'INCIDENT INSTRUMENT TYPE'
p1283
S'BOMB BOMB'
p1284
sS'PHYS TGT FOREIGN NATION'
p1285
S''
sS'HUM TGT NUMBER'
p1286
S''
sS'PHYS TGT TYPE'
p1287
S'ORGANIZATION OFFICE COMMERCIAL OTHER NATIONAL VANGUARD OFFICES'
p1288
sS'HUM TGT NAME'
p1289
S''
sS'INCIDENT TYPE'
p1290
S'BOMBING'
p1291
sS'PHYS TGT NUMBER'
p1292
S'PLURAL NATIONAL VANGUARD OFFICES'
p1293
sS'PERP INDIVIDUAL ID'
p1294
S'UNIDENTIFIED INDIVIDUALS'
p1295
sS'INCIDENT STAGE OF EXECUTION'
p1296
S'ACCOMPLISHED'
p1297
sS'HUM TGT DESCRIPTION'
p1298
S''
sS'PHYS TGT EFFECT OF INCIDENT'
p1299
S'SOME DAMAGE NATIONAL VANGUARD OFFICES'
p1300
sS'HUM TGT FOREIGN NATION'
p1301
S''
sS'INCIDENT DATE'
p1302
S'29 JUL 88'
p1303
sS'MESSAGE TEMPLATE'
p1304
S'1'
sS'PHYS TGT TOTAL NUMBER'
p1305
S''
ssS'TST4MUC40028'
p1306
(dp1307
S'PERP ORGANIZATION CONFIDENCE'
p1308
S''
sS'HUM TGT EFFECT OF INCIDENT'
p1309
S''
sS'INCIDENT LOCATION'
p1310
S'CHILE'
p1311
sS'PHYS TGT ID'
p1312
S'HIGH TENSION TOWERS TOWERS TOWER'
p1313
sS'PERP INCIDENT CATEGORY'
p1314
S'TERRORIST ACT'
p1315
sS'PERP ORGANIZATION ID'
p1316
S''
sS'HUM TGT TYPE'
p1317
S''
sS'HUM TGT TOTAL NUMBER'
p1318
S''
sS'INCIDENT INSTRUMENT ID'
p1319
S'POWERFUL CZECHOSLOVAKMADE PLASTIC BOMBS CZECHOSLOVAKMADE PLASTIC BOMBS PLASTIC BOMBS BOMBS CZECHOSLOVAK BOMBS'
p1320
sS'INCIDENT INSTRUMENT TYPE'
p1321
S'BOMB POWERFUL CZECHOSLOVAKMADE PLASTIC BOMBS CZECHOSLOVAKMADE PLASTIC BOMBS PLASTIC BOMBS BOMBS CZECHOSLOVAK BOMBS'
p1322
sS'PHYS TGT FOREIGN NATION'
p1323
S''
sS'HUM TGT NUMBER'
p1324
S''
sS'PHYS TGT TYPE'
p1325
S'ENERGY HIGH TENSION TOWERS TOWERS TOWER'
p1326
sS'HUM TGT NAME'
p1327
S''
sS'INCIDENT TYPE'
p1328
S'BOMBING'
p1329
sS'PHYS TGT NUMBER'
p1330
S'2 4 HIGH TENSION TOWERS TOWERS TOWER'
p1331
sS'PERP INDIVIDUAL ID'
p1332
S'TERRORISTS'
p1333
sS'INCIDENT STAGE OF EXECUTION'
p1334
S'ACCOMPLISHED'
p1335
sS'HUM TGT DESCRIPTION'
p1336
S''
sS'PHYS TGT EFFECT OF INCIDENT'
p1337
S'DESTROYED HIGH TENSION TOWERS TOWERS TOWER'
p1338
sS'HUM TGT FOREIGN NATION'
p1339
S''
sS'INCIDENT DATE'
p1340
S'01 OCT 88'
p1341
sS'MESSAGE TEMPLATE'
p1342
S'3'
sS'PHYS TGT TOTAL NUMBER'
p1343
S''
ssS'TST4MUC40029'
p1344
(dp1345
S'PERP ORGANIZATION CONFIDENCE'
p1346
S'REPORTED AS FACT POSSIBLE SHINING PATH'
p1347
sS'HUM TGT EFFECT OF INCIDENT'
p1348
S''
sS'INCIDENT LOCATION'
p1349
S'PERU LIMA CITY'
p1350
sS'PHYS TGT ID'
p1351
S'EMBASSY'
p1352
sS'PERP INCIDENT CATEGORY'
p1353
S'TERRORIST ACT'
p1354
sS'PERP ORGANIZATION ID'
p1355
S'SHINING PATH'
p1356
sS'HUM TGT TYPE'
p1357
S''
sS'HUM TGT TOTAL NUMBER'
p1358
S''
sS'INCIDENT INSTRUMENT ID'
p1359
S''
sS'INCIDENT INSTRUMENT TYPE'
p1360
S''
sS'PHYS TGT FOREIGN NATION'
p1361
S'UNITED STATES EMBASSY'
p1362
sS'HUM TGT NUMBER'
p1363
S''
sS'PHYS TGT TYPE'
p1364
S'DIPLOMAT OFFICE OR RESIDENCE EMBASSY'
p1365
sS'HUM TGT NAME'
p1366
S''
sS'INCIDENT TYPE'
p1367
S'ATTACK'
p1368
sS'PHYS TGT NUMBER'
p1369
S'1 EMBASSY'
p1370
sS'PERP INDIVIDUAL ID'
p1371
S''
sS'INCIDENT STAGE OF EXECUTION'
p1372
S'ATTEMPTED'
p1373
sS'HUM TGT DESCRIPTION'
p1374
S''
sS'PHYS TGT EFFECT OF INCIDENT'
p1375
S''
sS'HUM TGT FOREIGN NATION'
p1376
S''
sS'INCIDENT DATE'
p1377
S'02 OCT 88 01 OCT 88 01 OCT 88 02 OCT 88'
p1378
sS'MESSAGE TEMPLATE'
p1379
S'3'
sS'PHYS TGT TOTAL NUMBER'
p1380
S''
ssS'TST4MUC40022'
p1381
(dp1382
S'PERP ORGANIZATION CONFIDENCE'
p1383
S''
sS'HUM TGT EFFECT OF INCIDENT'
p1384
S''
sS'INCIDENT LOCATION'
p1385
S'PERU SAN CLEMENTE TOWN'
p1386
sS'PHYS TGT ID'
p1387
S'MACHINERY BELONGING TO ALBOLONES PERUANOS INC MACHINERY'
p1388
sS'PERP INCIDENT CATEGORY'
p1389
S'TERRORIST ACT'
p1390
sS'PERP ORGANIZATION ID'
p1391
S''
sS'HUM TGT TYPE'
p1392
S'CIVILIAN WORKERS'
p1393
sS'HUM TGT TOTAL NUMBER'
p1394
S''
sS'INCIDENT INSTRUMENT ID'
p1395
S'MOLOTOV COCKTAILS'
p1396
sS'INCIDENT INSTRUMENT TYPE'
p1397
S'DYNAMITE'
p1398
sS'PHYS TGT FOREIGN NATION'
p1399
S''
sS'HUM TGT NUMBER'
p1400
S'20 WORKERS'
p1401
sS'PHYS TGT TYPE'
p1402
S'OTHER MACHINERY BELONGING TO ALBOLONES PERUANOS INC MACHINERY'
p1403
sS'HUM TGT NAME'
p1404
S''
sS'INCIDENT TYPE'
p1405
S'BOMBING'
p1406
sS'PHYS TGT NUMBER'
p1407
S'1 PLURAL MACHINERY BELONGING TO ALBOLONES PERUANOS INC MACHINERY'
p1408
sS'PERP INDIVIDUAL ID'
p1409
S'GROUP OF TERRORISTS TERRORISTS APPROXIMATELY 20 TERRORISTS'
p1410
sS'INCIDENT STAGE OF EXECUTION'
p1411
S'ACCOMPLISHED'
p1412
sS'HUM TGT DESCRIPTION'
p1413
S'WORKERS'
p1414
sS'PHYS TGT EFFECT OF INCIDENT'
p1415
S''
sS'HUM TGT FOREIGN NATION'
p1416
S''
sS'INCIDENT DATE'
p1417
S'22 SEP 88 22 SEP 88 23 SEP 88'
p1418
sS'MESSAGE TEMPLATE'
p1419
S'1'
sS'PHYS TGT TOTAL NUMBER'
p1420
S''
ssS'TST4MUC40023'
p1421
(dp1422
S'PERP ORGANIZATION CONFIDENCE'
p1423
S''
sS'HUM TGT EFFECT OF INCIDENT'
p1424
S''
sS'INCIDENT LOCATION'
p1425
S''
sS'PHYS TGT ID'
p1426
S''
sS'PERP INCIDENT CATEGORY'
p1427
S''
sS'PERP ORGANIZATION ID'
p1428
S''
sS'HUM TGT TYPE'
p1429
S''
sS'HUM TGT TOTAL NUMBER'
p1430
S''
sS'INCIDENT INSTRUMENT ID'
p1431
S''
sS'INCIDENT INSTRUMENT TYPE'
p1432
S''
sS'PHYS TGT FOREIGN NATION'
p1433
S''
sS'HUM TGT NUMBER'
p1434
S''
sS'PHYS TGT TYPE'
p1435
S''
sS'HUM TGT NAME'
p1436
S''
sS'INCIDENT TYPE'
p1437
S''
sS'PHYS TGT NUMBER'
p1438
S''
sS'PERP INDIVIDUAL ID'
p1439
S''
sS'INCIDENT STAGE OF EXECUTION'
p1440
S''
sS'HUM TGT DESCRIPTION'
p1441
S''
sS'PHYS TGT EFFECT OF INCIDENT'
p1442
S''
sS'HUM TGT FOREIGN NATION'
p1443
S''
sS'INCIDENT DATE'
p1444
S''
sS'MESSAGE TEMPLATE'
p1445
S''
sS'PHYS TGT TOTAL NUMBER'
p1446
S''
ssS'TST4MUC40020'
p1447
(dp1448
S'PERP ORGANIZATION CONFIDENCE'
p1449
S''
sS'HUM TGT EFFECT OF INCIDENT'
p1450
S''
sS'INCIDENT LOCATION'
p1451
S''
sS'PHYS TGT ID'
p1452
S''
sS'PERP INCIDENT CATEGORY'
p1453
S''
sS'PERP ORGANIZATION ID'
p1454
S''
sS'HUM TGT TYPE'
p1455
S''
sS'HUM TGT TOTAL NUMBER'
p1456
S''
sS'INCIDENT INSTRUMENT ID'
p1457
S''
sS'INCIDENT INSTRUMENT TYPE'
p1458
S''
sS'PHYS TGT FOREIGN NATION'
p1459
S''
sS'HUM TGT NUMBER'
p1460
S''
sS'PHYS TGT TYPE'
p1461
S''
sS'HUM TGT NAME'
p1462
S''
sS'INCIDENT TYPE'
p1463
S''
sS'PHYS TGT NUMBER'
p1464
S''
sS'PERP INDIVIDUAL ID'
p1465
S''
sS'INCIDENT STAGE OF EXECUTION'
p1466
S''
sS'HUM TGT DESCRIPTION'
p1467
S''
sS'PHYS TGT EFFECT OF INCIDENT'
p1468
S''
sS'HUM TGT FOREIGN NATION'
p1469
S''
sS'INCIDENT DATE'
p1470
S''
sS'MESSAGE TEMPLATE'
p1471
S''
sS'PHYS TGT TOTAL NUMBER'
p1472
S''
ssS'TST4MUC40021'
p1473
(dp1474
S'PERP ORGANIZATION CONFIDENCE'
p1475
S''
sS'HUM TGT EFFECT OF INCIDENT'
p1476
S'INJURY PEOPLE'
p1477
sS'INCIDENT LOCATION'
p1478
S'COLOMBIA BUCARAMANGA CITY'
p1479
sS'PHYS TGT ID'
p1480
S'2D ARMY DIVISION HEADQUARTERS'
p1481
sS'PERP INCIDENT CATEGORY'
p1482
S'TERRORIST ACT'
p1483
sS'PERP ORGANIZATION ID'
p1484
S''
sS'HUM TGT TYPE'
p1485
S'CIVILIAN ACTIVE MILITARY PEOPLE'
p1486
sS'HUM TGT TOTAL NUMBER'
p1487
S''
sS'INCIDENT INSTRUMENT ID'
p1488
S''
sS'INCIDENT INSTRUMENT TYPE'
p1489
S''
sS'PHYS TGT FOREIGN NATION'
p1490
S''
sS'HUM TGT NUMBER'
p1491
S'7 PEOPLE'
p1492
sS'PHYS TGT TYPE'
p1493
S'OTHER 2D ARMY DIVISION HEADQUARTERS'
p1494
sS'HUM TGT NAME'
p1495
S''
sS'HOMES'
p1496
S''
sS'INCIDENT TYPE'
p1497
S'ATTACK'
p1498
sS'PHYS TGT NUMBER'
p1499
S'1 PLURAL 2D ARMY DIVISION HEADQUARTERS'
p1500
sS'PERP INDIVIDUAL ID'
p1501
S'TERRORIST'
p1502
sS'INCIDENT STAGE OF EXECUTION'
p1503
S'ACCOMPLISHED'
p1504
sS'HUM TGT DESCRIPTION'
p1505
S'PEOPLE'
p1506
sS'PHYS TGT EFFECT OF INCIDENT'
p1507
S'SOME DAMAGE 2D ARMY DIVISION HEADQUARTERS'
p1508
sS'HUM TGT FOREIGN NATION'
p1509
S''
sS'INCIDENT DATE'
p1510
S'21 SEP 88'
p1511
sS'MESSAGE TEMPLATE'
p1512
S'2'
sS'PHYS TGT TOTAL NUMBER'
p1513
S''
ssS'TST4MUC40026'
p1514
(dp1515
S'PERP ORGANIZATION CONFIDENCE'
p1516
S''
sS'HUM TGT EFFECT OF INCIDENT'
p1517
S''
sS'INCIDENT LOCATION'
p1518
S''
sS'PHYS TGT ID'
p1519
S''
sS'PERP INCIDENT CATEGORY'
p1520
S''
sS'PERP ORGANIZATION ID'
p1521
S''
sS'HUM TGT TYPE'
p1522
S''
sS'HUM TGT TOTAL NUMBER'
p1523
S''
sS'INCIDENT INSTRUMENT ID'
p1524
S''
sS'INCIDENT INSTRUMENT TYPE'
p1525
S''
sS'PHYS TGT FOREIGN NATION'
p1526
S''
sS'HUM TGT NUMBER'
p1527
S''
sS'PHYS TGT TYPE'
p1528
S''
sS'HUM TGT NAME'
p1529
S''
sS'INCIDENT TYPE'
p1530
S''
sS'PHYS TGT NUMBER'
p1531
S''
sS'PERP INDIVIDUAL ID'
p1532
S''
sS'INCIDENT STAGE OF EXECUTION'
p1533
S''
sS'HUM TGT DESCRIPTION'
p1534
S''
sS'PHYS TGT EFFECT OF INCIDENT'
p1535
S''
sS'HUM TGT FOREIGN NATION'
p1536
S''
sS'INCIDENT DATE'
p1537
S''
sS'MESSAGE TEMPLATE'
p1538
S''
sS'PHYS TGT TOTAL NUMBER'
p1539
S''
ssS'TST4MUC40027'
p1540
(dp1541
S'PERP ORGANIZATION CONFIDENCE'
p1542
S''
sS'HUM TGT EFFECT OF INCIDENT'
p1543
S''
sS'INCIDENT LOCATION'
p1544
S''
sS'PHYS TGT ID'
p1545
S''
sS'PERP INCIDENT CATEGORY'
p1546
S''
sS'PERP ORGANIZATION ID'
p1547
S''
sS'HUM TGT TYPE'
p1548
S''
sS'HUM TGT TOTAL NUMBER'
p1549
S''
sS'INCIDENT INSTRUMENT ID'
p1550
S''
sS'INCIDENT INSTRUMENT TYPE'
p1551
S''
sS'PHYS TGT FOREIGN NATION'
p1552
S''
sS'HUM TGT NUMBER'
p1553
S''
sS'PHYS TGT TYPE'
p1554
S''
sS'HUM TGT NAME'
p1555
S''
sS'INCIDENT TYPE'
p1556
S''
sS'PHYS TGT NUMBER'
p1557
S''
sS'PERP INDIVIDUAL ID'
p1558
S''
sS'INCIDENT STAGE OF EXECUTION'
p1559
S''
sS'HUM TGT DESCRIPTION'
p1560
S''
sS'PHYS TGT EFFECT OF INCIDENT'
p1561
S''
sS'HUM TGT FOREIGN NATION'
p1562
S''
sS'INCIDENT DATE'
p1563
S''
sS'MESSAGE TEMPLATE'
p1564
S''
sS'PHYS TGT TOTAL NUMBER'
p1565
S''
ssS'TST4MUC40024'
p1566
(dp1567
S'PERP ORGANIZATION CONFIDENCE'
p1568
S''
sS'HUM TGT EFFECT OF INCIDENT'
p1569
S''
sS'INCIDENT LOCATION'
p1570
S'CHILE ARICA CITY'
p1571
sS'PHYS TGT ID'
p1572
S''
sS'PERP INCIDENT CATEGORY'
p1573
S'TERRORIST ACT'
p1574
sS'PERP ORGANIZATION ID'
p1575
S''
sS'HUM TGT TYPE'
p1576
S'POLITICAL FIGURE MEMBERS OF THE PARTYS BOARD'
p1577
sS'HUM TGT TOTAL NUMBER'
p1578
S''
sS'INCIDENT INSTRUMENT ID'
p1579
S''
sS'INCIDENT INSTRUMENT TYPE'
p1580
S''
sS'PHYS TGT FOREIGN NATION'
p1581
S''
sS'HUM TGT NUMBER'
p1582
S'PLURAL MEMBERS OF THE PARTYS BOARD'
p1583
sS'PHYS TGT TYPE'
p1584
S''
sS'HUM TGT NAME'
p1585
S''
sS'INCIDENT TYPE'
p1586
S'ATTACK'
p1587
sS'PHYS TGT NUMBER'
p1588
S''
sS'PERP INDIVIDUAL ID'
p1589
S'UNIDENTIFIED INDIVIDUALS INDIVIDUALS'
p1590
sS'INCIDENT STAGE OF EXECUTION'
p1591
S'THREATENED'
p1592
sS'HUM TGT DESCRIPTION'
p1593
S'MEMBERS OF THE PARTYS BOARD'
p1594
sS'PHYS TGT EFFECT OF INCIDENT'
p1595
S''
sS'HUM TGT FOREIGN NATION'
p1596
S''
sS'INCIDENT DATE'
p1597
S'28 SEP 88'
p1598
sS'MESSAGE TEMPLATE'
p1599
S'3'
sS'PHYS TGT TOTAL NUMBER'
p1600
S''
ssS'TST4MUC40025'
p1601
(dp1602
S'PERP ORGANIZATION CONFIDENCE'
p1603
S'REPORTED AS FACT FMLN'
p1604
sS'HUM TGT EFFECT OF INCIDENT'
p1605
S''
sS'INCIDENT LOCATION'
p1606
S'EL SALVADOR LA PAZ DEPARTMENT SAN FRANCISCO CHINAMECA TOWN'
p1607
sS'PHYS TGT ID'
p1608
S'ANTEL NATIONAL ADMINISTRATION FOR TELECOMMUNICATIONS INSTALLATIONS'
p1609
sS'PERP INCIDENT CATEGORY'
p1610
S'TERRORIST ACT'
p1611
sS'PERP ORGANIZATION ID'
p1612
S'FMLN'
p1613
sS'HUM TGT TYPE'
p1614
S''
sS'HUM TGT TOTAL NUMBER'
p1615
S''
sS'INCIDENT INSTRUMENT ID'
p1616
S''
sS'INCIDENT INSTRUMENT TYPE'
p1617
S''
sS'PHYS TGT FOREIGN NATION'
p1618
S''
sS'HUM TGT NUMBER'
p1619
S''
sS'PHYS TGT TYPE'
p1620
S'COMMUNICATIONS ANTEL NATIONAL ADMINISTRATION FOR TELECOMMUNICATIONS INSTALLATIONS'
p1621
sS'HUM TGT NAME'
p1622
S''
sS'INCIDENT TYPE'
p1623
S'ATTACK'
p1624
sS'PHYS TGT NUMBER'
p1625
S'PLURAL ANTEL NATIONAL ADMINISTRATION FOR TELECOMMUNICATIONS INSTALLATIONS'
p1626
sS'PERP INDIVIDUAL ID'
p1627
S''
sS'INCIDENT STAGE OF EXECUTION'
p1628
S'ACCOMPLISHED'
p1629
sS'HUM TGT DESCRIPTION'
p1630
S''
sS'PHYS TGT EFFECT OF INCIDENT'
p1631
S'DESTROYED ANTEL NATIONAL ADMINISTRATION FOR TELECOMMUNICATIONS INSTALLATIONS'
p1632
sS'HUM TGT FOREIGN NATION'
p1633
S''
sS'INCIDENT DATE'
p1634
S'30 SEP 88'
p1635
sS'MESSAGE TEMPLATE'
p1636
S'1'
sS'PHYS TGT TOTAL NUMBER'
p1637
S''
ssS'TST4MUC40035'
p1638
(dp1639
S'PERP ORGANIZATION CONFIDENCE'
p1640
S''
sS'HUM TGT EFFECT OF INCIDENT'
p1641
S''
sS'INCIDENT LOCATION'
p1642
S''
sS'PHYS TGT ID'
p1643
S''
sS'PERP INCIDENT CATEGORY'
p1644
S''
sS'PERP ORGANIZATION ID'
p1645
S''
sS'HUM TGT TYPE'
p1646
S''
sS'HUM TGT TOTAL NUMBER'
p1647
S''
sS'INCIDENT INSTRUMENT ID'
p1648
S''
sS'INCIDENT INSTRUMENT TYPE'
p1649
S''
sS'PHYS TGT FOREIGN NATION'
p1650
S''
sS'HUM TGT NUMBER'
p1651
S''
sS'PHYS TGT TYPE'
p1652
S''
sS'HUM TGT NAME'
p1653
S''
sS'INCIDENT TYPE'
p1654
S''
sS'PHYS TGT NUMBER'
p1655
S''
sS'PERP INDIVIDUAL ID'
p1656
S''
sS'INCIDENT STAGE OF EXECUTION'
p1657
S''
sS'HUM TGT DESCRIPTION'
p1658
S''
sS'PHYS TGT EFFECT OF INCIDENT'
p1659
S''
sS'HUM TGT FOREIGN NATION'
p1660
S''
sS'INCIDENT DATE'
p1661
S''
sS'MESSAGE TEMPLATE'
p1662
S''
sS'PHYS TGT TOTAL NUMBER'
p1663
S''
ssS'TST4MUC40034'
p1664
(dp1665
S'PERP ORGANIZATION CONFIDENCE'
p1666
S''
sS'HUM TGT EFFECT OF INCIDENT'
p1667
S'NO INJURY OR DEATH NO INJURY ENRIQUE FRANCO'
p1668
sS'INCIDENT LOCATION'
p1669
S'PERU LIMA CITY SAN BORJA NEIGHBORHOOD'
p1670
sS'PHYS TGT ID'
p1671
S'HOME OF A PERUVIAN ARMY GENERAL HOME OF GENERAL ENRIQUE FRANCO'
p1672
sS'PERP INCIDENT CATEGORY'
p1673
S'TERRORIST ACT'
p1674
sS'PERP ORGANIZATION ID'
p1675
S''
sS'HUM TGT TYPE'
p1676
S'ACTIVE MILITARY ENRIQUE FRANCO'
p1677
sS'HUM TGT TOTAL NUMBER'
p1678
S''
sS'INCIDENT INSTRUMENT ID'
p1679
S'BOMB'
p1680
sS'INCIDENT INSTRUMENT TYPE'
p1681
S'BOMB BOMB'
p1682
sS'PHYS TGT FOREIGN NATION'
p1683
S''
sS'HUM TGT NUMBER'
p1684
S'1 ENRIQUE FRANCO'
p1685
sS'GENERALS VEHICLE VEHICLE'
p1686
S''
sS'PHYS TGT TYPE'
p1687
S'OTHER HOME OF A PERUVIAN ARMY GENERAL HOME OF GENERAL ENRIQUE FRANCO'
p1688
sS'HUM TGT NAME'
p1689
S'ENRIQUE FRANCO'
p1690
sS'INCIDENT TYPE'
p1691
S'BOMBING'
p1692
sS'PHYS TGT NUMBER'
p1693
S'1 HOME OF A PERUVIAN ARMY GENERAL HOME OF GENERAL ENRIQUE FRANCO'
p1694
sS'PERP INDIVIDUAL ID'
p1695
S'GROUP OF UNIDENTIFIED INDIVIDUALS UNIDENTIFIED INDIVIDUALS INDIVIDUALS'
p1696
sS'INCIDENT STAGE OF EXECUTION'
p1697
S'ACCOMPLISHED'
p1698
sS'HUM TGT DESCRIPTION'
p1699
S'ARMY GENERAL GENERAL ENRIQUE FRANCO'
p1700
sS'PHYS TGT EFFECT OF INCIDENT'
p1701
S'SOME DAMAGE HOME OF A PERUVIAN ARMY GENERAL HOME OF GENERAL ENRIQUE FRANCO'
p1702
sS'HUM TGT FOREIGN NATION'
p1703
S''
sS'INCIDENT DATE'
p1704
S'09 OCT 88'
p1705
sS'MESSAGE TEMPLATE'
p1706
S'1'
sS'PHYS TGT TOTAL NUMBER'
p1707
S''
ssS'TST4MUC40037'
p1708
(dp1709
S'PERP ORGANIZATION CONFIDENCE'
p1710
S'REPORTED AS FACT FMLN'
p1711
sS'HUM TGT EFFECT OF INCIDENT'
p1712
S''
sS'INCIDENT LOCATION'
p1713
S'EL SALVADOR ILOBASCO JURISDICTION GALERA QUEMADA CANTON'
p1714
sS'PHYS TGT ID'
p1715
S'POWER POLE'
p1716
sS'PERP INCIDENT CATEGORY'
p1717
S'TERRORIST ACT'
p1718
sS'PERP ORGANIZATION ID'
p1719
S'FMLN'
p1720
sS'HUM TGT TYPE'
p1721
S''
sS'HUM TGT TOTAL NUMBER'
p1722
S''
sS'INCIDENT INSTRUMENT ID'
p1723
S''
sS'INCIDENT INSTRUMENT TYPE'
p1724
S'EXPLOSIVE'
p1725
sS'PHYS TGT FOREIGN NATION'
p1726
S''
sS'HUM TGT NUMBER'
p1727
S''
sS'PHYS TGT TYPE'
p1728
S'ENERGY POWER POLE'
p1729
sS'HUM TGT NAME'
p1730
S''
sS'INCIDENT TYPE'
p1731
S'BOMBING'
p1732
sS'PHYS TGT NUMBER'
p1733
S'1 POWER POLE'
p1734
sS'PERP INDIVIDUAL ID'
p1735
S'FMLN GUERRILLAS GUERRILLAS'
p1736
sS'INCIDENT STAGE OF EXECUTION'
p1737
S'ACCOMPLISHED'
p1738
sS'HUM TGT DESCRIPTION'
p1739
S''
sS'PHYS TGT EFFECT OF INCIDENT'
p1740
S'DESTROYED POWER POLE'
p1741
sS'HUM TGT FOREIGN NATION'
p1742
S''
sS'INCIDENT DATE'
p1743
S'12 OCT 88'
p1744
sS'MESSAGE TEMPLATE'
p1745
S'3'
sS'PHYS TGT TOTAL NUMBER'
p1746
S''
ssS'TST4MUC40036'
p1747
(dp1748
S'PERP ORGANIZATION CONFIDENCE'
p1749
S''
sS'HUM TGT EFFECT OF INCIDENT'
p1750
S''
sS'INCIDENT LOCATION'
p1751
S''
sS'PHYS TGT ID'
p1752
S''
sS'PERP INCIDENT CATEGORY'
p1753
S''
sS'PERP ORGANIZATION ID'
p1754
S''
sS'HUM TGT TYPE'
p1755
S''
sS'HUM TGT TOTAL NUMBER'
p1756
S''
sS'INCIDENT INSTRUMENT ID'
p1757
S''
sS'INCIDENT INSTRUMENT TYPE'
p1758
S''
sS'PHYS TGT FOREIGN NATION'
p1759
S''
sS'HUM TGT NUMBER'
p1760
S''
sS'PHYS TGT TYPE'
p1761
S''
sS'HUM TGT NAME'
p1762
S''
sS'INCIDENT TYPE'
p1763
S''
sS'PHYS TGT NUMBER'
p1764
S''
sS'PERP INDIVIDUAL ID'
p1765
S''
sS'INCIDENT STAGE OF EXECUTION'
p1766
S''
sS'HUM TGT DESCRIPTION'
p1767
S''
sS'PHYS TGT EFFECT OF INCIDENT'
p1768
S''
sS'HUM TGT FOREIGN NATION'
p1769
S''
sS'INCIDENT DATE'
p1770
S''
sS'MESSAGE TEMPLATE'
p1771
S''
sS'PHYS TGT TOTAL NUMBER'
p1772
S''
ssS'TST4MUC40031'
p1773
(dp1774
S'PERP ORGANIZATION CONFIDENCE'
p1775
S'SUSPECTED OR ACCUSED REPORTED AS FACT ELN'
p1776
sS'HUM TGT EFFECT OF INCIDENT'
p1777
S''
sS'INCIDENT LOCATION'
p1778
S'COLOMBIA ALTO DE SAN PABLO AREA'
p1779
sS'PHYS TGT ID'
p1780
S'SECTION OF THE MULTIPURPOSE PIPELINE RUNNING FROM BARRANCABERMEJA TO BUCARAMANGA MULTIPURPOSE PIPELINE RUNNING FROM BARRANCABERMEJA TO BUCARAMANGA MULTIPURPOSE PIPELINE BUCARAMANGA BARRANCABERMEJA MULTIPURPOSE PIPELINE 30METER SECTION OF PIPELINE PIPELINE OIL PIPELINE SECTION OF THE MULTIPURPOSE PIPELINE BETWEEN BARRANCABERMEJA AND BUCARAMANGA SECTION OF THE MULTIPURPOSE PIPELINE'
p1781
sS'PERP INCIDENT CATEGORY'
p1782
S'TERRORIST ACT'
p1783
sS'PERP ORGANIZATION ID'
p1784
S'ELN'
p1785
sS'HUM TGT TYPE'
p1786
S''
sS'HUM TGT TOTAL NUMBER'
p1787
S''
sS'INCIDENT INSTRUMENT ID'
p1788
S''
sS'INCIDENT INSTRUMENT TYPE'
p1789
S'DYNAMITE'
p1790
sS'100METER SECTION OF THE CENTRA'
p1791
S'L HIGHWAY SECTION OF THE CENTRAL HIGHWAY CENTRAL HIGHWAY HIGHWAY'
p1792
sS'PHYS TGT FOREIGN NATION'
p1793
S''
sS'HUM TGT NUMBER'
p1794
S''
sS'PHYS TGT TYPE'
p1795
S'ENERGY SECTION OF THE MULTIPURPOSE PIPELINE RUNNING FROM BARRANCABERMEJA TO BUCARAMANGA MULTIPURPOSE PIPELINE RUNNING FROM BARRANCABERMEJA TO BUCARAMANGA MULTIPURPOSE PIPELINE BUCARAMANGA BARRANCABERMEJA MULTIPURPOSE PIPELINE 30METER SECTION OF PIPELINE PIPELINE OIL PIPELINE SECTION OF THE MULTIPURPOSE PIPELINE BETWEEN BARRANCABERMEJA AND BUCARAMANGA SECTION OF THE MULTIPURPOSE PIPELINE'
p1796
sS'HUM TGT NAME'
p1797
S''
sS'INCIDENT TYPE'
p1798
S'BOMBING'
p1799
sS'PHYS TGT NUMBER'
p1800
S'1 SECTION OF THE MULTIPURPOSE PIPELINE RUNNING FROM BARRANCABERMEJA TO BUCARAMANGA MULTIPURPOSE PIPELINE RUNNING FROM BARRANCABERMEJA TO BUCARAMANGA MULTIPURPOSE PIPELINE BUCARAMANGA BARRANCABERMEJA MULTIPURPOSE PIPELINE 30METER SECTION OF PIPELINE PIPELINE OIL PIPELINE SECTION OF THE MULTIPURPOSE PIPELINE BETWEEN BARRANCABERMEJA AND BUCARAMANGA SECTION OF THE MULTIPURPOSE PIPELINE'
p1801
sS'PERP INDIVIDUAL ID'
p1802
S'TERRORIST'
p1803
sS'INCIDENT STAGE OF EXECUTION'
p1804
S'ACCOMPLISHED'
p1805
sS'HUM TGT DESCRIPTION'
p1806
S''
sS'PHYS TGT EFFECT OF INCIDENT'
p1807
S'DESTROYED SECTION OF THE MULTIPURPOSE PIPELINE RUNNING FROM BARRANCABERMEJA TO BUCARAMANGA MULTIPURPOSE PIPELINE RUNNING FROM BARRANCABERMEJA TO BUCARAMANGA MULTIPURPOSE PIPELINE BUCARAMANGA BARRANCABERMEJA MULTIPURPOSE PIPELINE 30METER SECTION OF PIPELINE PIPELINE OIL PIPELINE SECTION OF THE MULTIPURPOSE PIPELINE BETWEEN BARRANCABERMEJA AND BUCARAMANGA SECTION OF THE MULTIPURPOSE PIPELINE'
p1808
sS'HUM TGT FOREIGN NATION'
p1809
S''
sS'INCIDENT DATE'
p1810
S'07 OCT 88'
p1811
sS'MESSAGE TEMPLATE'
p1812
S'1'
sS'PHYS TGT TOTAL NUMBER'
p1813
S''
ssS'TST4MUC40030'
p1814
(dp1815
S'PERP ORGANIZATION CONFIDENCE'
p1816
S''
sS'HUM TGT EFFECT OF INCIDENT'
p1817
S''
sS'INCIDENT LOCATION'
p1818
S''
sS'PHYS TGT ID'
p1819
S''
sS'PERP INCIDENT CATEGORY'
p1820
S''
sS'PERP ORGANIZATION ID'
p1821
S''
sS'HUM TGT TYPE'
p1822
S''
sS'HUM TGT TOTAL NUMBER'
p1823
S''
sS'INCIDENT INSTRUMENT ID'
p1824
S''
sS'INCIDENT INSTRUMENT TYPE'
p1825
S''
sS'PHYS TGT FOREIGN NATION'
p1826
S''
sS'HUM TGT NUMBER'
p1827
S''
sS'PHYS TGT TYPE'
p1828
S''
sS'HUM TGT NAME'
p1829
S''
sS'INCIDENT TYPE'
p1830
S''
sS'PHYS TGT NUMBER'
p1831
S''
sS'PERP INDIVIDUAL ID'
p1832
S''
sS'INCIDENT STAGE OF EXECUTION'
p1833
S''
sS'HUM TGT DESCRIPTION'
p1834
S''
sS'PHYS TGT EFFECT OF INCIDENT'
p1835
S''
sS'HUM TGT FOREIGN NATION'
p1836
S''
sS'INCIDENT DATE'
p1837
S''
sS'MESSAGE TEMPLATE'
p1838
S''
sS'PHYS TGT TOTAL NUMBER'
p1839
S''
ssS'TST4MUC40033'
p1840
(dp1841
S'PERP ORGANIZATION CONFIDENCE'
p1842
S''
sS'HUM TGT EFFECT OF INCIDENT'
p1843
S''
sS'INCIDENT LOCATION'
p1844
S''
sS'PHYS TGT ID'
p1845
S''
sS'PERP INCIDENT CATEGORY'
p1846
S''
sS'PERP ORGANIZATION ID'
p1847
S''
sS'HUM TGT TYPE'
p1848
S''
sS'HUM TGT TOTAL NUMBER'
p1849
S''
sS'INCIDENT INSTRUMENT ID'
p1850
S''
sS'INCIDENT INSTRUMENT TYPE'
p1851
S''
sS'PHYS TGT FOREIGN NATION'
p1852
S''
sS'HUM TGT NUMBER'
p1853
S''
sS'PHYS TGT TYPE'
p1854
S''
sS'HUM TGT NAME'
p1855
S''
sS'INCIDENT TYPE'
p1856
S''
sS'PHYS TGT NUMBER'
p1857
S''
sS'PERP INDIVIDUAL ID'
p1858
S''
sS'INCIDENT STAGE OF EXECUTION'
p1859
S''
sS'HUM TGT DESCRIPTION'
p1860
S''
sS'PHYS TGT EFFECT OF INCIDENT'
p1861
S''
sS'HUM TGT FOREIGN NATION'
p1862
S''
sS'INCIDENT DATE'
p1863
S''
sS'MESSAGE TEMPLATE'
p1864
S''
sS'PHYS TGT TOTAL NUMBER'
p1865
S''
ssS'TST4MUC40032'
p1866
(dp1867
S'PERP ORGANIZATION CONFIDENCE'
p1868
S''
sS'HUM TGT EFFECT OF INCIDENT'
p1869
S'NO INJURY OR DEATH NO DEATH'
p1870
sS'INCIDENT LOCATION'
p1871
S'ARGENTINA CORDOBA CITY BARRIO ALTA NEIGHBORHOOD'
p1872
sS'PHYS TGT ID'
p1873
S'HEADQUARTERS OF THE SHOE INDUSTRY WORKERS UNION'
p1874
sS'PERP INCIDENT CATEGORY'
p1875
S''
sS'PERP ORGANIZATION ID'
p1876
S''
sS'HUM TGT TYPE'
p1877
S''
sS'HUM TGT TOTAL NUMBER'
p1878
S''
sS'INCIDENT INSTRUMENT ID'
p1879
S'SMALL HOMEMADE BOMB HOMEMADE BOMB BOMB'
p1880
sS'INCIDENT INSTRUMENT TYPE'
p1881
S'BOMB SMALL HOMEMADE BOMB HOMEMADE BOMB BOMB'
p1882
sS'PHYS TGT FOREIGN NATION'
p1883
S''
sS'HUM TGT NUMBER'
p1884
S''
sS'PHYS TGT TYPE'
p1885
S'ORGANIZATION OFFICE HEADQUARTERS OF THE SHOE INDUSTRY WORKERS UNION'
p1886
sS'HUM TGT NAME'
p1887
S''
sS'INCIDENT TYPE'
p1888
S'BOMBING'
p1889
sS'PHYS TGT NUMBER'
p1890
S'1 PLURAL HEADQUARTERS OF THE SHOE INDUSTRY WORKERS UNION'
p1891
sS'PERP INDIVIDUAL ID'
p1892
S''
sS'INCIDENT STAGE OF EXECUTION'
p1893
S'ACCOMPLISHED'
p1894
sS'HUM TGT DESCRIPTION'
p1895
S''
sS'PHYS TGT EFFECT OF INCIDENT'
p1896
S'SOME DAMAGE HEADQUARTERS OF THE SHOE INDUSTRY WORKERS UNION'
p1897
sS'HUM TGT FOREIGN NATION'
p1898
S''
sS'INCIDENT DATE'
p1899
S'09 OCT 88'
p1900
sS'MESSAGE TEMPLATE'
p1901
S'1'
sS'PHYS TGT TOTAL NUMBER'
p1902
S''
ssS'TST4MUC40039'
p1903
(dp1904
S'PERP ORGANIZATION CONFIDENCE'
p1905
S''
sS'HUM TGT EFFECT OF INCIDENT'
p1906
S''
sS'INCIDENT LOCATION'
p1907
S''
sS'PHYS TGT ID'
p1908
S''
sS'PERP INCIDENT CATEGORY'
p1909
S''
sS'PERP ORGANIZATION ID'
p1910
S''
sS'HUM TGT TYPE'
p1911
S''
sS'HUM TGT TOTAL NUMBER'
p1912
S''
sS'INCIDENT INSTRUMENT ID'
p1913
S''
sS'INCIDENT INSTRUMENT TYPE'
p1914
S''
sS'PHYS TGT FOREIGN NATION'
p1915
S''
sS'HUM TGT NUMBER'
p1916
S''
sS'PHYS TGT TYPE'
p1917
S''
sS'HUM TGT NAME'
p1918
S''
sS'INCIDENT TYPE'
p1919
S''
sS'PHYS TGT NUMBER'
p1920
S''
sS'PERP INDIVIDUAL ID'
p1921
S''
sS'INCIDENT STAGE OF EXECUTION'
p1922
S''
sS'HUM TGT DESCRIPTION'
p1923
S''
sS'PHYS TGT EFFECT OF INCIDENT'
p1924
S''
sS'HUM TGT FOREIGN NATION'
p1925
S''
sS'INCIDENT DATE'
p1926
S''
sS'MESSAGE TEMPLATE'
p1927
S''
sS'PHYS TGT TOTAL NUMBER'
p1928
S''
ssS'TST4MUC40038'
p1929
(dp1930
S'PERP ORGANIZATION CONFIDENCE'
p1931
S'REPORTED AS FACT EPS'
p1932
sS'HUM TGT EFFECT OF INCIDENT'
p1933
S'REGAINED FREEDOM GUILLERMO SAUL MEJIA HERRERA'
p1934
sS'INCIDENT LOCATION'
p1935
S'HONDURAS'
p1936
sS'PHYS TGT ID'
p1937
S''
sS'PERP INCIDENT CATEGORY'
p1938
S'STATESPONSORED VIOLENCE'
p1939
sS'PERP ORGANIZATION ID'
p1940
S'EPS'
p1941
sS'HUM TGT TYPE'
p1942
S'CIVILIAN ROSALIO MEJIA RODRIGUEZ'
p1943
sS'HUM TGT TOTAL NUMBER'
p1944
S''
sS'INCIDENT INSTRUMENT ID'
p1945
S''
sS'INCIDENT INSTRUMENT TYPE'
p1946
S''
sS'PHYS TGT FOREIGN NATION'
p1947
S''
sS'HUM TGT NUMBER'
p1948
S'1 ROSALIO MEJIA RODRIGUEZ'
p1949
sS'PHYS TGT TYPE'
p1950
S''
sS'HUM TGT NAME'
p1951
S'ROSALIO MEJIA RODRIGUEZ'
p1952
sS'INCIDENT TYPE'
p1953
S'KIDNAPPING'
p1954
sS'PHYS TGT NUMBER'
p1955
S''
sS'PERP INDIVIDUAL ID'
p1956
S'EPS SOLDIERS SOLDIERS EPS TROOPS TROOPS'
p1957
sS'GUILLERMO SAUL MEJIA HERRERA'
p1958
S''
sS'INCIDENT STAGE OF EXECUTION'
p1959
S'ACCOMPLISHED'
p1960
sS'HECTOR ROSALES MEJIA RODRIGUEZ'
p1961
S''
sS'HUM TGT DESCRIPTION'
p1962
S'HER SON SON HIS SON GUILLERMO SAUL MEJIA HERRERA'
p1963
sS'PHYS TGT EFFECT OF INCIDENT'
p1964
S''
sS'HUM TGT FOREIGN NATION'
p1965
S''
sS'INCIDENT DATE'
p1966
S'21 AUG 88'
p1967
sS'MESSAGE TEMPLATE'
p1968
S'1'
sS'PHYS TGT TOTAL NUMBER'
p1969
S''
ssS'TST4MUC40040'
p1970
(dp1971
S'PERP ORGANIZATION CONFIDENCE'
p1972
S'REPORTED AS FACT MANUEL JOSE ARCE URBAN COMMAND'
p1973
sS'HUM TGT EFFECT OF INCIDENT'
p1974
S''
sS'INCIDENT LOCATION'
p1975
S'EL SALVADOR APOPA CITY EL SALVADOR APOPA NEIGHBORHOOD'
p1976
sS'PHYS TGT ID'
p1977
S'LANCER MOTEL'
p1978
sS'PERP INCIDENT CATEGORY'
p1979
S'TERRORIST ACT'
p1980
sS'PERP ORGANIZATION ID'
p1981
S'MANUEL JOSE ARCE URBAN COMMAND'
p1982
sS'HUM TGT TYPE'
p1983
S''
sS'HUM TGT TOTAL NUMBER'
p1984
S''
sS'INCIDENT INSTRUMENT ID'
p1985
S''
sS'INCIDENT INSTRUMENT TYPE'
p1986
S''
sS'PHYS TGT FOREIGN NATION'
p1987
S''
sS'HUM TGT NUMBER'
p1988
S''
sS'PHYS TGT TYPE'
p1989
S'COMMERCIAL LANCER MOTEL'
p1990
sS'HUM TGT NAME'
p1991
S''
sS'INCIDENT TYPE'
p1992
S'ATTACK'
p1993
sS'PHYS TGT NUMBER'
p1994
S'1 LANCER MOTEL'
p1995
sS'PERP INDIVIDUAL ID'
p1996
S''
sS'INCIDENT STAGE OF EXECUTION'
p1997
S'ACCOMPLISHED'
p1998
sS'HUM TGT DESCRIPTION'
p1999
S''
sS'PHYS TGT EFFECT OF INCIDENT'
p2000
S''
sS'HUM TGT FOREIGN NATION'
p2001
S''
sS'INCIDENT DATE'
p2002
S'19 OCT 88'
p2003
sS'MESSAGE TEMPLATE'
p2004
S'3 OPTIONAL'
p2005
sS'PHYS TGT TOTAL NUMBER'
p2006
S''
ssS'TST4MUC40041'
p2007
(dp2008
S'PERP ORGANIZATION CONFIDENCE'
p2009
S''
sS'HUM TGT EFFECT OF INCIDENT'
p2010
S''
sS'INCIDENT LOCATION'
p2011
S''
sS'PHYS TGT ID'
p2012
S''
sS'PERP INCIDENT CATEGORY'
p2013
S''
sS'PERP ORGANIZATION ID'
p2014
S''
sS'HUM TGT TYPE'
p2015
S''
sS'HUM TGT TOTAL NUMBER'
p2016
S''
sS'INCIDENT INSTRUMENT ID'
p2017
S''
sS'INCIDENT INSTRUMENT TYPE'
p2018
S''
sS'PHYS TGT FOREIGN NATION'
p2019
S''
sS'HUM TGT NUMBER'
p2020
S''
sS'PHYS TGT TYPE'
p2021
S''
sS'HUM TGT NAME'
p2022
S''
sS'INCIDENT TYPE'
p2023
S''
sS'PHYS TGT NUMBER'
p2024
S''
sS'PERP INDIVIDUAL ID'
p2025
S''
sS'INCIDENT STAGE OF EXECUTION'
p2026
S''
sS'HUM TGT DESCRIPTION'
p2027
S''
sS'PHYS TGT EFFECT OF INCIDENT'
p2028
S''
sS'HUM TGT FOREIGN NATION'
p2029
S''
sS'INCIDENT DATE'
p2030
S''
sS'MESSAGE TEMPLATE'
p2031
S''
sS'PHYS TGT TOTAL NUMBER'
p2032
S''
ssS'TST4MUC40042'
p2033
(dp2034
S'PERP ORGANIZATION CONFIDENCE'
p2035
S'REPORTED AS FACT FARC'
p2036
sS'HUM TGT EFFECT OF INCIDENT'
p2037
S''
sS'INCIDENT LOCATION'
p2038
S'COLOMBIA'
p2039
sS'PHYS TGT ID'
p2040
S''
sS'PERP INCIDENT CATEGORY'
p2041
S'TERRORIST ACT'
p2042
sS'PERP ORGANIZATION ID'
p2043
S'FARC'
p2044
sS'HUM TGT TYPE'
p2045
S'CIVILIAN WORKERS'
p2046
sS'HUM TGT TOTAL NUMBER'
p2047
S''
sS'INCIDENT INSTRUMENT ID'
p2048
S''
sS'INCIDENT INSTRUMENT TYPE'
p2049
S''
sS'PHYS TGT FOREIGN NATION'
p2050
S''
sS'HUM TGT NUMBER'
p2051
S'PLURAL WORKERS'
p2052
sS'PHYS TGT TYPE'
p2053
S''
sS'HUM TGT NAME'
p2054
S''
sS'INCIDENT TYPE'
p2055
S'FORCED WORK STOPPAGE'
p2056
sS'PHYS TGT NUMBER'
p2057
S''
sS'PERP INDIVIDUAL ID'
p2058
S''
sS'INCIDENT STAGE OF EXECUTION'
p2059
S'THREATENED'
p2060
sS'HUM TGT DESCRIPTION'
p2061
S'WORKERS'
p2062
sS'PHYS TGT EFFECT OF INCIDENT'
p2063
S''
sS'HUM TGT FOREIGN NATION'
p2064
S''
sS'INCIDENT DATE'
p2065
S'24 OCT 88'
p2066
sS'MESSAGE TEMPLATE'
p2067
S'4'
sS'PHYS TGT TOTAL NUMBER'
p2068
S''
ssS'TST4MUC40043'
p2069
(dp2070
S'PERP ORGANIZATION CONFIDENCE'
p2071
S'REPORTED AS FACT SUSPECTED OR ACCUSED SUSPECTED OR ACCUSED BY AUTHORITIES FMLN'
p2072
sS'HUM TGT EFFECT OF INCIDENT'
p2073
S''
sS'INCIDENT LOCATION'
p2074
S'EL SALVADOR'
p2075
sS'PHYS TGT ID'
p2076
S'CHAIN OF WORDS INDISTINCT CHAIN'
p2077
sS'PERP INCIDENT CATEGORY'
p2078
S'TERRORIST ACT'
p2079
sS'PERP ORGANIZATION ID'
p2080
S'FMLN'
p2081
sS'HUM TGT TYPE'
p2082
S''
sS'HUM TGT TOTAL NUMBER'
p2083
S''
sS'INCIDENT INSTRUMENT ID'
p2084
S'CAR BOMBS'
p2085
sS'INCIDENT INSTRUMENT TYPE'
p2086
S'VEHICLE BOMB CAR BOMBS'
p2087
sS'PHYS TGT FOREIGN NATION'
p2088
S''
sS'HUM TGT NUMBER'
p2089
S''
sS'PHYS TGT TYPE'
p2090
S'COMMERCIAL OTHER CHAIN OF WORDS INDISTINCT CHAIN'
p2091
sS'HUM TGT NAME'
p2092
S''
sS'INCIDENT TYPE'
p2093
S'BOMBING'
p2094
sS'PHYS TGT NUMBER'
p2095
S'1 CHAIN OF WORDS INDISTINCT CHAIN'
p2096
sS'PERP INDIVIDUAL ID'
p2097
S''
sS'INCIDENT STAGE OF EXECUTION'
p2098
S'ACCOMPLISHED'
p2099
sS'SHOPPING MALL'
p2100
S''
sS'HUM TGT DESCRIPTION'
p2101
S''
sS'PHYS TGT EFFECT OF INCIDENT'
p2102
S''
sS'HUM TGT FOREIGN NATION'
p2103
S''
sS'INCIDENT DATE'
p2104
S'24 OCT 88'
p2105
sS'MESSAGE TEMPLATE'
p2106
S'1'
sS'PHYS TGT TOTAL NUMBER'
p2107
S''
ssS'TST4MUC40044'
p2108
(dp2109
S'PERP ORGANIZATION CONFIDENCE'
p2110
S'CLAIMED OR ADMITTED POSSIBLE MANUEL RODRIGUEZ PATRIOTIC FRONT FPMR'
p2111
sS'HUM TGT EFFECT OF INCIDENT'
p2112
S''
sS'INCIDENT LOCATION'
p2113
S'CHILE'
p2114
sS'PHYS TGT ID'
p2115
S''
sS'PERP INCIDENT CATEGORY'
p2116
S'TERRORIST ACT'
p2117
sS'PERP ORGANIZATION ID'
p2118
S'MANUEL RODRIGUEZ PATRIOTIC FRONT FPMR'
p2119
sS'HUM TGT TYPE'
p2120
S'GOVERNMENT OFFICIAL AUGUSTO PINOCHET'
p2121
sS'HUM TGT TOTAL NUMBER'
p2122
S''
sS'INCIDENT INSTRUMENT ID'
p2123
S''
sS'INCIDENT INSTRUMENT TYPE'
p2124
S''
sS'PHYS TGT FOREIGN NATION'
p2125
S''
sS'HUM TGT NUMBER'
p2126
S'1 AUGUSTO PINOCHET'
p2127
sS'PHYS TGT TYPE'
p2128
S''
sS'HUM TGT NAME'
p2129
S'AUGUSTO PINOCHET'
p2130
sS'INCIDENT TYPE'
p2131
S'ATTACK'
p2132
sS'PHYS TGT NUMBER'
p2133
S''
sS'PERP INDIVIDUAL ID'
p2134
S'VICTOR DIAZ CARO'
p2135
sS'INCIDENT STAGE OF EXECUTION'
p2136
S'ACCOMPLISHED'
p2137
sS'HUM TGT DESCRIPTION'
p2138
S'PRESIDENT AUGUSTO PINOCHET'
p2139
sS'PHYS TGT EFFECT OF INCIDENT'
p2140
S''
sS'HUM TGT FOREIGN NATION'
p2141
S''
sS'INCIDENT DATE'
p2142
S'16 OCT 88'
p2143
sS'MESSAGE TEMPLATE'
p2144
S'1'
sS'PHYS TGT TOTAL NUMBER'
p2145
S''
ssS'TST4MUC40045'
p2146
(dp2147
S'EMPLOYEES OF THE CIVIL REGISTRY'
p2148
S'OFFICE'
p2149
sS'PERP ORGANIZATION CONFIDENCE'
p2150
S'REPORTED AS FACT EPL POPULAR LIBERATION ARMY'
p2151
sS'HUM TGT EFFECT OF INCIDENT'
p2152
S'DEATH POLICEMEN'
p2153
sS'INCIDENT LOCATION'
p2154
S'COLOMBIA ANTIOQUIA DEPARTMENT JUNTAS DE URAMITA TOWN'
p2155
sS'PHYS TGT ID'
p2156
S'BRIDGE'
p2157
sS'PERP INCIDENT CATEGORY'
p2158
S'TERRORIST ACT'
p2159
sS'PERP ORGANIZATION ID'
p2160
S'EPL POPULAR LIBERATION ARMY'
p2161
sS'HUM TGT TYPE'
p2162
S'LAW ENFORCEMENT POLICEMEN'
p2163
sS'HUM TGT TOTAL NUMBER'
p2164
S''
sS'INCIDENT INSTRUMENT ID'
p2165
S''
sS'INCIDENT INSTRUMENT TYPE'
p2166
S'EXPLOSIVE'
p2167
sS'PHYS TGT FOREIGN NATION'
p2168
S''
sS'HUM TGT NUMBER'
p2169
S'9 POLICEMEN'
p2170
sS'PHYS TGT TYPE'
p2171
S'TRANSPORTATION ROUTE BRIDGE'
p2172
sS'HUM TGT NAME'
p2173
S''
sS'INCIDENT TYPE'
p2174
S'BOMBING'
p2175
sS'PHYS TGT NUMBER'
p2176
S'1 BRIDGE'
p2177
sS'INCIDENT DATE'
p2178
S'25 OCT 88'
p2179
sS'PERP INDIVIDUAL ID'
p2180
S'EPL POPULAR LIBERATION ARMY GUERRILLAS GUERRILLAS'
p2181
sS'INCIDENT STAGE OF EXECUTION'
p2182
S'ACCOMPLISHED'
p2183
sS'HUM TGT DESCRIPTION'
p2184
S'POLICEMEN'
p2185
sS'PHYS TGT EFFECT OF INCIDENT'
p2186
S'DESTROYED BRIDGE'
p2187
sS'HUM TGT FOREIGN NATION'
p2188
S''
sS'CIVILIANS'
p2189
S''
sS'MESSAGE TEMPLATE'
p2190
S'1'
sS'PHYS TGT TOTAL NUMBER'
p2191
S''
ssS'TST4MUC40046'
p2192
(dp2193
S'PERP ORGANIZATION CONFIDENCE'
p2194
S'SUSPECTED OR ACCUSED CLAIMED OR ADMITTED ARMED FORCES'
p2195
sS'HUM TGT EFFECT OF INCIDENT'
p2196
S'DEATH OSCAR ARNULFO ROMERO'
p2197
sS'INCIDENT LOCATION'
p2198
S'EL SALVADOR'
p2199
sS'PHYS TGT ID'
p2200
S''
sS'PERP INCIDENT CATEGORY'
p2201
S'STATESPONSORED VIOLENCE'
p2202
sS'PERP ORGANIZATION ID'
p2203
S'ARMED FORCES'
p2204
sS'HUM TGT TYPE'
p2205
S'CIVILIAN OSCAR ARNULFO ROMERO'
p2206
sS'HUM TGT TOTAL NUMBER'
p2207
S''
sS'INCIDENT INSTRUMENT ID'
p2208
S''
sS'INCIDENT INSTRUMENT TYPE'
p2209
S''
sS'PHYS TGT FOREIGN NATION'
p2210
S''
sS'HUM TGT NUMBER'
p2211
S'1 OSCAR ARNULFO ROMERO'
p2212
sS'PHYS TGT TYPE'
p2213
S''
sS'HUM TGT NAME'
p2214
S'OSCAR ARNULFO ROMERO'
p2215
sS'INCIDENT TYPE'
p2216
S'ATTACK'
p2217
sS'PHYS TGT NUMBER'
p2218
S''
sS'PERP INDIVIDUAL ID'
p2219
S'RIGHTWING MEMBERS SEVERAL RIGHTWING MEMBERS SOME DEATH SQUAD MEMBERS DEATH SQUAD MEMBERS'
p2220
sS'INCIDENT STAGE OF EXECUTION'
p2221
S'ACCOMPLISHED'
p2222
sS'HUM TGT DESCRIPTION'
p2223
S'MSGR OSCAR ARNULFO ROMERO'
p2224
sS'PHYS TGT EFFECT OF INCIDENT'
p2225
S''
sS'HUM TGT FOREIGN NATION'
p2226
S''
sS'INCIDENT DATE'
p2227
S'26 OCT 88'
p2228
sS'MESSAGE TEMPLATE'
p2229
S'1'
sS'PHYS TGT TOTAL NUMBER'
p2230
S''
ssS'TST4MUC40047'
p2231
(dp2232
S'PERP ORGANIZATION CONFIDENCE'
p2233
S''
sS'HUM TGT EFFECT OF INCIDENT'
p2234
S'DEATH CIVILIANS'
p2235
sS'INCIDENT LOCATION'
p2236
S'NICARAGUA'
p2237
sS'PHYS TGT ID'
p2238
S''
sS'PERP INCIDENT CATEGORY'
p2239
S'TERRORIST ACT'
p2240
sS'PERP ORGANIZATION ID'
p2241
S''
sS'HUM TGT TYPE'
p2242
S'CIVILIAN CIVILIANS'
p2243
sS'HUM TGT TOTAL NUMBER'
p2244
S''
sS'INCIDENT INSTRUMENT ID'
p2245
S''
sS'INCIDENT INSTRUMENT TYPE'
p2246
S''
sS'PHYS TGT FOREIGN NATION'
p2247
S''
sS'HUM TGT NUMBER'
p2248
S'5 CIVILIANS'
p2249
sS'PHYS TGT TYPE'
p2250
S''
sS'HUM TGT NAME'
p2251
S''
sS'INCIDENT TYPE'
p2252
S'ATTACK'
p2253
sS'PHYS TGT NUMBER'
p2254
S''
sS'PERP INDIVIDUAL ID'
p2255
S'CONTRAS REBELS'
p2256
sS'INCIDENT STAGE OF EXECUTION'
p2257
S'ACCOMPLISHED'
p2258
sS'HUM TGT DESCRIPTION'
p2259
S'CIVILIANS'
p2260
sS'PHYS TGT EFFECT OF INCIDENT'
p2261
S''
sS'HUM TGT FOREIGN NATION'
p2262
S''
sS'INCIDENT DATE'
p2263
S'27 OCT 88'
p2264
sS'MESSAGE TEMPLATE'
p2265
S'1 OPTIONAL'
p2266
sS'PHYS TGT TOTAL NUMBER'
p2267
S''
ssS'TST4MUC40048'
p2268
(dp2269
S'PERP ORGANIZATION CONFIDENCE'
p2270
S'CLAIMED OR ADMITTED SUSPECTED OR ACCUSED BY AUTHORITIES ARMED FORCES'
p2271
sS'HUM TGT EFFECT OF INCIDENT'
p2272
S'DEATH PATRIOTIC UNION UP MEMBERS'
p2273
sS'INCIDENT LOCATION'
p2274
S'COLOMBIA'
p2275
sS'PHYS TGT ID'
p2276
S''
sS'PERP INCIDENT CATEGORY'
p2277
S'STATESPONSORED VIOLENCE'
p2278
sS'PERP ORGANIZATION ID'
p2279
S'ARMED FORCES'
p2280
sS'HUM TGT TYPE'
p2281
S'CIVILIAN POLITICAL FIGURE PATRIOTIC UNION UP MEMBERS'
p2282
sS'HUM TGT TOTAL NUMBER'
p2283
S''
sS'INCIDENT INSTRUMENT ID'
p2284
S''
sS'INCIDENT INSTRUMENT TYPE'
p2285
S''
sS'PHYS TGT FOREIGN NATION'
p2286
S''
sS'HUM TGT NUMBER'
p2287
S'PLURAL PATRIOTIC UNION UP MEMBERS'
p2288
sS'PHYS TGT TYPE'
p2289
S''
sS'HUM TGT NAME'
p2290
S''
sS'INCIDENT TYPE'
p2291
S'ATTACK'
p2292
sS'PHYS TGT NUMBER'
p2293
S''
sS'PERP INDIVIDUAL ID'
p2294
S'PARAMILITARY DEATH SQUADS DEATH SQUADS'
p2295
sS'INCIDENT STAGE OF EXECUTION'
p2296
S'ACCOMPLISHED'
p2297
sS'HUM TGT DESCRIPTION'
p2298
S'PATRIOTIC UNION UP MEMBERS'
p2299
sS'PHYS TGT EFFECT OF INCIDENT'
p2300
S''
sS'HUM TGT FOREIGN NATION'
p2301
S''
sS'INCIDENT DATE'
p2302
S'29 OCT 88'
p2303
sS'MESSAGE TEMPLATE'
p2304
S'1 OPTIONAL'
p2305
sS'PHYS TGT TOTAL NUMBER'
p2306
S''
ssS'TST4MUC40049'
p2307
(dp2308
S'PERP ORGANIZATION CONFIDENCE'
p2309
S''
sS'HUM TGT EFFECT OF INCIDENT'
p2310
S''
sS'INCIDENT LOCATION'
p2311
S''
sS'PHYS TGT ID'
p2312
S''
sS'PERP INCIDENT CATEGORY'
p2313
S''
sS'PERP ORGANIZATION ID'
p2314
S''
sS'HUM TGT TYPE'
p2315
S''
sS'HUM TGT TOTAL NUMBER'
p2316
S''
sS'INCIDENT INSTRUMENT ID'
p2317
S''
sS'INCIDENT INSTRUMENT TYPE'
p2318
S''
sS'PHYS TGT FOREIGN NATION'
p2319
S''
sS'HUM TGT NUMBER'
p2320
S''
sS'PHYS TGT TYPE'
p2321
S''
sS'HUM TGT NAME'
p2322
S''
sS'INCIDENT TYPE'
p2323
S''
sS'PHYS TGT NUMBER'
p2324
S''
sS'PERP INDIVIDUAL ID'
p2325
S''
sS'INCIDENT STAGE OF EXECUTION'
p2326
S''
sS'HUM TGT DESCRIPTION'
p2327
S''
sS'PHYS TGT EFFECT OF INCIDENT'
p2328
S''
sS'HUM TGT FOREIGN NATION'
p2329
S''
sS'INCIDENT DATE'
p2330
S''
sS'MESSAGE TEMPLATE'
p2331
S''
sS'PHYS TGT TOTAL NUMBER'
p2332
S''
ssS'TST4MUC40053'
p2333
(dp2334
S'PERP ORGANIZATION CONFIDENCE'
p2335
S''
sS'HUM TGT EFFECT OF INCIDENT'
p2336
S''
sS'INCIDENT LOCATION'
p2337
S''
sS'PHYS TGT ID'
p2338
S''
sS'PERP INCIDENT CATEGORY'
p2339
S''
sS'PERP ORGANIZATION ID'
p2340
S''
sS'HUM TGT TYPE'
p2341
S''
sS'HUM TGT TOTAL NUMBER'
p2342
S''
sS'INCIDENT INSTRUMENT ID'
p2343
S''
sS'INCIDENT INSTRUMENT TYPE'
p2344
S''
sS'PHYS TGT FOREIGN NATION'
p2345
S''
sS'HUM TGT NUMBER'
p2346
S''
sS'PHYS TGT TYPE'
p2347
S''
sS'HUM TGT NAME'
p2348
S''
sS'INCIDENT TYPE'
p2349
S''
sS'PHYS TGT NUMBER'
p2350
S''
sS'PERP INDIVIDUAL ID'
p2351
S''
sS'INCIDENT STAGE OF EXECUTION'
p2352
S''
sS'HUM TGT DESCRIPTION'
p2353
S''
sS'PHYS TGT EFFECT OF INCIDENT'
p2354
S''
sS'HUM TGT FOREIGN NATION'
p2355
S''
sS'INCIDENT DATE'
p2356
S''
sS'MESSAGE TEMPLATE'
p2357
S''
sS'PHYS TGT TOTAL NUMBER'
p2358
S''
ssS'TST4MUC40052'
p2359
(dp2360
S'PERP ORGANIZATION CONFIDENCE'
p2361
S''
sS'HUM TGT EFFECT OF INCIDENT'
p2362
S'DEATH RAUL PELLEGRIN'
p2363
sS'INCIDENT LOCATION'
p2364
S'CHILE'
p2365
sS'PHYS TGT ID'
p2366
S''
sS'PERP INCIDENT CATEGORY'
p2367
S''
sS'PERP ORGANIZATION ID'
p2368
S''
sS'HUM TGT TYPE'
p2369
S'POLITICAL FIGURE CIVILIAN RAUL PELLEGRIN'
p2370
sS'HUM TGT TOTAL NUMBER'
p2371
S''
sS'INCIDENT INSTRUMENT ID'
p2372
S''
sS'INCIDENT INSTRUMENT TYPE'
p2373
S''
sS'PHYS TGT FOREIGN NATION'
p2374
S''
sS'HUM TGT NUMBER'
p2375
S'1 RAUL PELLEGRIN'
p2376
sS'PHYS TGT TYPE'
p2377
S''
sS'HUM TGT NAME'
p2378
S'RAUL PELLEGRIN'
p2379
sS'INCIDENT TYPE'
p2380
S'ATTACK'
p2381
sS'PHYS TGT NUMBER'
p2382
S''
sS'PERP INDIVIDUAL ID'
p2383
S''
sS'INCIDENT STAGE OF EXECUTION'
p2384
S'ACCOMPLISHED'
p2385
sS'CECILIA MAGNI'
p2386
S''
sS'HUM TGT DESCRIPTION'
p2387
S'MEMBERS OF THE MANUEL RODRIGUEZ PATRIOTIC FRONT RAUL PELLEGRIN'
p2388
sS'PHYS TGT EFFECT OF INCIDENT'
p2389
S''
sS'HUM TGT FOREIGN NATION'
p2390
S''
sS'INCIDENT DATE'
p2391
S'12 NOV 88'
p2392
sS'MESSAGE TEMPLATE'
p2393
S'1'
sS'PHYS TGT TOTAL NUMBER'
p2394
S''
ssS'TST4MUC40051'
p2395
(dp2396
S'PERP ORGANIZATION CONFIDENCE'
p2397
S''
sS'HUM TGT EFFECT OF INCIDENT'
p2398
S'DEATH CARLOS SOTO SEDICE'
p2399
sS'INCIDENT LOCATION'
p2400
S'PERU PISCO CITY'
p2401
sS'PHYS TGT ID'
p2402
S''
sS'PERP INCIDENT CATEGORY'
p2403
S''
sS'PERP ORGANIZATION ID'
p2404
S''
sS'HUM TGT TYPE'
p2405
S'GOVERNMENT OFFICIAL CARLOS SOTO SEDICE'
p2406
sS'HUM TGT TOTAL NUMBER'
p2407
S''
sS'INCIDENT INSTRUMENT ID'
p2408
S''
sS'INCIDENT INSTRUMENT TYPE'
p2409
S'CUTTING DEVICE'
p2410
sS'PHYS TGT FOREIGN NATION'
p2411
S''
sS'HUM TGT NUMBER'
p2412
S'1 CARLOS SOTO SEDICE'
p2413
sS'PHYS TGT TYPE'
p2414
S''
sS'HUM TGT NAME'
p2415
S'CARLOS SOTO SEDICE'
p2416
sS'INCIDENT TYPE'
p2417
S'ATTACK'
p2418
sS'PHYS TGT NUMBER'
p2419
S''
sS'PERP INDIVIDUAL ID'
p2420
S'FOUR MASKED INDIVIDUALS MASKED INDIVIDUALS INDIVIDUALS CRIMINALS'
p2421
sS'INCIDENT STAGE OF EXECUTION'
p2422
S'ACCOMPLISHED'
p2423
sS'HUM TGT DESCRIPTION'
p2424
S'PISCO DEPUTY PREFECT DEPUTY PREFECT OUTSTANDING APRA LEADER APRA LEADER CARLOS SOTO SEDICE'
p2425
sS'PHYS TGT EFFECT OF INCIDENT'
p2426
S''
sS'HUM TGT FOREIGN NATION'
p2427
S''
sS'INCIDENT DATE'
p2428
S'23 NOV 88'
p2429
sS'MESSAGE TEMPLATE'
p2430
S'1'
sS'PHYS TGT TOTAL NUMBER'
p2431
S''
ssS'TST4MUC40050'
p2432
(dp2433
S'PERP ORGANIZATION CONFIDENCE'
p2434
S''
sS'HUM TGT EFFECT OF INCIDENT'
p2435
S''
sS'INCIDENT LOCATION'
p2436
S''
sS'PHYS TGT ID'
p2437
S''
sS'PERP INCIDENT CATEGORY'
p2438
S''
sS'PERP ORGANIZATION ID'
p2439
S''
sS'HUM TGT TYPE'
p2440
S''
sS'HUM TGT TOTAL NUMBER'
p2441
S''
sS'INCIDENT INSTRUMENT ID'
p2442
S''
sS'INCIDENT INSTRUMENT TYPE'
p2443
S''
sS'PHYS TGT FOREIGN NATION'
p2444
S''
sS'HUM TGT NUMBER'
p2445
S''
sS'PHYS TGT TYPE'
p2446
S''
sS'HUM TGT NAME'
p2447
S''
sS'INCIDENT TYPE'
p2448
S''
sS'PHYS TGT NUMBER'
p2449
S''
sS'PERP INDIVIDUAL ID'
p2450
S''
sS'INCIDENT STAGE OF EXECUTION'
p2451
S''
sS'HUM TGT DESCRIPTION'
p2452
S''
sS'PHYS TGT EFFECT OF INCIDENT'
p2453
S''
sS'HUM TGT FOREIGN NATION'
p2454
S''
sS'INCIDENT DATE'
p2455
S''
sS'MESSAGE TEMPLATE'
p2456
S''
sS'PHYS TGT TOTAL NUMBER'
p2457
S''
ssS'TST4MUC40057'
p2458
(dp2459
S'PERP ORGANIZATION CONFIDENCE'
p2460
S'SUSPECTED OR ACCUSED ARMY ARMED FORCES'
p2461
sS'HUM TGT EFFECT OF INCIDENT'
p2462
S'DEATH PEASANTS'
p2463
sS'INCIDENT LOCATION'
p2464
S'EL SALVADOR MORAZAN DEPARTMENT YAMABAL CANTON EL SALVADOR MORAZAN COUNTY YAMABAL CANTON'
p2465
sS'PHYS TGT ID'
p2466
S''
sS'PERP INCIDENT CATEGORY'
p2467
S'STATESPONSORED VIOLENCE'
p2468
sS'PERP ORGANIZATION ID'
p2469
S'ARMY ARMED FORCES'
p2470
sS'HUM TGT TYPE'
p2471
S'CIVILIAN PEASANTS'
p2472
sS'HUM TGT TOTAL NUMBER'
p2473
S''
sS'INCIDENT INSTRUMENT ID'
p2474
S''
sS'INCIDENT INSTRUMENT TYPE'
p2475
S''
sS'PHYS TGT FOREIGN NATION'
p2476
S''
sS'HUM TGT NUMBER'
p2477
S'3 PEASANTS'
p2478
sS'PHYS TGT TYPE'
p2479
S''
sS'HUM TGT NAME'
p2480
S''
sS'INCIDENT TYPE'
p2481
S'ATTACK'
p2482
sS'PHYS TGT NUMBER'
p2483
S''
sS'PERP INDIVIDUAL ID'
p2484
S'DEATH SQUAD'
p2485
sS'INCIDENT STAGE OF EXECUTION'
p2486
S'ACCOMPLISHED'
p2487
sS'HUM TGT DESCRIPTION'
p2488
S'PEASANTS'
p2489
sS'PHYS TGT EFFECT OF INCIDENT'
p2490
S''
sS'HUM TGT FOREIGN NATION'
p2491
S''
sS'INCIDENT DATE'
p2492
S'12 NOV 88'
p2493
sS'MESSAGE TEMPLATE'
p2494
S'2 OPTIONAL'
p2495
sS'PHYS TGT TOTAL NUMBER'
p2496
S''
ssS'TST4MUC40056'
p2497
(dp2498
S'PERP ORGANIZATION CONFIDENCE'
p2499
S'REPORTED AS FACT VENEZUELAN ARMY ARMY'
p2500
sS'HUM TGT EFFECT OF INCIDENT'
p2501
S'DEATH FISHERMEN PEASANTS OF THE BORDER AREA PEASANTS'
p2502
sS'INCIDENT LOCATION'
p2503
S'VENEZUELA EL AMPARO CITY VENEZUELA EL AMPARO TOWN'
p2504
sS'PHYS TGT ID'
p2505
S''
sS'PERP INCIDENT CATEGORY'
p2506
S'STATESPONSORED VIOLENCE'
p2507
sS'PERP ORGANIZATION ID'
p2508
S'VENEZUELAN ARMY ARMY'
p2509
sS'HUM TGT TYPE'
p2510
S'CIVILIAN FISHERMEN PEASANTS OF THE BORDER AREA PEASANTS'
p2511
sS'HUM TGT TOTAL NUMBER'
p2512
S'14'
p2513
sS'INCIDENT INSTRUMENT ID'
p2514
S''
sS'INCIDENT INSTRUMENT TYPE'
p2515
S'GUN'
p2516
sS'PHYS TGT FOREIGN NATION'
p2517
S''
sS'HUM TGT NUMBER'
p2518
S'14 FISHERMEN PEASANTS OF THE BORDER AREA PEASANTS'
p2519
sS'PHYS TGT TYPE'
p2520
S''
sS'HUM TGT NAME'
p2521
S''
sS'INCIDENT TYPE'
p2522
S'ATTACK'
p2523
sS'PHYS TGT NUMBER'
p2524
S''
sS'PERP INDIVIDUAL ID'
p2525
S'VENEZUELAN MILITARY AUTHORITIES MILITARY AUTHORITIES'
p2526
sS'INCIDENT STAGE OF EXECUTION'
p2527
S'ACCOMPLISHED'
p2528
sS'HUM TGT DESCRIPTION'
p2529
S'FISHERMEN PEASANTS OF THE BORDER AREA PEASANTS'
p2530
sS'PHYS TGT EFFECT OF INCIDENT'
p2531
S''
sS'HUM TGT FOREIGN NATION'
p2532
S'COLOMBIA FISHERMEN PEASANTS OF THE BORDER AREA PEASANTS'
p2533
sS'FISHERMEN PEASANTS OF THE B'
p2534
S'ORDER AREA PEASANTS'
p2535
sS'INCIDENT DATE'
p2536
S'22 OCT 88'
p2537
sS'MESSAGE TEMPLATE'
p2538
S'1'
sS'PHYS TGT TOTAL NUMBER'
p2539
S''
ssS'TST4MUC40055'
p2540
(dp2541
S'PERP ORGANIZATION CONFIDENCE'
p2542
S''
sS'HUM TGT EFFECT OF INCIDENT'
p2543
S''
sS'INCIDENT LOCATION'
p2544
S'PERU LIMA CITY PERU'
p2545
sS'PHYS TGT ID'
p2546
S'ANDRES AVELINO CACERES PARK'
p2547
sS'PERP INCIDENT CATEGORY'
p2548
S''
sS'PERP ORGANIZATION ID'
p2549
S''
sS'HUM TGT TYPE'
p2550
S'GOVERNMENT OFFICIAL ALAN GARCIA'
p2551
sS'HUM TGT TOTAL NUMBER'
p2552
S''
sS'INCIDENT INSTRUMENT ID'
p2553
S'POWERFUL BOMB BOMB'
p2554
sS'INCIDENT INSTRUMENT TYPE'
p2555
S'BOMB POWERFUL BOMB BOMB'
p2556
sS'PHYS TGT FOREIGN NATION'
p2557
S''
sS'HUM TGT NUMBER'
p2558
S'1 ALAN GARCIA'
p2559
sS'PHYS TGT TYPE'
p2560
S'OTHER ANDRES AVELINO CACERES PARK'
p2561
sS'HUM TGT NAME'
p2562
S'ALAN GARCIA'
p2563
sS'INCIDENT TYPE'
p2564
S'BOMBING'
p2565
sS'PHYS TGT NUMBER'
p2566
S'1 ANDRES AVELINO CACERES PARK'
p2567
sS'PERP INDIVIDUAL ID'
p2568
S''
sS'INCIDENT STAGE OF EXECUTION'
p2569
S'ATTEMPTED'
p2570
sS'HUM TGT DESCRIPTION'
p2571
S'PRESIDENT ALAN GARCIA'
p2572
sS'PHYS TGT EFFECT OF INCIDENT'
p2573
S''
sS'HUM TGT FOREIGN NATION'
p2574
S''
sS'INCIDENT DATE'
p2575
S'28 NOV 88 28 NOV 88'
p2576
sS'MESSAGE TEMPLATE'
p2577
S'1'
sS'PHYS TGT TOTAL NUMBER'
p2578
S''
ssS'TST4MUC40054'
p2579
(dp2580
S'PERP ORGANIZATION CONFIDENCE'
p2581
S'REPORTED AS FACT SUSPECTED OR ACCUSED NATIONAL LIBERATION ARMY'
p2582
sS'HUM TGT EFFECT OF INCIDENT'
p2583
S''
sS'INCIDENT LOCATION'
p2584
S'COLOMBIA ANTIOQUIA DEPARTMENT CIUDAD BOLIVAR CITY'
p2585
sS'PHYS TGT ID'
p2586
S'FARMS'
p2587
sS'PERP INCIDENT CATEGORY'
p2588
S'TERRORIST ACT'
p2589
sS'PERP ORGANIZATION ID'
p2590
S'NATIONAL LIBERATION ARMY'
p2591
sS'HUM TGT TYPE'
p2592
S''
sS'HUM TGT TOTAL NUMBER'
p2593
S''
sS'INCIDENT INSTRUMENT ID'
p2594
S'BOMB'
p2595
sS'INCIDENT INSTRUMENT TYPE'
p2596
S'BOMB BOMB'
p2597
sS'PHYS TGT FOREIGN NATION'
p2598
S''
sS'HUM TGT NUMBER'
p2599
S''
sS'PHYS TGT TYPE'
p2600
S'CIVILIAN RESIDENCE OTHER FARMS'
p2601
sS'HUM TGT NAME'
p2602
S''
sS'INCIDENT TYPE'
p2603
S'ATTACK BOMBING'
p2604
sS'PHYS TGT NUMBER'
p2605
S'4 FARMS'
p2606
sS'PERP INDIVIDUAL ID'
p2607
S'INSURGENTS APPARENTLY BELONGING TO THE NATIONAL LIBERATION ARMY INSURGENTS'
p2608
sS'INCIDENT STAGE OF EXECUTION'
p2609
S'ACCOMPLISHED'
p2610
sS'HUM TGT DESCRIPTION'
p2611
S''
sS'PHYS TGT EFFECT OF INCIDENT'
p2612
S'DESTROYED FARMS'
p2613
sS'HUM TGT FOREIGN NATION'
p2614
S''
sS'INCIDENT DATE'
p2615
S'27 NOV 88'
p2616
sS'MESSAGE TEMPLATE'
p2617
S'2 OPTIONAL'
p2618
sS'PHYS TGT TOTAL NUMBER'
p2619
S''
ssS'TST4MUC40059'
p2620
(dp2621
S'PERP ORGANIZATION CONFIDENCE'
p2622
S''
sS'HUM TGT EFFECT OF INCIDENT'
p2623
S''
sS'INCIDENT LOCATION'
p2624
S'COLOMBIA'
p2625
sS'PHYS TGT ID'
p2626
S'POWER TOWERS OF THE NATIONAL ENERGY NETWORK POWER TOWERS'
p2627
sS'PERP INCIDENT CATEGORY'
p2628
S'TERRORIST ACT'
p2629
sS'PERP ORGANIZATION ID'
p2630
S''
sS'HUM TGT TYPE'
p2631
S''
sS'HUM TGT TOTAL NUMBER'
p2632
S''
sS'INCIDENT INSTRUMENT ID'
p2633
S''
sS'INCIDENT INSTRUMENT TYPE'
p2634
S'EXPLOSIVE'
p2635
sS'PHYS TGT FOREIGN NATION'
p2636
S''
sS'HUM TGT NUMBER'
p2637
S''
sS'PHYS TGT TYPE'
p2638
S'ENERGY POWER TOWERS OF THE NATIONAL ENERGY NETWORK POWER TOWERS'
p2639
sS'HUM TGT NAME'
p2640
S''
sS'INCIDENT TYPE'
p2641
S'BOMBING'
p2642
sS'PHYS TGT NUMBER'
p2643
S'7 POWER TOWERS OF THE NATIONAL ENERGY NETWORK POWER TOWERS'
p2644
sS'PERP INDIVIDUAL ID'
p2645
S'TERRORISTS'
p2646
sS'INCIDENT STAGE OF EXECUTION'
p2647
S'ACCOMPLISHED'
p2648
sS'HUM TGT DESCRIPTION'
p2649
S''
sS'PHYS TGT EFFECT OF INCIDENT'
p2650
S'DESTROYED POWER TOWERS OF THE NATIONAL ENERGY NETWORK POWER TOWERS'
p2651
sS'HUM TGT FOREIGN NATION'
p2652
S''
sS'INCIDENT DATE'
p2653
S'31 OCT 88 27 OCT 88'
p2654
sS'MESSAGE TEMPLATE'
p2655
S'1'
sS'PHYS TGT TOTAL NUMBER'
p2656
S''
ssS'TST4MUC40058'
p2657
(dp2658
S'PERP ORGANIZATION CONFIDENCE'
p2659
S'POSSIBLE SHINING PATH'
p2660
sS'HUM TGT EFFECT OF INCIDENT'
p2661
S'INJURY PEOPLE'
p2662
sS'INCIDENT LOCATION'
p2663
S'PERU AYACUCHO CITY'
p2664
sS'PHYS TGT ID'
p2665
S'DANCE HALL'
p2666
sS'PERP INCIDENT CATEGORY'
p2667
S'TERRORIST ACT'
p2668
sS'PERP ORGANIZATION ID'
p2669
S'SHINING PATH'
p2670
sS'HUM TGT TYPE'
p2671
S'CIVILIAN PEOPLE'
p2672
sS'HUM TGT TOTAL NUMBER'
p2673
S'26'
p2674
sS'INCIDENT INSTRUMENT ID'
p2675
S'HOMEMADE BOMB CALLED RUSSIAN CHEESE HOMEMADE BOMB BOMB'
p2676
sS'INCIDENT INSTRUMENT TYPE'
p2677
S'BOMB HOMEMADE BOMB CALLED RUSSIAN CHEESE HOMEMADE BOMB BOMB'
p2678
sS'PHYS TGT FOREIGN NATION'
p2679
S''
sS'HUM TGT NUMBER'
p2680
S'26 PEOPLE'
p2681
sS'PHYS TGT TYPE'
p2682
S'COMMERCIAL OTHER DANCE HALL'
p2683
sS'HUM TGT NAME'
p2684
S''
sS'INCIDENT TYPE'
p2685
S'BOMBING'
p2686
sS'PHYS TGT NUMBER'
p2687
S'1 DANCE HALL'
p2688
sS'POLICEMEN'
p2689
S''
sS'PERP INDIVIDUAL ID'
p2690
S'TERRORISTS'
p2691
sS'INCIDENT STAGE OF EXECUTION'
p2692
S'ACCOMPLISHED'
p2693
sS'HUM TGT DESCRIPTION'
p2694
S'PEOPLE'
p2695
sS'PHYS TGT EFFECT OF INCIDENT'
p2696
S''
sS'HUM TGT FOREIGN NATION'
p2697
S''
sS'INCIDENT DATE'
p2698
S'30 OCT 88'
p2699
sS'MESSAGE TEMPLATE'
p2700
S'1'
sS'PHYS TGT TOTAL NUMBER'
p2701
S''
ssS'TST4MUC40068'
p2702
(dp2703
S'PERP ORGANIZATION CONFIDENCE'
p2704
S'REPORTED AS FACT NATIONAL LIBERATION ARMY ELN'
p2705
sS'HUM TGT EFFECT OF INCIDENT'
p2706
S''
sS'INCIDENT LOCATION'
p2707
S'COLOMBIA MEDELLIN CITY DORADAL TOWN DORADAL TOWN'
p2708
sS'PHYS TGT ID'
p2709
S''
sS'PERP INCIDENT CATEGORY'
p2710
S'TERRORIST ACT'
p2711
sS'PERP ORGANIZATION ID'
p2712
S'NATIONAL LIBERATION ARMY ELN'
p2713
sS'HUM TGT TYPE'
p2714
S'FORMER ACTIVE MILITARY CIVILIAN GOVERNMENT OFFICIAL GUILLERMO RODRIGUEZ VELASQUEZ'
p2715
sS'HUM TGT TOTAL NUMBER'
p2716
S'2'
sS'INCIDENT INSTRUMENT ID'
p2717
S''
sS'INCIDENT INSTRUMENT TYPE'
p2718
S''
sS'PHYS TGT FOREIGN NATION'
p2719
S''
sS'HUM TGT NUMBER'
p2720
S'1 GUILLERMO RODRIGUEZ VELASQUEZ'
p2721
sS'PHYS TGT TYPE'
p2722
S''
sS'HUM TGT NAME'
p2723
S'GUILLERMO RODRIGUEZ VELASQUEZ'
p2724
sS'INCIDENT TYPE'
p2725
S'KIDNAPPING'
p2726
sS'PHYS TGT NUMBER'
p2727
S''
sS'PERP INDIVIDUAL ID'
p2728
S'NATIONAL LIBERATION ARMY ELN GUERRILLAS GUERRILLAS ELN COMMANDO COMMANDO'
p2729
sS'INCIDENT STAGE OF EXECUTION'
p2730
S'ACCOMPLISHED'
p2731
sS'MIGUEL ANTONIO AVILA BARRETO'
p2732
S''
sS'HUM TGT DESCRIPTION'
p2733
S'ANTIOQUIA COLOMBIAN CIVIL DEFENSE DCC COMMANDER MAJOR GUILLERMO RODRIGUEZ VELASQUEZ'
p2734
sS'PHYS TGT EFFECT OF INCIDENT'
p2735
S''
sS'HUM TGT FOREIGN NATION'
p2736
S''
sS'INCIDENT DATE'
p2737
S'06 NOV 88'
p2738
sS'MESSAGE TEMPLATE'
p2739
S'1 OPTIONAL'
p2740
sS'PHYS TGT TOTAL NUMBER'
p2741
S''
ssS'TST4MUC40069'
p2742
(dp2743
S'PERP ORGANIZATION CONFIDENCE'
p2744
S''
sS'HUM TGT EFFECT OF INCIDENT'
p2745
S''
sS'INCIDENT LOCATION'
p2746
S''
sS'PHYS TGT ID'
p2747
S''
sS'PERP INCIDENT CATEGORY'
p2748
S''
sS'PERP ORGANIZATION ID'
p2749
S''
sS'HUM TGT TYPE'
p2750
S''
sS'HUM TGT TOTAL NUMBER'
p2751
S''
sS'INCIDENT INSTRUMENT ID'
p2752
S''
sS'INCIDENT INSTRUMENT TYPE'
p2753
S''
sS'PHYS TGT FOREIGN NATION'
p2754
S''
sS'HUM TGT NUMBER'
p2755
S''
sS'PHYS TGT TYPE'
p2756
S''
sS'HUM TGT NAME'
p2757
S''
sS'INCIDENT TYPE'
p2758
S''
sS'PHYS TGT NUMBER'
p2759
S''
sS'PERP INDIVIDUAL ID'
p2760
S''
sS'INCIDENT STAGE OF EXECUTION'
p2761
S''
sS'HUM TGT DESCRIPTION'
p2762
S''
sS'PHYS TGT EFFECT OF INCIDENT'
p2763
S''
sS'HUM TGT FOREIGN NATION'
p2764
S''
sS'INCIDENT DATE'
p2765
S''
sS'MESSAGE TEMPLATE'
p2766
S''
sS'PHYS TGT TOTAL NUMBER'
p2767
S''
ssS'TST4MUC40066'
p2768
(dp2769
S'PERP ORGANIZATION CONFIDENCE'
p2770
S''
sS'HUM TGT EFFECT OF INCIDENT'
p2771
S'INJURY LUZ LEON'
p2772
sS'INCIDENT LOCATION'
p2773
S'COLOMBIA VILLAVICENCIO CITY'
p2774
sS'PHYS TGT ID'
p2775
S''
sS'PERP INCIDENT CATEGORY'
p2776
S''
sS'PERP ORGANIZATION ID'
p2777
S''
sS'HUM TGT TYPE'
p2778
S'GOVERNMENT OFFICIAL LUZ LEON'
p2779
sS'HUM TGT TOTAL NUMBER'
p2780
S''
sS'INCIDENT INSTRUMENT ID'
p2781
S''
sS'INCIDENT INSTRUMENT TYPE'
p2782
S''
sS'PHYS TGT FOREIGN NATION'
p2783
S''
sS'HUM TGT NUMBER'
p2784
S'1 LUZ LEON'
p2785
sS'PHYS TGT TYPE'
p2786
S''
sS'HUM TGT NAME'
p2787
S'LUZ LEON'
p2788
sS'INCIDENT TYPE'
p2789
S'ATTACK'
p2790
sS'PHYS TGT NUMBER'
p2791
S''
sS'PARMENIDES CUENCA'
p2792
S''
sS'PERP INDIVIDUAL ID'
p2793
S''
sS'INCIDENT STAGE OF EXECUTION'
p2794
S'ACCOMPLISHED'
p2795
sS'HUM TGT DESCRIPTION'
p2796
S'PATRIOTIC UNION UP COUNCILWOMAN FOR META DEPARTMENT PATRIOTIC UNION UP COUNCILWOMAN COUNCILWOMAN LUZ LEON'
p2797
sS'PHYS TGT EFFECT OF INCIDENT'
p2798
S''
sS'HUM TGT FOREIGN NATION'
p2799
S''
sS'INCIDENT DATE'
p2800
S'05 NOV 88'
p2801
sS'MESSAGE TEMPLATE'
p2802
S'1'
sS'PHYS TGT TOTAL NUMBER'
p2803
S''
ssS'TST4MUC40067'
p2804
(dp2805
S'PERP ORGANIZATION CONFIDENCE'
p2806
S''
sS'HUM TGT EFFECT OF INCIDENT'
p2807
S''
sS'INCIDENT LOCATION'
p2808
S''
sS'PHYS TGT ID'
p2809
S''
sS'PERP INCIDENT CATEGORY'
p2810
S''
sS'PERP ORGANIZATION ID'
p2811
S''
sS'HUM TGT TYPE'
p2812
S''
sS'HUM TGT TOTAL NUMBER'
p2813
S''
sS'INCIDENT INSTRUMENT ID'
p2814
S''
sS'INCIDENT INSTRUMENT TYPE'
p2815
S''
sS'PHYS TGT FOREIGN NATION'
p2816
S''
sS'HUM TGT NUMBER'
p2817
S''
sS'PHYS TGT TYPE'
p2818
S''
sS'HUM TGT NAME'
p2819
S''
sS'INCIDENT TYPE'
p2820
S''
sS'PHYS TGT NUMBER'
p2821
S''
sS'PERP INDIVIDUAL ID'
p2822
S''
sS'INCIDENT STAGE OF EXECUTION'
p2823
S''
sS'HUM TGT DESCRIPTION'
p2824
S''
sS'PHYS TGT EFFECT OF INCIDENT'
p2825
S''
sS'HUM TGT FOREIGN NATION'
p2826
S''
sS'INCIDENT DATE'
p2827
S''
sS'MESSAGE TEMPLATE'
p2828
S''
sS'PHYS TGT TOTAL NUMBER'
p2829
S''
ssS'TST4MUC40064'
p2830
(dp2831
S'PERP ORGANIZATION CONFIDENCE'
p2832
S''
sS'HUM TGT EFFECT OF INCIDENT'
p2833
S''
sS'INCIDENT LOCATION'
p2834
S''
sS'PHYS TGT ID'
p2835
S''
sS'PERP INCIDENT CATEGORY'
p2836
S''
sS'PERP ORGANIZATION ID'
p2837
S''
sS'HUM TGT TYPE'
p2838
S''
sS'HUM TGT TOTAL NUMBER'
p2839
S''
sS'INCIDENT INSTRUMENT ID'
p2840
S''
sS'INCIDENT INSTRUMENT TYPE'
p2841
S''
sS'PHYS TGT FOREIGN NATION'
p2842
S''
sS'HUM TGT NUMBER'
p2843
S''
sS'PHYS TGT TYPE'
p2844
S''
sS'HUM TGT NAME'
p2845
S''
sS'INCIDENT TYPE'
p2846
S''
sS'PHYS TGT NUMBER'
p2847
S''
sS'PERP INDIVIDUAL ID'
p2848
S''
sS'INCIDENT STAGE OF EXECUTION'
p2849
S''
sS'HUM TGT DESCRIPTION'
p2850
S''
sS'PHYS TGT EFFECT OF INCIDENT'
p2851
S''
sS'HUM TGT FOREIGN NATION'
p2852
S''
sS'INCIDENT DATE'
p2853
S''
sS'MESSAGE TEMPLATE'
p2854
S''
sS'PHYS TGT TOTAL NUMBER'
p2855
S''
ssS'TST4MUC40065'
p2856
(dp2857
S'PERP ORGANIZATION CONFIDENCE'
p2858
S''
sS'HUM TGT EFFECT OF INCIDENT'
p2859
S''
sS'INCIDENT LOCATION'
p2860
S''
sS'PHYS TGT ID'
p2861
S''
sS'PERP INCIDENT CATEGORY'
p2862
S''
sS'PERP ORGANIZATION ID'
p2863
S''
sS'HUM TGT TYPE'
p2864
S''
sS'HUM TGT TOTAL NUMBER'
p2865
S''
sS'INCIDENT INSTRUMENT ID'
p2866
S''
sS'INCIDENT INSTRUMENT TYPE'
p2867
S''
sS'PHYS TGT FOREIGN NATION'
p2868
S''
sS'HUM TGT NUMBER'
p2869
S''
sS'PHYS TGT TYPE'
p2870
S''
sS'HUM TGT NAME'
p2871
S''
sS'INCIDENT TYPE'
p2872
S''
sS'PHYS TGT NUMBER'
p2873
S''
sS'PERP INDIVIDUAL ID'
p2874
S''
sS'INCIDENT STAGE OF EXECUTION'
p2875
S''
sS'HUM TGT DESCRIPTION'
p2876
S''
sS'PHYS TGT EFFECT OF INCIDENT'
p2877
S''
sS'HUM TGT FOREIGN NATION'
p2878
S''
sS'INCIDENT DATE'
p2879
S''
sS'MESSAGE TEMPLATE'
p2880
S''
sS'PHYS TGT TOTAL NUMBER'
p2881
S''
ssS'TST4MUC40062'
p2882
(dp2883
S'PERP ORGANIZATION CONFIDENCE'
p2884
S''
sS'HUM TGT EFFECT OF INCIDENT'
p2885
S''
sS'INCIDENT LOCATION'
p2886
S''
sS'PHYS TGT ID'
p2887
S''
sS'PERP INCIDENT CATEGORY'
p2888
S''
sS'PERP ORGANIZATION ID'
p2889
S''
sS'HUM TGT TYPE'
p2890
S''
sS'HUM TGT TOTAL NUMBER'
p2891
S''
sS'INCIDENT INSTRUMENT ID'
p2892
S''
sS'INCIDENT INSTRUMENT TYPE'
p2893
S''
sS'PHYS TGT FOREIGN NATION'
p2894
S''
sS'HUM TGT NUMBER'
p2895
S''
sS'PHYS TGT TYPE'
p2896
S''
sS'HUM TGT NAME'
p2897
S''
sS'INCIDENT TYPE'
p2898
S''
sS'PHYS TGT NUMBER'
p2899
S''
sS'PERP INDIVIDUAL ID'
p2900
S''
sS'INCIDENT STAGE OF EXECUTION'
p2901
S''
sS'HUM TGT DESCRIPTION'
p2902
S''
sS'PHYS TGT EFFECT OF INCIDENT'
p2903
S''
sS'HUM TGT FOREIGN NATION'
p2904
S''
sS'INCIDENT DATE'
p2905
S''
sS'MESSAGE TEMPLATE'
p2906
S''
sS'PHYS TGT TOTAL NUMBER'
p2907
S''
ssS'TST4MUC40063'
p2908
(dp2909
S'PERP ORGANIZATION CONFIDENCE'
p2910
S'REPORTED AS FACT FMLN'
p2911
sS'HUM TGT EFFECT OF INCIDENT'
p2912
S'NO INJURY OR DEATH NO DEATH'
p2913
sS'INCIDENT LOCATION'
p2914
S'EL SALVADOR DULCE NOMBRE DE MARIA CITY'
p2915
sS'PHYS TGT ID'
p2916
S'ANTEL NATIONAL ADMINISTRATION FOR TELECOMMUNICATIONS OFFICE'
p2917
sS'PERP INCIDENT CATEGORY'
p2918
S'TERRORIST ACT'
p2919
sS'PERP ORGANIZATION ID'
p2920
S'FMLN'
p2921
sS'HUM TGT TYPE'
p2922
S''
sS'HUM TGT TOTAL NUMBER'
p2923
S''
sS'INCIDENT INSTRUMENT ID'
p2924
S''
sS'INCIDENT INSTRUMENT TYPE'
p2925
S'DYNAMITE'
p2926
sS'PHYS TGT FOREIGN NATION'
p2927
S''
sS'HUM TGT NUMBER'
p2928
S''
sS'PHYS TGT TYPE'
p2929
S'COMMUNICATIONS ANTEL NATIONAL ADMINISTRATION FOR TELECOMMUNICATIONS OFFICE'
p2930
sS'HUM TGT NAME'
p2931
S''
sS'INCIDENT TYPE'
p2932
S'BOMBING'
p2933
sS'PHYS TGT NUMBER'
p2934
S'1 ANTEL NATIONAL ADMINISTRATION FOR TELECOMMUNICATIONS OFFICE'
p2935
sS'PERP INDIVIDUAL ID'
p2936
S'LARGE GROUP OF REBELS REBELS GROUP OF REBELS'
p2937
sS'INCIDENT STAGE OF EXECUTION'
p2938
S'ACCOMPLISHED'
p2939
sS'HUM TGT DESCRIPTION'
p2940
S''
sS'COMMUNITY CENTER'
p2941
S''
sS'PHYS TGT EFFECT OF INCIDENT'
p2942
S''
sS'HUM TGT FOREIGN NATION'
p2943
S''
sS'INCIDENT DATE'
p2944
S'01 NOV 88'
p2945
sS'MESSAGE TEMPLATE'
p2946
S'1'
sS'PHYS TGT TOTAL NUMBER'
p2947
S''
ssS'TST4MUC40060'
p2948
(dp2949
S'PERP ORGANIZATION CONFIDENCE'
p2950
S''
sS'HUM TGT EFFECT OF INCIDENT'
p2951
S''
sS'INCIDENT LOCATION'
p2952
S''
sS'PHYS TGT ID'
p2953
S''
sS'PERP INCIDENT CATEGORY'
p2954
S''
sS'PERP ORGANIZATION ID'
p2955
S''
sS'HUM TGT TYPE'
p2956
S''
sS'HUM TGT TOTAL NUMBER'
p2957
S''
sS'INCIDENT INSTRUMENT ID'
p2958
S''
sS'INCIDENT INSTRUMENT TYPE'
p2959
S''
sS'PHYS TGT FOREIGN NATION'
p2960
S''
sS'HUM TGT NUMBER'
p2961
S''
sS'PHYS TGT TYPE'
p2962
S''
sS'HUM TGT NAME'
p2963
S''
sS'INCIDENT TYPE'
p2964
S''
sS'PHYS TGT NUMBER'
p2965
S''
sS'PERP INDIVIDUAL ID'
p2966
S''
sS'INCIDENT STAGE OF EXECUTION'
p2967
S''
sS'HUM TGT DESCRIPTION'
p2968
S''
sS'PHYS TGT EFFECT OF INCIDENT'
p2969
S''
sS'HUM TGT FOREIGN NATION'
p2970
S''
sS'INCIDENT DATE'
p2971
S''
sS'MESSAGE TEMPLATE'
p2972
S''
sS'PHYS TGT TOTAL NUMBER'
p2973
S''
ssS'TST4MUC40061'
p2974
(dp2975
S'PERP ORGANIZATION CONFIDENCE'
p2976
S'REPORTED AS FACT FMLN'
p2977
sS'HUM TGT EFFECT OF INCIDENT'
p2978
S'DEATH PEOPLE'
p2979
sS'NEARBY HOUSE HOUSE'
p2980
S''
sS'INCIDENT LOCATION'
p2981
S'EL SALVADOR APOPA CITY EL SALVADOR APOPA NEIGHBORHOOD'
p2982
sS'PHYS TGT ID'
p2983
S'EL ANGEL SUGAR MILL ADMINISTRATIVE OFFICES OF THE SUGAR MILL'
p2984
sS'PERP INCIDENT CATEGORY'
p2985
S'TERRORIST ACT'
p2986
sS'PERP ORGANIZATION ID'
p2987
S'FMLN'
p2988
sS'HUM TGT TYPE'
p2989
S'CIVILIAN PEOPLE'
p2990
sS'HUM TGT TOTAL NUMBER'
p2991
S''
sS'INCIDENT INSTRUMENT ID'
p2992
S'RIFLES'
p2993
sS'INCIDENT INSTRUMENT TYPE'
p2994
S'RIFLE RIFLES'
p2995
sS'PHYS TGT FOREIGN NATION'
p2996
S''
sS'HUM TGT NUMBER'
p2997
S'2 PEOPLE'
p2998
sS'4 PEOPLE'
p2999
S''
sS'PHYS TGT TYPE'
p3000
S'COMMERCIAL EL ANGEL SUGAR MILL ADMINISTRATIVE OFFICES OF THE SUGAR MILL'
p3001
sS'HUM TGT NAME'
p3002
S''
sS'INCIDENT TYPE'
p3003
S'ATTACK'
p3004
sS'PHYS TGT NUMBER'
p3005
S'1 PLURAL EL ANGEL SUGAR MILL ADMINISTRATIVE OFFICES OF THE SUGAR MILL'
p3006
sS'PERP INDIVIDUAL ID'
p3007
S'ABOUT 50 GUERRILLAS 50 GUERRILLAS GUERRILLAS INSURGENTS'
p3008
sS'INCIDENT STAGE OF EXECUTION'
p3009
S'ACCOMPLISHED'
p3010
sS'HUM TGT DESCRIPTION'
p3011
S'PEOPLE'
p3012
sS'PHYS TGT EFFECT OF INCIDENT'
p3013
S'SOME DAMAGE EL ANGEL SUGAR MILL ADMINISTRATIVE OFFICES OF THE SUGAR MILL'
p3014
sS'HUM TGT FOREIGN NATION'
p3015
S''
sS'INCIDENT DATE'
p3016
S'02 NOV 88'
p3017
sS'MESSAGE TEMPLATE'
p3018
S'1'
sS'PHYS TGT TOTAL NUMBER'
p3019
S''
ssS'TST4MUC40100'
p3020
(dp3021
S'PERP ORGANIZATION CONFIDENCE'
p3022
S''
sS'HUM TGT EFFECT OF INCIDENT'
p3023
S''
sS'INCIDENT LOCATION'
p3024
S''
sS'PHYS TGT ID'
p3025
S''
sS'PERP INCIDENT CATEGORY'
p3026
S''
sS'PERP ORGANIZATION ID'
p3027
S''
sS'HUM TGT TYPE'
p3028
S''
sS'HUM TGT TOTAL NUMBER'
p3029
S''
sS'INCIDENT INSTRUMENT ID'
p3030
S''
sS'INCIDENT INSTRUMENT TYPE'
p3031
S''
sS'PHYS TGT FOREIGN NATION'
p3032
S''
sS'HUM TGT NUMBER'
p3033
S''
sS'PHYS TGT TYPE'
p3034
S''
sS'HUM TGT NAME'
p3035
S''
sS'INCIDENT TYPE'
p3036
S''
sS'PHYS TGT NUMBER'
p3037
S''
sS'PERP INDIVIDUAL ID'
p3038
S''
sS'INCIDENT STAGE OF EXECUTION'
p3039
S''
sS'HUM TGT DESCRIPTION'
p3040
S''
sS'PHYS TGT EFFECT OF INCIDENT'
p3041
S''
sS'HUM TGT FOREIGN NATION'
p3042
S''
sS'INCIDENT DATE'
p3043
S''
sS'MESSAGE TEMPLATE'
p3044
S''
sS'PHYS TGT TOTAL NUMBER'
p3045
S''
ssS'TST4MUC40079'
p3046
(dp3047
S'PERP ORGANIZATION CONFIDENCE'
p3048
S''
sS'HUM TGT EFFECT OF INCIDENT'
p3049
S''
sS'INCIDENT LOCATION'
p3050
S''
sS'PHYS TGT ID'
p3051
S''
sS'PERP INCIDENT CATEGORY'
p3052
S''
sS'PERP ORGANIZATION ID'
p3053
S''
sS'HUM TGT TYPE'
p3054
S''
sS'HUM TGT TOTAL NUMBER'
p3055
S''
sS'INCIDENT INSTRUMENT ID'
p3056
S''
sS'INCIDENT INSTRUMENT TYPE'
p3057
S''
sS'PHYS TGT FOREIGN NATION'
p3058
S''
sS'HUM TGT NUMBER'
p3059
S''
sS'PHYS TGT TYPE'
p3060
S''
sS'HUM TGT NAME'
p3061
S''
sS'INCIDENT TYPE'
p3062
S''
sS'PHYS TGT NUMBER'
p3063
S''
sS'PERP INDIVIDUAL ID'
p3064
S''
sS'INCIDENT STAGE OF EXECUTION'
p3065
S''
sS'HUM TGT DESCRIPTION'
p3066
S''
sS'PHYS TGT EFFECT OF INCIDENT'
p3067
S''
sS'HUM TGT FOREIGN NATION'
p3068
S''
sS'INCIDENT DATE'
p3069
S''
sS'MESSAGE TEMPLATE'
p3070
S''
sS'PHYS TGT TOTAL NUMBER'
p3071
S''
ssS'TST4MUC40078'
p3072
(dp3073
S'PERP ORGANIZATION CONFIDENCE'
p3074
S'REPORTED AS FACT FMLN'
p3075
sS'HUM TGT EFFECT OF INCIDENT'
p3076
S'DEATH PEOPLE'
p3077
sS'INCIDENT LOCATION'
p3078
S'EL SALVADOR'
p3079
sS'PHYS TGT ID'
p3080
S'TRAINS BELONGING TO THE SALVADORAN NATIONAL RAILROAD FENADESAL TRAINS BELONGING TO THE SALVADORAN NATIONAL RAILROAD TRAINS'
p3081
sS'PERP INCIDENT CATEGORY'
p3082
S'TERRORIST ACT'
p3083
sS'PERP ORGANIZATION ID'
p3084
S'FMLN'
p3085
sS'HUM TGT TYPE'
p3086
S'CIVILIAN PEOPLE'
p3087
sS'HUM TGT TOTAL NUMBER'
p3088
S''
sS'INCIDENT INSTRUMENT ID'
p3089
S'MINE'
p3090
sS'INCIDENT INSTRUMENT TYPE'
p3091
S'MINE MINE'
p3092
sS'PHYS TGT FOREIGN NATION'
p3093
S''
sS'HUM TGT NUMBER'
p3094
S'6 PEOPLE'
p3095
sS'PHYS TGT TYPE'
p3096
S'TRANSPORT VEHICLE TRAINS BELONGING TO THE SALVADORAN NATIONAL RAILROAD FENADESAL TRAINS BELONGING TO THE SALVADORAN NATIONAL RAILROAD TRAINS'
p3097
sS'HUM TGT NAME'
p3098
S''
sS'INCIDENT TYPE'
p3099
S'BOMBING'
p3100
sS'PHYS TGT NUMBER'
p3101
S'4 TRAINS BELONGING TO THE SALVADORAN NATIONAL RAILROAD FENADESAL TRAINS BELONGING TO THE SALVADORAN NATIONAL RAILROAD TRAINS'
p3102
sS'PERP INDIVIDUAL ID'
p3103
S'GUERRILLAS FMLN GUERRILLAS FMLN REBELS REBELS'
p3104
sS'INCIDENT STAGE OF EXECUTION'
p3105
S'ACCOMPLISHED'
p3106
sS'HUM TGT DESCRIPTION'
p3107
S'PEOPLE'
p3108
sS'PEOPLE OTHERS'
p3109
S''
sS'PHYS TGT EFFECT OF INCIDENT'
p3110
S'DESTROYED TRAINS BELONGING TO THE SALVADORAN NATIONAL RAILROAD FENADESAL TRAINS BELONGING TO THE SALVADORAN NATIONAL RAILROAD TRAINS'
p3111
sS'HUM TGT FOREIGN NATION'
p3112
S''
sS'INCIDENT DATE'
p3113
S'01 NOV 88 30 NOV 88'
p3114
sS'MESSAGE TEMPLATE'
p3115
S'3 OPTIONAL'
p3116
sS'PHYS TGT TOTAL NUMBER'
p3117
S''
ssS'TST4MUC40071'
p3118
(dp3119
S'PERP ORGANIZATION CONFIDENCE'
p3120
S'REPORTED AS FACT VENEZUELAN ARMED FORCES VENEZUELAN ARMY'
p3121
sS'HUM TGT EFFECT OF INCIDENT'
p3122
S'DEATH JOSE ANTONIO AREGUA'
p3123
sS'FISHERMEN VENEZUELAN CITIZ'
p3124
S'ENS'
p3125
sS'INCIDENT LOCATION'
p3126
S'COLOMBIA ARAUCA DEPARTMENT CANO COLORADA TOWN'
p3127
sS'PHYS TGT ID'
p3128
S''
sS'PERP INCIDENT CATEGORY'
p3129
S'STATESPONSORED VIOLENCE'
p3130
sS'PERP ORGANIZATION ID'
p3131
S'VENEZUELAN ARMED FORCES VENEZUELAN ARMY'
p3132
sS'JUSTO PASTOR CEBALLOS'
p3133
S''
sS'HUM TGT TYPE'
p3134
S'CIVILIAN JOSE ANTONIO AREGUA'
p3135
sS'HUM TGT TOTAL NUMBER'
p3136
S'14'
p3137
sS'INCIDENT INSTRUMENT ID'
p3138
S''
sS'INCIDENT INSTRUMENT TYPE'
p3139
S''
sS'PHYS TGT FOREIGN NATION'
p3140
S''
sS'HUM TGT NUMBER'
p3141
S'1 JOSE ANTONIO AREGUA'
p3142
sS'PHYS TGT TYPE'
p3143
S''
sS'HUM TGT NAME'
p3144
S'JOSE ANTONIO AREGUA'
p3145
sS'INCIDENT TYPE'
p3146
S'ATTACK'
p3147
sS'PHYS TGT NUMBER'
p3148
S''
sS'PERP INDIVIDUAL ID'
p3149
S'TWO SURVIVORS SUBVERSIVES'
p3150
sS'INCIDENT STAGE OF EXECUTION'
p3151
S'ACCOMPLISHED'
p3152
sS'HUM TGT DESCRIPTION'
p3153
S'FISHERMEN JOSE ANTONIO AREGUA'
p3154
sS'PHYS TGT EFFECT OF INCIDENT'
p3155
S''
sS'HUM TGT FOREIGN NATION'
p3156
S'VENEZUELA FISHERMEN VENEZUELAN CITIZENS'
p3157
sS'INCIDENT DATE'
p3158
S'29 OCT 88'
p3159
sS'MESSAGE TEMPLATE'
p3160
S'1'
sS'PHYS TGT TOTAL NUMBER'
p3161
S''
ssS'TST4MUC40070'
p3162
(dp3163
S'PERP ORGANIZATION CONFIDENCE'
p3164
S''
sS'HUM TGT EFFECT OF INCIDENT'
p3165
S''
sS'INCIDENT LOCATION'
p3166
S''
sS'PHYS TGT ID'
p3167
S''
sS'PERP INCIDENT CATEGORY'
p3168
S''
sS'PERP ORGANIZATION ID'
p3169
S''
sS'HUM TGT TYPE'
p3170
S''
sS'HUM TGT TOTAL NUMBER'
p3171
S''
sS'INCIDENT INSTRUMENT ID'
p3172
S''
sS'INCIDENT INSTRUMENT TYPE'
p3173
S''
sS'PHYS TGT FOREIGN NATION'
p3174
S''
sS'HUM TGT NUMBER'
p3175
S''
sS'PHYS TGT TYPE'
p3176
S''
sS'HUM TGT NAME'
p3177
S''
sS'INCIDENT TYPE'
p3178
S''
sS'PHYS TGT NUMBER'
p3179
S''
sS'PERP INDIVIDUAL ID'
p3180
S''
sS'INCIDENT STAGE OF EXECUTION'
p3181
S''
sS'HUM TGT DESCRIPTION'
p3182
S''
sS'PHYS TGT EFFECT OF INCIDENT'
p3183
S''
sS'HUM TGT FOREIGN NATION'
p3184
S''
sS'INCIDENT DATE'
p3185
S''
sS'MESSAGE TEMPLATE'
p3186
S''
sS'PHYS TGT TOTAL NUMBER'
p3187
S''
ssS'TST4MUC40073'
p3188
(dp3189
S'PERP ORGANIZATION CONFIDENCE'
p3190
S''
sS'HUM TGT EFFECT OF INCIDENT'
p3191
S''
sS'INCIDENT LOCATION'
p3192
S''
sS'PHYS TGT ID'
p3193
S''
sS'PERP INCIDENT CATEGORY'
p3194
S''
sS'PERP ORGANIZATION ID'
p3195
S''
sS'HUM TGT TYPE'
p3196
S''
sS'HUM TGT TOTAL NUMBER'
p3197
S''
sS'INCIDENT INSTRUMENT ID'
p3198
S''
sS'INCIDENT INSTRUMENT TYPE'
p3199
S''
sS'PHYS TGT FOREIGN NATION'
p3200
S''
sS'HUM TGT NUMBER'
p3201
S''
sS'PHYS TGT TYPE'
p3202
S''
sS'HUM TGT NAME'
p3203
S''
sS'INCIDENT TYPE'
p3204
S''
sS'PHYS TGT NUMBER'
p3205
S''
sS'PERP INDIVIDUAL ID'
p3206
S''
sS'INCIDENT STAGE OF EXECUTION'
p3207
S''
sS'HUM TGT DESCRIPTION'
p3208
S''
sS'PHYS TGT EFFECT OF INCIDENT'
p3209
S''
sS'HUM TGT FOREIGN NATION'
p3210
S''
sS'INCIDENT DATE'
p3211
S''
sS'MESSAGE TEMPLATE'
p3212
S''
sS'PHYS TGT TOTAL NUMBER'
p3213
S''
ssS'TST4MUC40072'
p3214
(dp3215
S'PERP ORGANIZATION CONFIDENCE'
p3216
S''
sS'HUM TGT EFFECT OF INCIDENT'
p3217
S''
sS'INCIDENT LOCATION'
p3218
S''
sS'PHYS TGT ID'
p3219
S''
sS'PERP INCIDENT CATEGORY'
p3220
S''
sS'PERP ORGANIZATION ID'
p3221
S''
sS'HUM TGT TYPE'
p3222
S''
sS'HUM TGT TOTAL NUMBER'
p3223
S''
sS'INCIDENT INSTRUMENT ID'
p3224
S''
sS'INCIDENT INSTRUMENT TYPE'
p3225
S''
sS'PHYS TGT FOREIGN NATION'
p3226
S''
sS'HUM TGT NUMBER'
p3227
S''
sS'PHYS TGT TYPE'
p3228
S''
sS'HUM TGT NAME'
p3229
S''
sS'INCIDENT TYPE'
p3230
S''
sS'PHYS TGT NUMBER'
p3231
S''
sS'PERP INDIVIDUAL ID'
p3232
S''
sS'INCIDENT STAGE OF EXECUTION'
p3233
S''
sS'HUM TGT DESCRIPTION'
p3234
S''
sS'PHYS TGT EFFECT OF INCIDENT'
p3235
S''
sS'HUM TGT FOREIGN NATION'
p3236
S''
sS'INCIDENT DATE'
p3237
S''
sS'MESSAGE TEMPLATE'
p3238
S''
sS'PHYS TGT TOTAL NUMBER'
p3239
S''
ssS'TST4MUC40075'
p3240
(dp3241
S'PERP ORGANIZATION CONFIDENCE'
p3242
S''
sS'HUM TGT EFFECT OF INCIDENT'
p3243
S''
sS'INCIDENT LOCATION'
p3244
S''
sS'PHYS TGT ID'
p3245
S''
sS'PERP INCIDENT CATEGORY'
p3246
S''
sS'PERP ORGANIZATION ID'
p3247
S''
sS'HUM TGT TYPE'
p3248
S''
sS'HUM TGT TOTAL NUMBER'
p3249
S''
sS'INCIDENT INSTRUMENT ID'
p3250
S''
sS'INCIDENT INSTRUMENT TYPE'
p3251
S''
sS'PHYS TGT FOREIGN NATION'
p3252
S''
sS'HUM TGT NUMBER'
p3253
S''
sS'PHYS TGT TYPE'
p3254
S''
sS'HUM TGT NAME'
p3255
S''
sS'INCIDENT TYPE'
p3256
S''
sS'PHYS TGT NUMBER'
p3257
S''
sS'PERP INDIVIDUAL ID'
p3258
S''
sS'INCIDENT STAGE OF EXECUTION'
p3259
S''
sS'HUM TGT DESCRIPTION'
p3260
S''
sS'PHYS TGT EFFECT OF INCIDENT'
p3261
S''
sS'HUM TGT FOREIGN NATION'
p3262
S''
sS'INCIDENT DATE'
p3263
S''
sS'MESSAGE TEMPLATE'
p3264
S''
sS'PHYS TGT TOTAL NUMBER'
p3265
S''
ssS'TST4MUC40074'
p3266
(dp3267
S'PERP ORGANIZATION CONFIDENCE'
p3268
S''
sS'HUM TGT EFFECT OF INCIDENT'
p3269
S''
sS'INCIDENT LOCATION'
p3270
S''
sS'PHYS TGT ID'
p3271
S''
sS'PERP INCIDENT CATEGORY'
p3272
S''
sS'PERP ORGANIZATION ID'
p3273
S''
sS'HUM TGT TYPE'
p3274
S''
sS'HUM TGT TOTAL NUMBER'
p3275
S''
sS'INCIDENT INSTRUMENT ID'
p3276
S''
sS'INCIDENT INSTRUMENT TYPE'
p3277
S''
sS'PHYS TGT FOREIGN NATION'
p3278
S''
sS'HUM TGT NUMBER'
p3279
S''
sS'PHYS TGT TYPE'
p3280
S''
sS'HUM TGT NAME'
p3281
S''
sS'INCIDENT TYPE'
p3282
S''
sS'PHYS TGT NUMBER'
p3283
S''
sS'PERP INDIVIDUAL ID'
p3284
S''
sS'INCIDENT STAGE OF EXECUTION'
p3285
S''
sS'HUM TGT DESCRIPTION'
p3286
S''
sS'PHYS TGT EFFECT OF INCIDENT'
p3287
S''
sS'HUM TGT FOREIGN NATION'
p3288
S''
sS'INCIDENT DATE'
p3289
S''
sS'MESSAGE TEMPLATE'
p3290
S''
sS'PHYS TGT TOTAL NUMBER'
p3291
S''
ssS'TST4MUC40077'
p3292
(dp3293
S'PERP ORGANIZATION CONFIDENCE'
p3294
S'SUSPECTED OR ACCUSED BY AUTHORITIES POSSIBLE SHINING PATH'
p3295
sS'HUM TGT EFFECT OF INCIDENT'
p3296
S'DEATH WIVES OF THE JERSEY CITY UNITED STATES WIVES'
p3297
sS'INCIDENT LOCATION'
p3298
S'PERU CUSCO DEPARTMENT MACHU PICHU TOWN PERU CUSCO CITY MACHU PICHU TOWN PERU CUSCO DEPARTMENT PERU CUSCO CITY'
p3299
sS'PHYS TGT ID'
p3300
S'BUS'
p3301
sS'PERP INCIDENT CATEGORY'
p3302
S'TERRORIST ACT'
p3303
sS'PERP ORGANIZATION ID'
p3304
S'SHINING PATH'
p3305
sS'HUM TGT TYPE'
p3306
S'CIVILIAN WIVES OF THE JERSEY CITY UNITED STATES WIVES'
p3307
sS'HUM TGT TOTAL NUMBER'
p3308
S''
sS'INCIDENT INSTRUMENT ID'
p3309
S''
sS'INCIDENT INSTRUMENT TYPE'
p3310
S''
sS'PHYS TGT FOREIGN NATION'
p3311
S''
sS'HUM TGT NUMBER'
p3312
S'1 WIVES OF THE JERSEY CITY UNITED STATES WIVES'
p3313
sS'PHYS TGT TYPE'
p3314
S'TRANSPORT VEHICLE BUS'
p3315
sS'HUM TGT NAME'
p3316
S''
sS'INCIDENT TYPE'
p3317
S'ATTACK'
p3318
sS'PHYS TGT NUMBER'
p3319
S'1 BUS'
p3320
sS'CUSCO MAYORS WIVES'
p3321
S''
sS'PERP INDIVIDUAL ID'
p3322
S'PRESUMED TERRORISTS TERRORISTS TERRORIST GROUPS'
p3323
sS'INCIDENT STAGE OF EXECUTION'
p3324
S'ACCOMPLISHED'
p3325
sS'HUM TGT DESCRIPTION'
p3326
S'WIVES OF THE JERSEY CITY UNITED STATES WIVES'
p3327
sS'PHYS TGT EFFECT OF INCIDENT'
p3328
S''
sS'HUM TGT FOREIGN NATION'
p3329
S'UNITED STATES WIVES OF THE JERSEY CITY UNITED STATES WIVES'
p3330
sS'INCIDENT DATE'
p3331
S'02 DEC 88'
p3332
sS'MESSAGE TEMPLATE'
p3333
S'3'
sS'PHYS TGT TOTAL NUMBER'
p3334
S''
ssS'TST4MUC40076'
p3335
(dp3336
S'PERP ORGANIZATION CONFIDENCE'
p3337
S''
sS'HUM TGT EFFECT OF INCIDENT'
p3338
S''
sS'INCIDENT LOCATION'
p3339
S''
sS'PHYS TGT ID'
p3340
S''
sS'PERP INCIDENT CATEGORY'
p3341
S''
sS'PERP ORGANIZATION ID'
p3342
S''
sS'HUM TGT TYPE'
p3343
S''
sS'HUM TGT TOTAL NUMBER'
p3344
S''
sS'INCIDENT INSTRUMENT ID'
p3345
S''
sS'INCIDENT INSTRUMENT TYPE'
p3346
S''
sS'PHYS TGT FOREIGN NATION'
p3347
S''
sS'HUM TGT NUMBER'
p3348
S''
sS'PHYS TGT TYPE'
p3349
S''
sS'HUM TGT NAME'
p3350
S''
sS'INCIDENT TYPE'
p3351
S''
sS'PHYS TGT NUMBER'
p3352
S''
sS'PERP INDIVIDUAL ID'
p3353
S''
sS'INCIDENT STAGE OF EXECUTION'
p3354
S''
sS'HUM TGT DESCRIPTION'
p3355
S''
sS'PHYS TGT EFFECT OF INCIDENT'
p3356
S''
sS'HUM TGT FOREIGN NATION'
p3357
S''
sS'INCIDENT DATE'
p3358
S''
sS'MESSAGE TEMPLATE'
p3359
S''
sS'PHYS TGT TOTAL NUMBER'
p3360
S''
ss.