(dp1
S'TST2-MUC4-0048'
p2
(dp3
S'PERP ORGANIZATION CONFIDENCE'
p4
S'SUSPECTED OR ACCUSED BY AUTHORITIES FMLN FARABUNDO MARTI NATIONAL LIBERATION FRONT'
p5
sS'HUM TGT EFFECT OF INCIDENT'
p6
S'INJURY 15YEAROLD NIECE OF MERINOS 15YEAROLD NIECE'
p7
sS'INCIDENT LOCATION'
p8
S'EL SALVADOR SAN SALVADOR CITY'
p9
sS'PHYS TGT ID'
p10
S'MERINOS HOME'
p11
sS'PERP INCIDENT CATEGORY'
p12
S'TERRORIST ACT'
p13
sS'PERP ORGANIZATION ID'
p14
S'FMLN FARABUNDO MARTI NATIONAL LIBERATION FRONT'
p15
sS'HUM TGT TYPE'
p16
S'CIVILIAN CHILDREN'
p17
sS'HUM TGT TOTAL NUMBER'
p18
S'7'
sS'INCIDENT INSTRUMENT ID'
p19
S'EXPLOSIVES'
p20
sS'INCIDENT INSTRUMENT TYPE'
p21
S'EXPLOSIVE EXPLOSIVES'
p22
sS'PHYS TGT FOREIGN NATION'
p23
S''
sS'HUM TGT NUMBER'
p24
S'7 CHILDREN'
p25
sS'VICE PRESIDENTS CHILDREN'
p26
S''
sS'PHYS TGT TYPE'
p27
S'GOVERNMENT OFFICE OR RESIDENCE MERINOS HOME'
p28
sS'HUM TGT NAME'
p29
S''
sS'INCIDENT TYPE'
p30
S'BOMBING'
p31
sS'PHYS TGT NUMBER'
p32
S'1 MERINOS HOME'
p33
sS'PERP INDIVIDUAL ID'
p34
S'GUERRILLAS'
p35
sS'INCIDENT STAGE OF EXECUTION'
p36
S'ACCOMPLISHED'
p37
sS'15YEAROLD NIECE OF MERINOS'
p38
S'15YEAROLD NIECE'
p39
sS'HUM TGT DESCRIPTION'
p40
S'CHILDREN'
p41
sS'PHYS TGT EFFECT OF INCIDENT'
p42
S''
sS'HUM TGT FOREIGN NATION'
p43
S''
sS'INCIDENT DATE'
p44
S'14 APR 89'
p45
sS'MESSAGE TEMPLATE'
p46
S'3'
sS'PHYS TGT TOTAL NUMBER'
p47
S''
ssS'TST2-MUC4-0049'
p48
(dp49
S'PERP ORGANIZATION CONFIDENCE'
p50
S''
sS'HUM TGT EFFECT OF INCIDENT'
p51
S'DEATH PRESIDENTIAL GUARDS GUARDS MEMBERS OF THE HUSARES DE JUNIN PRESIDENTIAL ESCORT REGIMENT MILITARY GUARDS'
p52
sS'INCIDENT LOCATION'
p53
S'PERU LIMA CITY'
p54
sS'PHYS TGT ID'
p55
S'BUS MILITARY BUS'
p56
sS'PERP INCIDENT CATEGORY'
p57
S''
sS'SOLDIERS'
p58
S''
sS'PERP ORGANIZATION ID'
p59
S''
sS'HUM TGT TYPE'
p60
S'ACTIVE MILITARY PRESIDENTIAL GUARDS GUARDS MEMBERS OF THE HUSARES DE JUNIN PRESIDENTIAL ESCORT REGIMENT MILITARY GUARDS'
p61
sS'HUM TGT TOTAL NUMBER'
p62
S''
sS'INCIDENT INSTRUMENT ID'
p63
S'CAR BOMB'
p64
sS'INCIDENT INSTRUMENT TYPE'
p65
S'VEHICLE BOMB CAR BOMB'
p66
sS'PRESIDENTIAL GUARDS GUARDS'
p67
S'MEMBERS OF THE HUSARES DE JUNIN PRESIDENTIAL ESCORT REGIMENT MILITARY GUARDS'
p68
sS'PHYS TGT FOREIGN NATION'
p69
S''
sS'HUM TGT NUMBER'
p70
S'24 PRESIDENTIAL GUARDS GUARDS MEMBERS OF THE HUSARES DE JUNIN PRESIDENTIAL ESCORT REGIMENT MILITARY GUARDS'
p71
sS'PHYS TGT TYPE'
p72
S'TRANSPORT VEHICLE BUS MILITARY BUS'
p73
sS'HUM TGT NAME'
p74
S''
sS'INCIDENT TYPE'
p75
S'BOMBING'
p76
sS'PHYS TGT NUMBER'
p77
S'1 BUS MILITARY BUS'
p78
sS'CHILD'
p79
S''
sS'PERP INDIVIDUAL ID'
p80
S''
sS'INCIDENT STAGE OF EXECUTION'
p81
S'ACCOMPLISHED'
p82
sS'HUM TGT DESCRIPTION'
p83
S'PRESIDENTIAL GUARDS GUARDS MEMBERS OF THE HUSARES DE JUNIN PRESIDENTIAL ESCORT REGIMENT MILITARY GUARDS'
p84
sS'PHYS TGT EFFECT OF INCIDENT'
p85
S'SOME DAMAGE BUS MILITARY BUS'
p86
sS'HUM TGT FOREIGN NATION'
p87
S''
sS'INCIDENT DATE'
p88
S'03 JUN 89'
p89
sS'MESSAGE TEMPLATE'
p90
S'1'
sS'PHYS TGT TOTAL NUMBER'
p91
S''
ssS'TST2-MUC4-0040'
p92
(dp93
S'PERP ORGANIZATION CONFIDENCE'
p94
S'CLAIMED OR ADMITTED THE EXTRADITABLES EXTRADITABLES'
p95
sS'HUM TGT EFFECT OF INCIDENT'
p96
S''
sS'DAUGHTER HER DAUGHTER'
p97
S''
sS'PHYS TGT ID'
p98
S''
sS'PERP INCIDENT CATEGORY'
p99
S'TERRORIST ACT'
p100
sS'PERP ORGANIZATION ID'
p101
S'THE EXTRADITABLES EXTRADITABLES'
p102
sS'HUM TGT TYPE'
p103
S'CIVILIAN PATRICIA ECHAVARRIA'
p104
sS'HUM TGT TOTAL NUMBER'
p105
S''
sS'INCIDENT INSTRUMENT ID'
p106
S''
sS'INCIDENT INSTRUMENT TYPE'
p107
S''
sS'PHYS TGT FOREIGN NATION'
p108
S''
sS'HUM TGT NUMBER'
p109
S'1 PATRICIA ECHAVARRIA'
p110
sS'PHYS TGT TYPE'
p111
S''
sS'HUM TGT NAME'
p112
S'PATRICIA ECHAVARRIA'
p113
sS'INCIDENT TYPE'
p114
S'KIDNAPPING'
p115
sS'PHYS TGT NUMBER'
p116
S''
sS'PERP INDIVIDUAL ID'
p117
S''
sS'INCIDENT STAGE OF EXECUTION'
p118
S'ACCOMPLISHED'
p119
sS'HUM TGT DESCRIPTION'
p120
S'MRS PATRICIA ECHAVARRIA'
p121
sS'PHYS TGT EFFECT OF INCIDENT'
p122
S''
sS'HUM TGT FOREIGN NATION'
p123
S''
sS'INCIDENT LOCATION'
p124
S'COLOMBIA'
p125
sS'INCIDENT DATE'
p126
S'16 JAN 90'
p127
sS'MESSAGE TEMPLATE'
p128
S'1 OPTIONAL'
p129
sS'PHYS TGT TOTAL NUMBER'
p130
S''
ssS'TST2-MUC4-0041'
p131
(dp132
S'PERP ORGANIZATION CONFIDENCE'
p133
S''
sS'HUM TGT EFFECT OF INCIDENT'
p134
S''
sS'INCIDENT LOCATION'
p135
S''
sS'PHYS TGT ID'
p136
S''
sS'PERP INCIDENT CATEGORY'
p137
S''
sS'PERP ORGANIZATION ID'
p138
S''
sS'HUM TGT TYPE'
p139
S''
sS'HUM TGT TOTAL NUMBER'
p140
S''
sS'INCIDENT INSTRUMENT ID'
p141
S''
sS'INCIDENT INSTRUMENT TYPE'
p142
S''
sS'PHYS TGT FOREIGN NATION'
p143
S''
sS'HUM TGT NUMBER'
p144
S''
sS'PHYS TGT TYPE'
p145
S''
sS'HUM TGT NAME'
p146
S''
sS'INCIDENT TYPE'
p147
S''
sS'PHYS TGT NUMBER'
p148
S''
sS'PERP INDIVIDUAL ID'
p149
S''
sS'INCIDENT STAGE OF EXECUTION'
p150
S''
sS'HUM TGT DESCRIPTION'
p151
S''
sS'PHYS TGT EFFECT OF INCIDENT'
p152
S''
sS'HUM TGT FOREIGN NATION'
p153
S''
sS'INCIDENT DATE'
p154
S''
sS'MESSAGE TEMPLATE'
p155
S''
sS'PHYS TGT TOTAL NUMBER'
p156
S''
ssS'TST2-MUC4-0042'
p157
(dp158
S'PERP ORGANIZATION CONFIDENCE'
p159
S'CLAIMED OR ADMITTED NATIONAL POLICE COLOMBIAN POLICE POLICE'
p160
sS'HUM TGT EFFECT OF INCIDENT'
p161
S'DEATH GONZALO RODRIGUEZ GACHA'
p162
sS'INCIDENT LOCATION'
p163
S'COLOMBIA'
p164
sS'SON HIS SON'
p165
S''
sS'PERP INCIDENT CATEGORY'
p166
S'STATESPONSORED VIOLENCE'
p167
sS'PERP ORGANIZATION ID'
p168
S'NATIONAL POLICE COLOMBIAN POLICE POLICE'
p169
sS'HUM TGT TYPE'
p170
S'CIVILIAN GONZALO RODRIGUEZ GACHA'
p171
sS'HUM TGT TOTAL NUMBER'
p172
S''
sS'INCIDENT INSTRUMENT ID'
p173
S''
sS'INCIDENT INSTRUMENT TYPE'
p174
S''
sS'PHYS TGT FOREIGN NATION'
p175
S''
sS'HUM TGT NUMBER'
p176
S'1 GONZALO RODRIGUEZ GACHA'
p177
sS'PHYS TGT TYPE'
p178
S''
sS'HUM TGT NAME'
p179
S'GONZALO RODRIGUEZ GACHA'
p180
sS'INCIDENT TYPE'
p181
S'ATTACK'
p182
sS'PHYS TGT NUMBER'
p183
S''
sS'PHYS TGT ID'
p184
S''
sS'PERP INDIVIDUAL ID'
p185
S'SPECIAL GROUPS'
p186
sS'INCIDENT STAGE OF EXECUTION'
p187
S'ACCOMPLISHED'
p188
sS'HUM TGT DESCRIPTION'
p189
S'CRIMINAL GONZALO RODRIGUEZ GACHA'
p190
sS'PHYS TGT EFFECT OF INCIDENT'
p191
S''
sS'HUM TGT FOREIGN NATION'
p192
S''
sS'INCIDENT DATE'
p193
S'15 DEC 89 15 DEC 89'
p194
sS'MESSAGE TEMPLATE'
p195
S'1 OPTIONAL'
p196
sS'PHYS TGT TOTAL NUMBER'
p197
S''
ssS'TST2-MUC4-0043'
p198
(dp199
S'PERP ORGANIZATION CONFIDENCE'
p200
S''
sS'HUM TGT EFFECT OF INCIDENT'
p201
S''
sS'INCIDENT LOCATION'
p202
S''
sS'PHYS TGT ID'
p203
S''
sS'PERP INCIDENT CATEGORY'
p204
S''
sS'PERP ORGANIZATION ID'
p205
S''
sS'HUM TGT TYPE'
p206
S''
sS'HUM TGT TOTAL NUMBER'
p207
S''
sS'INCIDENT INSTRUMENT ID'
p208
S''
sS'INCIDENT INSTRUMENT TYPE'
p209
S''
sS'PHYS TGT FOREIGN NATION'
p210
S''
sS'HUM TGT NUMBER'
p211
S''
sS'PHYS TGT TYPE'
p212
S''
sS'HUM TGT NAME'
p213
S''
sS'INCIDENT TYPE'
p214
S''
sS'PHYS TGT NUMBER'
p215
S''
sS'PERP INDIVIDUAL ID'
p216
S''
sS'INCIDENT STAGE OF EXECUTION'
p217
S''
sS'HUM TGT DESCRIPTION'
p218
S''
sS'PHYS TGT EFFECT OF INCIDENT'
p219
S''
sS'HUM TGT FOREIGN NATION'
p220
S''
sS'INCIDENT DATE'
p221
S''
sS'MESSAGE TEMPLATE'
p222
S''
sS'PHYS TGT TOTAL NUMBER'
p223
S''
ssS'TST2-MUC4-0044'
p224
(dp225
S'PERP ORGANIZATION CONFIDENCE'
p226
S'SUSPECTED OR ACCUSED BY AUTHORITIES ARMY OF NATIONAL LIBERATION ARMY NATIONAL LIBERATION ARMY'
p227
sS'HUM TGT EFFECT OF INCIDENT'
p228
S'DEATH SOLDIERS GUARDS NATIONAL GUARD PATROL'
p229
sS'INCIDENT LOCATION'
p230
S'VENEZUELA APURE STATE CUTUFI CITY'
p231
sS'PHYS TGT ID'
p232
S'NATIONAL GUARD JEEP JEEP MILITARY VEHICLE VEHICLE'
p233
sS'PERP INCIDENT CATEGORY'
p234
S'TERRORIST ACT'
p235
sS'PERP ORGANIZATION ID'
p236
S'ARMY OF NATIONAL LIBERATION ARMY NATIONAL LIBERATION ARMY'
p237
sS'HUM TGT TYPE'
p238
S'ACTIVE MILITARY SOLDIERS GUARDS NATIONAL GUARD PATROL'
p239
sS'HUM TGT TOTAL NUMBER'
p240
S''
sS'INCIDENT INSTRUMENT ID'
p241
S'VERY POWERFUL EXPLOSIVES EXPLOSIVES'
p242
sS'INCIDENT INSTRUMENT TYPE'
p243
S'EXPLOSIVE VERY POWERFUL EXPLOSIVES EXPLOSIVES'
p244
sS'PHYS TGT FOREIGN NATION'
p245
S''
sS'HUM TGT NUMBER'
p246
S'5 SOLDIERS GUARDS NATIONAL GUARD PATROL'
p247
sS'PHYS TGT TYPE'
p248
S'TRANSPORT VEHICLE NATIONAL GUARD JEEP JEEP MILITARY VEHICLE VEHICLE'
p249
sS'HUM TGT NAME'
p250
S''
sS'INCIDENT TYPE'
p251
S'BOMBING'
p252
sS'PHYS TGT NUMBER'
p253
S'1 NATIONAL GUARD JEEP JEEP MILITARY VEHICLE VEHICLE'
p254
sS'PERP INDIVIDUAL ID'
p255
S'COLOMBIAN GUERRILLAS MEMBERS OF THE COLOMBIAN GUERRILLAS'
p256
sS'INCIDENT STAGE OF EXECUTION'
p257
S'ACCOMPLISHED'
p258
sS'HUM TGT DESCRIPTION'
p259
S'SOLDIERS GUARDS NATIONAL GUARD PATROL'
p260
sS'PHYS TGT EFFECT OF INCIDENT'
p261
S'DESTROYED SOME DAMAGE NATIONAL GUARD JEEP JEEP MILITARY VEHICLE VEHICLE'
p262
sS'HUM TGT FOREIGN NATION'
p263
S''
sS'INCIDENT DATE'
p264
S'26 OCT 89'
p265
sS'MESSAGE TEMPLATE'
p266
S'1'
sS'PHYS TGT TOTAL NUMBER'
p267
S''
ssS'TST2-MUC4-0045'
p268
(dp269
S'PERP ORGANIZATION CONFIDENCE'
p270
S''
sS'HUM TGT EFFECT OF INCIDENT'
p271
S''
sS'INCIDENT LOCATION'
p272
S''
sS'PHYS TGT ID'
p273
S''
sS'PERP INCIDENT CATEGORY'
p274
S''
sS'PERP ORGANIZATION ID'
p275
S''
sS'HUM TGT TYPE'
p276
S''
sS'HUM TGT TOTAL NUMBER'
p277
S''
sS'INCIDENT INSTRUMENT ID'
p278
S''
sS'INCIDENT INSTRUMENT TYPE'
p279
S''
sS'PHYS TGT FOREIGN NATION'
p280
S''
sS'HUM TGT NUMBER'
p281
S''
sS'PHYS TGT TYPE'
p282
S''
sS'HUM TGT NAME'
p283
S''
sS'INCIDENT TYPE'
p284
S''
sS'PHYS TGT NUMBER'
p285
S''
sS'PERP INDIVIDUAL ID'
p286
S''
sS'INCIDENT STAGE OF EXECUTION'
p287
S''
sS'HUM TGT DESCRIPTION'
p288
S''
sS'PHYS TGT EFFECT OF INCIDENT'
p289
S''
sS'HUM TGT FOREIGN NATION'
p290
S''
sS'INCIDENT DATE'
p291
S''
sS'MESSAGE TEMPLATE'
p292
S''
sS'PHYS TGT TOTAL NUMBER'
p293
S''
ssS'TST2-MUC4-0046'
p294
(dp295
S'PERP ORGANIZATION CONFIDENCE'
p296
S''
sS'HUM TGT EFFECT OF INCIDENT'
p297
S'DEATH PASSENGERS PASSENGERS GOING TO CALI VALLE DEL CAUCA DEPARTMENT PASSANGERS PASSANGERS GOING TO CALI VALLE DEL CAUCA DEPARTMENT'
p298
sS'INCIDENT LOCATION'
p299
S'COLOMBIA CASQUITO TOWN COLOMBIA'
p300
sS'PHYS TGT ID'
p301
S'AIRPLANE HK1803 AIRPLANE'
p302
sS'PERP INCIDENT CATEGORY'
p303
S'TERRORIST ACT'
p304
sS'PERP ORGANIZATION ID'
p305
S''
sS'HUM TGT TYPE'
p306
S'CIVILIAN PASSENGERS PASSENGERS GOING TO CALI VALLE DEL CAUCA DEPARTMENT PASSANGERS PASSANGERS GOING TO CALI VALLE DEL CAUCA DEPARTMENT'
p307
sS'HUM TGT TOTAL NUMBER'
p308
S''
sS'INCIDENT INSTRUMENT ID'
p309
S''
sS'INCIDENT INSTRUMENT TYPE'
p310
S'EXPLOSIVE'
p311
sS'PHYS TGT FOREIGN NATION'
p312
S''
sS'HUM TGT NUMBER'
p313
S'106 PASSENGERS PASSENGERS GOING TO CALI VALLE DEL CAUCA DEPARTMENT PASSANGERS PASSANGERS GOING TO CALI VALLE DEL CAUCA DEPARTMENT'
p314
sS'PHYS TGT TYPE'
p315
S'TRANSPORT VEHICLE AIRPLANE HK1803 AIRPLANE'
p316
sS'HUM TGT NAME'
p317
S''
sS'INCIDENT TYPE'
p318
S'BOMBING'
p319
sS'PHYS TGT NUMBER'
p320
S'1 AIRPLANE HK1803 AIRPLANE'
p321
sS'PERP INDIVIDUAL ID'
p322
S'TERRORIST'
p323
sS'INCIDENT STAGE OF EXECUTION'
p324
S'ACCOMPLISHED'
p325
sS'HUM TGT DESCRIPTION'
p326
S'PASSENGERS PASSENGERS GOING TO CALI VALLE DEL CAUCA DEPARTMENT PASSANGERS PASSANGERS GOING TO CALI VALLE DEL CAUCA DEPARTMENT'
p327
sS'PHYS TGT EFFECT OF INCIDENT'
p328
S'DESTROYED AIRPLANE HK1803 AIRPLANE'
p329
sS'HUM TGT FOREIGN NATION'
p330
S''
sS'INCIDENT DATE'
p331
S'27 NOV 89'
p332
sS'MESSAGE TEMPLATE'
p333
S'1'
sS'PHYS TGT TOTAL NUMBER'
p334
S''
ssS'TST2-MUC4-0047'
p335
(dp336
S'PERP ORGANIZATION CONFIDENCE'
p337
S''
sS'HUM TGT EFFECT OF INCIDENT'
p338
S''
sS'INCIDENT LOCATION'
p339
S''
sS'PHYS TGT ID'
p340
S''
sS'PERP INCIDENT CATEGORY'
p341
S''
sS'PERP ORGANIZATION ID'
p342
S''
sS'HUM TGT TYPE'
p343
S''
sS'HUM TGT TOTAL NUMBER'
p344
S''
sS'INCIDENT INSTRUMENT ID'
p345
S''
sS'INCIDENT INSTRUMENT TYPE'
p346
S''
sS'PHYS TGT FOREIGN NATION'
p347
S''
sS'HUM TGT NUMBER'
p348
S''
sS'PHYS TGT TYPE'
p349
S''
sS'HUM TGT NAME'
p350
S''
sS'INCIDENT TYPE'
p351
S''
sS'PHYS TGT NUMBER'
p352
S''
sS'PERP INDIVIDUAL ID'
p353
S''
sS'INCIDENT STAGE OF EXECUTION'
p354
S''
sS'HUM TGT DESCRIPTION'
p355
S''
sS'PHYS TGT EFFECT OF INCIDENT'
p356
S''
sS'HUM TGT FOREIGN NATION'
p357
S''
sS'INCIDENT DATE'
p358
S''
sS'MESSAGE TEMPLATE'
p359
S''
sS'PHYS TGT TOTAL NUMBER'
p360
S''
ssS'TST2-MUC4-0057'
p361
(dp362
S'PERP ORGANIZATION CONFIDENCE'
p363
S'REPORTED AS FACT ARMED FORCES HIGH COMMAND ARMED FORCES TREASURY POLICE'
p364
sS'HUM TGT EFFECT OF INCIDENT'
p365
S'DEATH JESUIT PRIESTS PRIESTS'
p366
sS'INCIDENT LOCATION'
p367
S'EL SALVADOR'
p368
sS'PHYS TGT ID'
p369
S''
sS'PERP INCIDENT CATEGORY'
p370
S'STATESPONSORED VIOLENCE'
p371
sS'PERP ORGANIZATION ID'
p372
S'ARMED FORCES HIGH COMMAND ARMED FORCES TREASURY POLICE'
p373
sS'HUM TGT TYPE'
p374
S'CIVILIAN JESUIT PRIESTS PRIESTS'
p375
sS'HUM TGT TOTAL NUMBER'
p376
S''
sS'INCIDENT INSTRUMENT ID'
p377
S''
sS'INCIDENT INSTRUMENT TYPE'
p378
S''
sS'PHYS TGT FOREIGN NATION'
p379
S''
sS'HUM TGT NUMBER'
p380
S'6 JESUIT PRIESTS PRIESTS'
p381
sS'PHYS TGT TYPE'
p382
S''
sS'HUM TGT NAME'
p383
S''
sS'INCIDENT TYPE'
p384
S'ATTACK'
p385
sS'PHYS TGT NUMBER'
p386
S''
sS'PERP INDIVIDUAL ID'
p387
S'COLONEL RENE EMILIO PONCE COLONEL RENE EMILIO PONCE CHAIRMAN OF THE JOINTS CHIEFS OF STAFF'
p388
sS'INCIDENT STAGE OF EXECUTION'
p389
S'ACCOMPLISHED'
p390
sS'HUM TGT DESCRIPTION'
p391
S'JESUIT PRIESTS PRIESTS'
p392
sS'PHYS TGT EFFECT OF INCIDENT'
p393
S''
sS'HUM TGT FOREIGN NATION'
p394
S''
sS'INCIDENT DATE'
p395
S''
sS'MESSAGE TEMPLATE'
p396
S'1'
sS'PHYS TGT TOTAL NUMBER'
p397
S''
ssS'TST2-MUC4-0056'
p398
(dp399
S'NETHERLANDER'
p400
S''
sS'HUM TGT EFFECT OF INCIDENT'
p401
S'DEATH SALVADORANS'
p402
sS'INCIDENT LOCATION'
p403
S'EL SALVADOR'
p404
sS'PHYS TGT ID'
p405
S''
sS'SALVADORAN REPORTER'
p406
S''
sS'PERP INCIDENT CATEGORY'
p407
S'STATESPONSORED VIOLENCE'
p408
sS'PERP ORGANIZATION CONFIDENCE'
p409
S'POSSIBLE ARMED FORCES'
p410
sS'PERP ORGANIZATION ID'
p411
S'ARMED FORCES'
p412
sS'HUM TGT TYPE'
p413
S'CIVILIAN SALVADORANS'
p414
sS'HUM TGT TOTAL NUMBER'
p415
S''
sS'INCIDENT INSTRUMENT ID'
p416
S''
sS'INCIDENT INSTRUMENT TYPE'
p417
S''
sS'PHYS TGT FOREIGN NATION'
p418
S''
sS'HUM TGT NUMBER'
p419
S'2 SALVADORANS'
p420
sS'PHYS TGT TYPE'
p421
S''
sS'HUM TGT NAME'
p422
S''
sS'CBS REPORTER'
p423
S''
sS'INCIDENT TYPE'
p424
S'ATTACK'
p425
sS'PHYS TGT NUMBER'
p426
S''
sS'PERP INDIVIDUAL ID'
p427
S'GUARDS ARMED FORCES MEMBERS'
p428
sS'INCIDENT STAGE OF EXECUTION'
p429
S'ACCOMPLISHED'
p430
sS'HUM TGT DESCRIPTION'
p431
S'SALVADORANS'
p432
sS'PHYS TGT EFFECT OF INCIDENT'
p433
S''
sS'HUM TGT FOREIGN NATION'
p434
S'NETHERLANDS NETHERLANDER'
p435
sS'INCIDENT DATE'
p436
S'19 MAR 89 19 MAR 89'
p437
sS'MESSAGE TEMPLATE'
p438
S'1'
sS'PHYS TGT TOTAL NUMBER'
p439
S''
ssS'TST2-MUC4-0055'
p440
(dp441
S'PERP ORGANIZATION CONFIDENCE'
p442
S'CLAIMED OR ADMITTED TUPAC AMARU REVOLUTIONARY MOVEMENT MRTA'
p443
sS'HUM TGT EFFECT OF INCIDENT'
p444
S''
sS'INCIDENT LOCATION'
p445
S'PERU LIMA CITY'
p446
sS'PHYS TGT ID'
p447
S''
sS'PERP INCIDENT CATEGORY'
p448
S'TERRORIST ACT'
p449
sS'PERP ORGANIZATION ID'
p450
S'TUPAC AMARU REVOLUTIONARY MOVEMENT MRTA'
p451
sS'HUM TGT TYPE'
p452
S'CIVILIAN HECTOR DELGADO PARKER'
p453
sS'HUM TGT TOTAL NUMBER'
p454
S''
sS'INCIDENT INSTRUMENT ID'
p455
S''
sS'INCIDENT INSTRUMENT TYPE'
p456
S''
sS'PHYS TGT FOREIGN NATION'
p457
S''
sS'HUM TGT NUMBER'
p458
S'1 HECTOR DELGADO PARKER'
p459
sS'PHYS TGT TYPE'
p460
S''
sS'HUM TGT NAME'
p461
S'HECTOR DELGADO PARKER'
p462
sS'INCIDENT TYPE'
p463
S'KIDNAPPING'
p464
sS'PHYS TGT NUMBER'
p465
S''
sS'PERP INDIVIDUAL ID'
p466
S'COMMANDO OF THE PROCHE GUEVARA GROUP TUPAC AMARU REVOLUTIONARY MOVEMENT MRTA COMMANDO OF THE PROCHE GUEVARA GROUP TUPAC AMARU REVOLUTIONARY MOVEMENT COMMANDO OF THE PROCHE GUEVARA GROUP COMMANDO MRTA ACTIVISTS'
p467
sS'INCIDENT STAGE OF EXECUTION'
p468
S'ACCOMPLISHED'
p469
sS'HUM TGT DESCRIPTION'
p470
S'LOCAL TELEVISION IMPRESARIO FORMER ADVISER TO PERUVIAN PRESIDENT ALAN GARCIA TELEVISION IMPRESARIO HECTOR DELGADO PARKER'
p471
sS'PHYS TGT EFFECT OF INCIDENT'
p472
S''
sS'HUM TGT FOREIGN NATION'
p473
S''
sS'INCIDENT DATE'
p474
S'04 OCT 89'
p475
sS'MESSAGE TEMPLATE'
p476
S'3'
sS'PHYS TGT TOTAL NUMBER'
p477
S''
ssS'TST2-MUC4-0054'
p478
(dp479
S'PERP ORGANIZATION CONFIDENCE'
p480
S'CLAIMED OR ADMITTED ARMED FORCES'
p481
sS'HUM TGT EFFECT OF INCIDENT'
p482
S'DEATH UCA PRIESTS PRIESTS'
p483
sS'INCIDENT LOCATION'
p484
S'EL SALVADOR'
p485
sS'PHYS TGT ID'
p486
S''
sS'PERP INCIDENT CATEGORY'
p487
S'STATESPONSORED VIOLENCE'
p488
sS'PERP ORGANIZATION ID'
p489
S'ARMED FORCES'
p490
sS'HUM TGT TYPE'
p491
S'CIVILIAN UCA PRIESTS PRIESTS'
p492
sS'HUM TGT TOTAL NUMBER'
p493
S''
sS'INCIDENT INSTRUMENT ID'
p494
S''
sS'INCIDENT INSTRUMENT TYPE'
p495
S''
sS'PHYS TGT FOREIGN NATION'
p496
S''
sS'HUM TGT NUMBER'
p497
S'6 UCA PRIESTS PRIESTS'
p498
sS'PHYS TGT TYPE'
p499
S''
sS'HUM TGT NAME'
p500
S''
sS'INCIDENT TYPE'
p501
S'ATTACK'
p502
sS'PHYS TGT NUMBER'
p503
S''
sS'PERP INDIVIDUAL ID'
p504
S'ARMED FORCES ELEMENTS MEMBERS OF THE ARMED FORCES'
p505
sS'INCIDENT STAGE OF EXECUTION'
p506
S'ACCOMPLISHED'
p507
sS'HUM TGT DESCRIPTION'
p508
S'UCA PRIESTS PRIESTS'
p509
sS'PHYS TGT EFFECT OF INCIDENT'
p510
S''
sS'HUM TGT FOREIGN NATION'
p511
S''
sS'INCIDENT DATE'
p512
S'08 JAN 90'
p513
sS'MESSAGE TEMPLATE'
p514
S'1'
sS'PHYS TGT TOTAL NUMBER'
p515
S''
ssS'TST2-MUC4-0053'
p516
(dp517
S'PERP ORGANIZATION CONFIDENCE'
p518
S''
sS'HUM TGT EFFECT OF INCIDENT'
p519
S''
sS'INCIDENT LOCATION'
p520
S'COLOMBIA NORTE DE SANTANDER DEPARTMENT'
p521
sS'PHYS TGT ID'
p522
S''
sS'PERP INCIDENT CATEGORY'
p523
S''
sS'PERP ORGANIZATION ID'
p524
S''
sS'HUM TGT TYPE'
p525
S'CIVILIAN NORBERTO RODRIGUEZ'
p526
sS'HUM TGT TOTAL NUMBER'
p527
S''
sS'INCIDENT INSTRUMENT ID'
p528
S''
sS'INCIDENT INSTRUMENT TYPE'
p529
S''
sS'PHYS TGT FOREIGN NATION'
p530
S''
sS'HUM TGT NUMBER'
p531
S'1 NORBERTO RODRIGUEZ'
p532
sS'PHYS TGT TYPE'
p533
S''
sS'HUM TGT NAME'
p534
S'NORBERTO RODRIGUEZ'
p535
sS'INCIDENT TYPE'
p536
S'KIDNAPPING'
p537
sS'PHYS TGT NUMBER'
p538
S''
sS'PERP INDIVIDUAL ID'
p539
S'UNIDENTIFIED ASSAILANTS'
p540
sS'INCIDENT STAGE OF EXECUTION'
p541
S'ACCOMPLISHED'
p542
sS'HUM TGT DESCRIPTION'
p543
S'VENEZUELAN PRESIDENT CARLOS ANDRES PEREZ BROTHERINLAW BROTHER OF VENEZUELAS FIRST LADY BLANCA RODRIGUEZ DE PEREZ NORBERTO RODRIGUEZ'
p544
sS'PHYS TGT EFFECT OF INCIDENT'
p545
S''
sS'HUM TGT FOREIGN NATION'
p546
S'VENEZUELA NORBERTO RODRIGUEZ'
p547
sS'INCIDENT DATE'
p548
S'15 JUL 89'
p549
sS'MESSAGE TEMPLATE'
p550
S'1'
sS'PHYS TGT TOTAL NUMBER'
p551
S''
ssS'TST2-MUC4-0052'
p552
(dp553
S'PERP ORGANIZATION CONFIDENCE'
p554
S''
sS'HUM TGT EFFECT OF INCIDENT'
p555
S''
sS'INCIDENT LOCATION'
p556
S''
sS'PHYS TGT ID'
p557
S''
sS'PERP INCIDENT CATEGORY'
p558
S''
sS'PERP ORGANIZATION ID'
p559
S''
sS'HUM TGT TYPE'
p560
S''
sS'HUM TGT TOTAL NUMBER'
p561
S''
sS'INCIDENT INSTRUMENT ID'
p562
S''
sS'INCIDENT INSTRUMENT TYPE'
p563
S''
sS'PHYS TGT FOREIGN NATION'
p564
S''
sS'HUM TGT NUMBER'
p565
S''
sS'PHYS TGT TYPE'
p566
S''
sS'HUM TGT NAME'
p567
S''
sS'INCIDENT TYPE'
p568
S''
sS'PHYS TGT NUMBER'
p569
S''
sS'PERP INDIVIDUAL ID'
p570
S''
sS'INCIDENT STAGE OF EXECUTION'
p571
S''
sS'HUM TGT DESCRIPTION'
p572
S''
sS'PHYS TGT EFFECT OF INCIDENT'
p573
S''
sS'HUM TGT FOREIGN NATION'
p574
S''
sS'INCIDENT DATE'
p575
S''
sS'MESSAGE TEMPLATE'
p576
S''
sS'PHYS TGT TOTAL NUMBER'
p577
S''
ssS'TST2-MUC4-0051'
p578
(dp579
S'PERP ORGANIZATION CONFIDENCE'
p580
S''
sS'HUM TGT EFFECT OF INCIDENT'
p581
S'DEATH LUIS CARLOS GALAN SARMIENTO'
p582
sS'INCIDENT LOCATION'
p583
S'COLOMBIA'
p584
sS'PHYS TGT ID'
p585
S''
sS'PERP INCIDENT CATEGORY'
p586
S''
sS'PERP ORGANIZATION ID'
p587
S''
sS'HUM TGT TYPE'
p588
S'GOVERNMENT OFFICIAL LUIS CARLOS GALAN SARMIENTO'
p589
sS'HUM TGT TOTAL NUMBER'
p590
S''
sS'INCIDENT INSTRUMENT ID'
p591
S''
sS'INCIDENT INSTRUMENT TYPE'
p592
S''
sS'PHYS TGT FOREIGN NATION'
p593
S''
sS'HUM TGT NUMBER'
p594
S'1 LUIS CARLOS GALAN SARMIENTO'
p595
sS'PHYS TGT TYPE'
p596
S''
sS'HUM TGT NAME'
p597
S'LUIS CARLOS GALAN SARMIENTO'
p598
sS'INCIDENT TYPE'
p599
S'ATTACK'
p600
sS'PHYS TGT NUMBER'
p601
S''
sS'PERP INDIVIDUAL ID'
p602
S''
sS'INCIDENT STAGE OF EXECUTION'
p603
S'ACCOMPLISHED'
p604
sS'HUM TGT DESCRIPTION'
p605
S'SENATOR LUIS CARLOS GALAN SARMIENTO'
p606
sS'PHYS TGT EFFECT OF INCIDENT'
p607
S''
sS'HUM TGT FOREIGN NATION'
p608
S''
sS'INCIDENT DATE'
p609
S'18 AUG 89'
p610
sS'MESSAGE TEMPLATE'
p611
S'1'
sS'PHYS TGT TOTAL NUMBER'
p612
S''
ssS'TST2-MUC4-0050'
p613
(dp614
S'PERP ORGANIZATION CONFIDENCE'
p615
S''
sS'HUM TGT EFFECT OF INCIDENT'
p616
S'DEATH JORGE ADOLFO VARGAS GONZALEZ'
p617
sS'INCIDENT LOCATION'
p618
S'GUATEMALA GUATEMALA CITY CITY'
p619
sS'PHYS TGT ID'
p620
S''
sS'PERP INCIDENT CATEGORY'
p621
S''
sS'PERP ORGANIZATION ID'
p622
S''
sS'HUM TGT TYPE'
p623
S'DIPLOMAT JORGE ADOLFO VARGAS GONZALEZ'
p624
sS'HUM TGT TOTAL NUMBER'
p625
S''
sS'INCIDENT INSTRUMENT ID'
p626
S''
sS'INCIDENT INSTRUMENT TYPE'
p627
S''
sS'PHYS TGT FOREIGN NATION'
p628
S''
sS'HUM TGT NUMBER'
p629
S'1 JORGE ADOLFO VARGAS GONZALEZ'
p630
sS'PHYS TGT TYPE'
p631
S''
sS'HUM TGT NAME'
p632
S'JORGE ADOLFO VARGAS GONZALEZ'
p633
sS'INCIDENT TYPE'
p634
S'ATTACK'
p635
sS'PHYS TGT NUMBER'
p636
S''
sS'PERP INDIVIDUAL ID'
p637
S''
sS'INCIDENT STAGE OF EXECUTION'
p638
S'ACCOMPLISHED'
p639
sS'HUM TGT DESCRIPTION'
p640
S'SECOND SECRETARY OF THE NICARAGUAN EMBASSY IN GUATEMALA JORGE ADOLFO VARGAS GONZALEZ'
p641
sS'PHYS TGT EFFECT OF INCIDENT'
p642
S''
sS'HUM TGT FOREIGN NATION'
p643
S'NICARAGUA JORGE ADOLFO VARGAS GONZALEZ'
p644
sS'INCIDENT DATE'
p645
S'21 DEC 89'
p646
sS'MESSAGE TEMPLATE'
p647
S'1'
sS'PHYS TGT TOTAL NUMBER'
p648
S''
ssS'TST2-MUC4-0059'
p649
(dp650
S'PERP ORGANIZATION CONFIDENCE'
p651
S''
sS'HUM TGT EFFECT OF INCIDENT'
p652
S'NO INJURY GUARD GUARD AT THE COMPANY'
p653
sS'INCIDENT LOCATION'
p654
S'COLOMBIA BOGOTA CITY QUIRIGUA SUBURB'
p655
sS'PHYS TGT ID'
p656
S'BRANCH OF THE CITYS ELECTRIC ENERGY ENTERPRISE ELECTRIC ENERGY ENTERPRISE'
p657
sS'PERP INCIDENT CATEGORY'
p658
S'TERRORIST ACT'
p659
sS'PERP ORGANIZATION ID'
p660
S''
sS'HUM TGT TYPE'
p661
S'SECURITY GUARD GUARD GUARD AT THE COMPANY'
p662
sS'HUM TGT TOTAL NUMBER'
p663
S''
sS'INCIDENT INSTRUMENT ID'
p664
S'BOMB'
p665
sS'INCIDENT INSTRUMENT TYPE'
p666
S'BOMB BOMB'
p667
sS'PHYS TGT FOREIGN NATION'
p668
S''
sS'HUM TGT NUMBER'
p669
S'1 GUARD GUARD AT THE COMPANY'
p670
sS'PHYS TGT TYPE'
p671
S'ENERGY BRANCH OF THE CITYS ELECTRIC ENERGY ENTERPRISE ELECTRIC ENERGY ENTERPRISE'
p672
sS'HUM TGT NAME'
p673
S''
sS'INCIDENT TYPE'
p674
S'BOMBING'
p675
sS'PHYS TGT NUMBER'
p676
S'1 BRANCH OF THE CITYS ELECTRIC ENERGY ENTERPRISE ELECTRIC ENERGY ENTERPRISE'
p677
sS'PERP INDIVIDUAL ID'
p678
S'TWO INDIVIDUALS WHO WERE PASSING BY THE BUILDING TWO INDIVIDUALS INDIVIDUALS'
p679
sS'INCIDENT STAGE OF EXECUTION'
p680
S'ACCOMPLISHED'
p681
sS'HUM TGT DESCRIPTION'
p682
S'GUARD GUARD AT THE COMPANY'
p683
sS'PHYS TGT EFFECT OF INCIDENT'
p684
S'DESTROYED BRANCH OF THE CITYS ELECTRIC ENERGY ENTERPRISE ELECTRIC ENERGY ENTERPRISE'
p685
sS'HUM TGT FOREIGN NATION'
p686
S''
sS'INCIDENT DATE'
p687
S'25 SEP 89 25 SEP 89'
p688
sS'MESSAGE TEMPLATE'
p689
S'3'
sS'PHYS TGT TOTAL NUMBER'
p690
S''
ssS'TST2-MUC4-0058'
p691
(dp692
S'PERP ORGANIZATION CONFIDENCE'
p693
S''
sS'HUM TGT EFFECT OF INCIDENT'
p694
S''
sS'INCIDENT LOCATION'
p695
S''
sS'PHYS TGT ID'
p696
S''
sS'PERP INCIDENT CATEGORY'
p697
S''
sS'PERP ORGANIZATION ID'
p698
S''
sS'HUM TGT TYPE'
p699
S''
sS'HUM TGT TOTAL NUMBER'
p700
S''
sS'INCIDENT INSTRUMENT ID'
p701
S''
sS'INCIDENT INSTRUMENT TYPE'
p702
S''
sS'PHYS TGT FOREIGN NATION'
p703
S''
sS'HUM TGT NUMBER'
p704
S''
sS'PHYS TGT TYPE'
p705
S''
sS'HUM TGT NAME'
p706
S''
sS'INCIDENT TYPE'
p707
S''
sS'PHYS TGT NUMBER'
p708
S''
sS'PERP INDIVIDUAL ID'
p709
S''
sS'INCIDENT STAGE OF EXECUTION'
p710
S''
sS'HUM TGT DESCRIPTION'
p711
S''
sS'PHYS TGT EFFECT OF INCIDENT'
p712
S''
sS'HUM TGT FOREIGN NATION'
p713
S''
sS'INCIDENT DATE'
p714
S''
sS'MESSAGE TEMPLATE'
p715
S''
sS'PHYS TGT TOTAL NUMBER'
p716
S''
ssS'TST2-MUC4-0100'
p717
(dp718
S'PERP ORGANIZATION CONFIDENCE'
p719
S'REPORTED AS FACT CLAIMED OR ADMITTED ARMY OF NATIONAL LIBERATION'
p720
sS'HUM TGT EFFECT OF INCIDENT'
p721
S'REGAINED FREEDOM CARLOS MARCELO'
p722
sS'INCIDENT LOCATION'
p723
S'COLOMBIA'
p724
sS'PHYS TGT ID'
p725
S''
sS'PERP INCIDENT CATEGORY'
p726
S'TERRORIST ACT'
p727
sS'PERP ORGANIZATION ID'
p728
S'ARMY OF NATIONAL LIBERATION'
p729
sS'HUM TGT TYPE'
p730
S'CIVILIAN CARLOS MARCELO'
p731
sS'HUM TGT TOTAL NUMBER'
p732
S''
sS'INCIDENT INSTRUMENT ID'
p733
S''
sS'INCIDENT INSTRUMENT TYPE'
p734
S''
sS'PHYS TGT FOREIGN NATION'
p735
S''
sS'HUM TGT NUMBER'
p736
S'1 CARLOS MARCELO'
p737
sS'PHYS TGT TYPE'
p738
S''
sS'HUM TGT NAME'
p739
S'CARLOS MARCELO'
p740
sS'INCIDENT TYPE'
p741
S'KIDNAPPING'
p742
sS'PHYS TGT NUMBER'
p743
S''
sS'PERP INDIVIDUAL ID'
p744
S'COLOMBIAN ARMY OF NATIONAL LIBERATION GUERRILLAS ARMY OF NATIONAL LIBERATION GUERRILLAS GUERRILLAS'
p745
sS'BRASPETRO PETROBRAS INTERNATION'
p746
S'AL INC ENGINEERS ENGINEERS'
p747
sS'INCIDENT STAGE OF EXECUTION'
p748
S'ACCOMPLISHED'
p749
sS'HUM TGT DESCRIPTION'
p750
S'REDE GLOBO JOURNALIST JOURNALIST CARLOS MARCELO'
p751
sS'PHYS TGT EFFECT OF INCIDENT'
p752
S''
sS'HUM TGT FOREIGN NATION'
p753
S'BRAZIL CARLOS MARCELO'
p754
sS'INCIDENT DATE'
p755
S'26 MAY 89'
p756
sS'MESSAGE TEMPLATE'
p757
S'1'
sS'PHYS TGT TOTAL NUMBER'
p758
S''
ssS'TST2-MUC4-0022'
p759
(dp760
S'PERP ORGANIZATION CONFIDENCE'
p761
S''
sS'HUM TGT EFFECT OF INCIDENT'
p762
S'DEATH CARLOS PIZARRO'
p763
sS'INCIDENT LOCATION'
p764
S'COLOMBIA'
p765
sS'PHYS TGT ID'
p766
S''
sS'PERP INCIDENT CATEGORY'
p767
S'TERRORIST ACT'
p768
sS'PERP ORGANIZATION ID'
p769
S''
sS'HUM TGT TYPE'
p770
S'POLITICAL FIGURE CARLOS PIZARRO'
p771
sS'HUM TGT TOTAL NUMBER'
p772
S''
sS'INCIDENT INSTRUMENT ID'
p773
S''
sS'INCIDENT INSTRUMENT TYPE'
p774
S''
sS'PHYS TGT FOREIGN NATION'
p775
S''
sS'HUM TGT NUMBER'
p776
S'1 CARLOS PIZARRO'
p777
sS'PHYS TGT TYPE'
p778
S''
sS'HUM TGT NAME'
p779
S'CARLOS PIZARRO'
p780
sS'INCIDENT TYPE'
p781
S'ATTACK'
p782
sS'PHYS TGT NUMBER'
p783
S''
sS'PERP INDIVIDUAL ID'
p784
S'NARCOTRAFFICKING MAFIAS NARCOTRAFFICKERS DRUG MAFIAS MAFIA LORDS DRUG TERRORISTS'
p785
sS'INCIDENT STAGE OF EXECUTION'
p786
S'ACCOMPLISHED'
p787
sS'HUM TGT DESCRIPTION'
p788
S''
sS'PHYS TGT EFFECT OF INCIDENT'
p789
S''
sS'HUM TGT FOREIGN NATION'
p790
S''
sS'INCIDENT DATE'
p791
S'19 MAY 90'
p792
sS'MESSAGE TEMPLATE'
p793
S'1'
sS'PHYS TGT TOTAL NUMBER'
p794
S''
ssS'TST2-MUC4-0023'
p795
(dp796
S'PERP ORGANIZATION CONFIDENCE'
p797
S''
sS'HUM TGT EFFECT OF INCIDENT'
p798
S'DEATH JESUITS JESUIT PRIESTS PRIESTS'
p799
sS'INCIDENT LOCATION'
p800
S'EL SALVADOR'
p801
sS'PHYS TGT ID'
p802
S''
sS'PERP INCIDENT CATEGORY'
p803
S'STATESPONSORED VIOLENCE'
p804
sS'PERP ORGANIZATION ID'
p805
S''
sS'HUM TGT TYPE'
p806
S'CIVILIAN JESUITS JESUIT PRIESTS PRIESTS'
p807
sS'HUM TGT TOTAL NUMBER'
p808
S''
sS'INCIDENT INSTRUMENT ID'
p809
S''
sS'INCIDENT INSTRUMENT TYPE'
p810
S''
sS'PHYS TGT FOREIGN NATION'
p811
S''
sS'HUM TGT NUMBER'
p812
S'PLURAL JESUITS JESUIT PRIESTS PRIESTS'
p813
sS'PHYS TGT TYPE'
p814
S''
sS'HUM TGT NAME'
p815
S''
sS'INCIDENT TYPE'
p816
S'ATTACK'
p817
sS'PHYS TGT NUMBER'
p818
S''
sS'PERP INDIVIDUAL ID'
p819
S'SOLDIERS'
p820
sS'INCIDENT STAGE OF EXECUTION'
p821
S'ACCOMPLISHED'
p822
sS'HUM TGT DESCRIPTION'
p823
S'JESUITS JESUIT PRIESTS PRIESTS'
p824
sS'PHYS TGT EFFECT OF INCIDENT'
p825
S''
sS'HUM TGT FOREIGN NATION'
p826
S''
sS'INCIDENT DATE'
p827
S'21 JAN 90'
p828
sS'MESSAGE TEMPLATE'
p829
S'2'
sS'PHYS TGT TOTAL NUMBER'
p830
S''
ssS'TST2-MUC4-0020'
p831
(dp832
S'PERP ORGANIZATION CONFIDENCE'
p833
S'CLAIMED OR ADMITTED THE EXTRADITABLES EXTRADITABLES'
p834
sS'HUM TGT EFFECT OF INCIDENT'
p835
S'DEATH DISFIGURED BODIES DISFIGURED BODIES OF THE VICTIMS DISFIGURED BODIES OF THE VICTIMS OF AVIANCAS BOEING 727 DISFIGURED BODIES OF THE VICTIMS OF AVIANCAS BOEING 727 THAT EXPLODED IN MIDAIR IN A SPARSELY POPULATED REGION NEAR BOGOTA VICTIMS'
p836
sS'INCIDENT LOCATION'
p837
S'COLOMBIA BOGOTA CITY EL DORADO INTERNATIONAL AIRPORT AIRPORT COLOMBIA BOGOTA CITY'
p838
sS'PHYS TGT ID'
p839
S'PLANE AVIANCAS BOEING 727 AVIANCAS BOEING 727 THAT EXPLODED IN MIDAIR IN A SPARSELY POPULATED REGION NEAR BOGOTA'
p840
sS'PERP INCIDENT CATEGORY'
p841
S'TERRORIST ACT'
p842
sS'PERP ORGANIZATION ID'
p843
S'THE EXTRADITABLES EXTRADITABLES'
p844
sS'HUM TGT TYPE'
p845
S'CIVILIAN DISFIGURED BODIES DISFIGURED BODIES OF THE VICTIMS DISFIGURED BODIES OF THE VICTIMS OF AVIANCAS BOEING 727 DISFIGURED BODIES OF THE VICTIMS OF AVIANCAS BOEING 727 THAT EXPLODED IN MIDAIR IN A SPARSELY POPULATED REGION NEAR BOGOTA VICTIMS'
p846
sS'HUM TGT TOTAL NUMBER'
p847
S'107'
p848
sS'INCIDENT INSTRUMENT ID'
p849
S''
sS'INCIDENT INSTRUMENT TYPE'
p850
S'EXPLOSIVE'
p851
sS'PHYS TGT FOREIGN NATION'
p852
S''
sS'HUM TGT NUMBER'
p853
S'107 DISFIGURED BODIES DISFIGURED BODIES OF THE VICTIMS DISFIGURED BODIES OF THE VICTIMS OF AVIANCAS BOEING 727 DISFIGURED BODIES OF THE VICTIMS OF AVIANCAS BOEING 727 THAT EXPLODED IN MIDAIR IN A SPARSELY POPULATED REGION NEAR BOGOTA VICTIMS'
p854
sS'PHYS TGT TYPE'
p855
S'TRANSPORT VEHICLE PLANE AVIANCAS BOEING 727 AVIANCAS BOEING 727 THAT EXPLODED IN MIDAIR IN A SPARSELY POPULATED REGION NEAR BOGOTA'
p856
sS'HUM TGT NAME'
p857
S''
sS'INCIDENT TYPE'
p858
S'BOMBING'
p859
sS'PHYS TGT NUMBER'
p860
S'1 PLANE AVIANCAS BOEING 727 AVIANCAS BOEING 727 THAT EXPLODED IN MIDAIR IN A SPARSELY POPULATED REGION NEAR BOGOTA'
p861
sS'INFORMERS'
p862
S''
sS'PERP INDIVIDUAL ID'
p863
S'COLOMBIAN DRUG KINGPINS'
p864
sS'INCIDENT STAGE OF EXECUTION'
p865
S'ACCOMPLISHED'
p866
sS'HUM TGT DESCRIPTION'
p867
S'DISFIGURED BODIES DISFIGURED BODIES OF THE VICTIMS DISFIGURED BODIES OF THE VICTIMS OF AVIANCAS BOEING 727 DISFIGURED BODIES OF THE VICTIMS OF AVIANCAS BOEING 727 THAT EXPLODED IN MIDAIR IN A SPARSELY POPULATED REGION NEAR BOGOTA VICTIMS'
p868
sS'PHYS TGT EFFECT OF INCIDENT'
p869
S'DESTROYED PLANE AVIANCAS BOEING 727 AVIANCAS BOEING 727 THAT EXPLODED IN MIDAIR IN A SPARSELY POPULATED REGION NEAR BOGOTA'
p870
sS'HUM TGT FOREIGN NATION'
p871
S''
sS'INCIDENT DATE'
p872
S'27 NOV 89'
p873
sS'MESSAGE TEMPLATE'
p874
S'1'
sS'PHYS TGT TOTAL NUMBER'
p875
S''
ssS'TST2-MUC4-0021'
p876
(dp877
S'PERP ORGANIZATION CONFIDENCE'
p878
S''
sS'HUM TGT EFFECT OF INCIDENT'
p879
S''
sS'INCIDENT LOCATION'
p880
S'EL SALVADOR SAN SALVADOR CITY CUSCATANCINGO NEIGHBORHOOD'
p881
sS'PHYS TGT ID'
p882
S'ELECTRICITY POLES'
p883
sS'PERP INCIDENT CATEGORY'
p884
S'TERRORIST ACT'
p885
sS'PERP ORGANIZATION ID'
p886
S''
sS'HUM TGT TYPE'
p887
S''
sS'HUM TGT TOTAL NUMBER'
p888
S''
sS'INCIDENT INSTRUMENT ID'
p889
S'DYNAMITE'
p890
sS'INCIDENT INSTRUMENT TYPE'
p891
S'DYNAMITE DYNAMITE'
p892
sS'PHYS TGT FOREIGN NATION'
p893
S''
sS'HUM TGT NUMBER'
p894
S''
sS'PHYS TGT TYPE'
p895
S'ENERGY ELECTRICITY POLES'
p896
sS'HUM TGT NAME'
p897
S''
sS'INCIDENT TYPE'
p898
S'BOMBING'
p899
sS'PHYS TGT NUMBER'
p900
S'PLURAL ELECTRICITY POLES'
p901
sS'PERP INDIVIDUAL ID'
p902
S'REBELS'
p903
sS'INCIDENT STAGE OF EXECUTION'
p904
S'ACCOMPLISHED'
p905
sS'HUM TGT DESCRIPTION'
p906
S''
sS'PHYS TGT EFFECT OF INCIDENT'
p907
S'DESTROYED ELECTRICITY POLES'
p908
sS'HUM TGT FOREIGN NATION'
p909
S''
sS'INCIDENT DATE'
p910
S'08 MAR 90 07 MAR 90 08 MAR 90'
p911
sS'MESSAGE TEMPLATE'
p912
S'4'
sS'PHYS TGT TOTAL NUMBER'
p913
S''
ssS'TST2-MUC4-0026'
p914
(dp915
S'PERP ORGANIZATION CONFIDENCE'
p916
S'POSSIBLE SUSPECTED OR ACCUSED BY AUTHORITIES ARMY'
p917
sS'HUM TGT EFFECT OF INCIDENT'
p918
S'DEATH BERNARDO JARAMILLO'
p919
sS'INCIDENT LOCATION'
p920
S'COLOMBIA'
p921
sS'PHYS TGT ID'
p922
S''
sS'PERP INCIDENT CATEGORY'
p923
S'TERRORIST ACT STATESPONSORED VIOLENCE'
p924
sS'PERP ORGANIZATION ID'
p925
S'ARMY'
p926
sS'HUM TGT TYPE'
p927
S'POLITICAL FIGURE BERNARDO JARAMILLO'
p928
sS'HUM TGT TOTAL NUMBER'
p929
S''
sS'INCIDENT INSTRUMENT ID'
p930
S''
sS'INCIDENT INSTRUMENT TYPE'
p931
S''
sS'PHYS TGT FOREIGN NATION'
p932
S''
sS'HUM TGT NUMBER'
p933
S'1 BERNARDO JARAMILLO'
p934
sS'PHYS TGT TYPE'
p935
S''
sS'HUM TGT NAME'
p936
S'BERNARDO JARAMILLO'
p937
sS'INCIDENT TYPE'
p938
S'ATTACK'
p939
sS'PHYS TGT NUMBER'
p940
S''
sS'PERP INDIVIDUAL ID'
p941
S'FIDEL CASTANO'
p942
sS'INCIDENT STAGE OF EXECUTION'
p943
S'ACCOMPLISHED'
p944
sS'HUM TGT DESCRIPTION'
p945
S'PRESIDENTIAL CANDIDATE BERNARDO JARAMILLO'
p946
sS'PHYS TGT EFFECT OF INCIDENT'
p947
S''
sS'HUM TGT FOREIGN NATION'
p948
S''
sS'INCIDENT DATE'
p949
S'22 MAR 90'
p950
sS'MESSAGE TEMPLATE'
p951
S'2'
sS'PHYS TGT TOTAL NUMBER'
p952
S''
ssS'TST2-MUC4-0027'
p953
(dp954
S'PERP ORGANIZATION CONFIDENCE'
p955
S'REPORTED AS FACT FMLN'
p956
sS'HUM TGT EFFECT OF INCIDENT'
p957
S''
sS'INCIDENT LOCATION'
p958
S'EL SALVADOR CHALATENANGO CITY EL SALVADOR CHALATENANGO COUNTY EL SALVADOR CHALATENANGO DEPARTMENT EL SALVADOR CHALATENANGO JURISDICTION'
p959
sS'PHYS TGT ID'
p960
S''
sS'PERP INCIDENT CATEGORY'
p961
S'TERRORIST ACT'
p962
sS'PERP ORGANIZATION ID'
p963
S'FMLN'
p964
sS'HUM TGT TYPE'
p965
S'CIVILIAN YOUTHS'
p966
sS'HUM TGT TOTAL NUMBER'
p967
S''
sS'INCIDENT INSTRUMENT ID'
p968
S''
sS'INCIDENT INSTRUMENT TYPE'
p969
S''
sS'PHYS TGT FOREIGN NATION'
p970
S''
sS'HUM TGT NUMBER'
p971
S'PLURAL YOUTHS'
p972
sS'PHYS TGT TYPE'
p973
S''
sS'HUM TGT NAME'
p974
S''
sS'INCIDENT TYPE'
p975
S'KIDNAPPING'
p976
sS'PHYS TGT NUMBER'
p977
S''
sS'PERP INDIVIDUAL ID'
p978
S''
sS'INCIDENT STAGE OF EXECUTION'
p979
S'ACCOMPLISHED'
p980
sS'HUM TGT DESCRIPTION'
p981
S'YOUTHS'
p982
sS'PHYS TGT EFFECT OF INCIDENT'
p983
S''
sS'HUM TGT FOREIGN NATION'
p984
S''
sS'INCIDENT DATE'
p985
S'06 DEC 89'
p986
sS'MESSAGE TEMPLATE'
p987
S'3 OPTIONAL'
p988
sS'PHYS TGT TOTAL NUMBER'
p989
S''
ssS'TST2-MUC4-0024'
p990
(dp991
S'PERP ORGANIZATION CONFIDENCE'
p992
S'SUSPECTED OR ACCUSED BY AUTHORITIES FMLN'
p993
sS'HUM TGT EFFECT OF INCIDENT'
p994
S''
sS'INCIDENT LOCATION'
p995
S'EL SALVADOR SAN SALVADOR CITY'
p996
sS'PHYS TGT ID'
p997
S''
sS'PERP INCIDENT CATEGORY'
p998
S'TERRORIST ACT'
p999
sS'PERP ORGANIZATION ID'
p1000
S'FMLN'
p1001
sS'HUM TGT TYPE'
p1002
S'CIVILIAN RELATIVE OF COLONEL LOPEZ HUILA'
p1003
sS'HUM TGT TOTAL NUMBER'
p1004
S''
sS'INCIDENT INSTRUMENT ID'
p1005
S''
sS'INCIDENT INSTRUMENT TYPE'
p1006
S''
sS'PHYS TGT FOREIGN NATION'
p1007
S''
sS'HUM TGT NUMBER'
p1008
S'1 RELATIVE OF COLONEL LOPEZ HUILA'
p1009
sS'PHYS TGT TYPE'
p1010
S''
sS'HUM TGT NAME'
p1011
S''
sS'INCIDENT TYPE'
p1012
S'ATTACK'
p1013
sS'PHYS TGT NUMBER'
p1014
S''
sS'PERP INDIVIDUAL ID'
p1015
S''
sS'INCIDENT STAGE OF EXECUTION'
p1016
S'ACCOMPLISHED'
p1017
sS'HUM TGT DESCRIPTION'
p1018
S'RELATIVE OF COLONEL LOPEZ HUILA'
p1019
sS'PHYS TGT EFFECT OF INCIDENT'
p1020
S''
sS'HUM TGT FOREIGN NATION'
p1021
S''
sS'INCIDENT DATE'
p1022
S''
sS'MESSAGE TEMPLATE'
p1023
S'2'
sS'PHYS TGT TOTAL NUMBER'
p1024
S''
ssS'TST2-MUC4-0025'
p1025
(dp1026
S'PERP ORGANIZATION CONFIDENCE'
p1027
S''
sS'HUM TGT EFFECT OF INCIDENT'
p1028
S'DEATH JESUIT PRIESTS COMMUNITY OF JESUIT PRIESTS PRIESTS'
p1029
sS'INCIDENT LOCATION'
p1030
S'EL SALVADOR SAN SALVADOR CITY EL SALVADOR SAN SALVADOR DEPARTMENT'
p1031
sS'PHYS TGT ID'
p1032
S''
sS'PERP INCIDENT CATEGORY'
p1033
S''
sS'PERP ORGANIZATION ID'
p1034
S''
sS'HUM TGT TYPE'
p1035
S'CIVILIAN JESUIT PRIESTS COMMUNITY OF JESUIT PRIESTS PRIESTS'
p1036
sS'HUM TGT TOTAL NUMBER'
p1037
S'6'
sS'INCIDENT INSTRUMENT ID'
p1038
S''
sS'INCIDENT INSTRUMENT TYPE'
p1039
S''
sS'PHYS TGT FOREIGN NATION'
p1040
S''
sS'HUM TGT NUMBER'
p1041
S'1 IGNACIO ELLACURIA'
p1042
sS'4 JESUIT PRIESTS COMMUNITY'
p1043
S'OF JESUIT PRIESTS PRIESTS'
p1044
sS'PHYS TGT TYPE'
p1045
S''
sS'HUM TGT NAME'
p1046
S'IGNACIO ELLACURIA'
p1047
sS'WOMEN'
p1048
S''
sS'INCIDENT TYPE'
p1049
S'ATTACK'
p1050
sS'PHYS TGT NUMBER'
p1051
S''
sS'PERP INDIVIDUAL ID'
p1052
S'UNIFORMED MEN'
p1053
sS'INCIDENT STAGE OF EXECUTION'
p1054
S'ACCOMPLISHED'
p1055
sS'HUM TGT DESCRIPTION'
p1056
S'CENTRAL AMERICAN UNIVERSITY RECTOR RECTOR IGNACIO ELLACURIA'
p1057
sS'PHYS TGT EFFECT OF INCIDENT'
p1058
S''
sS'HUM TGT FOREIGN NATION'
p1059
S''
sS'INCIDENT DATE'
p1060
S'16 NOV 89'
p1061
sS'MESSAGE TEMPLATE'
p1062
S'1'
sS'PHYS TGT TOTAL NUMBER'
p1063
S''
ssS'TST2-MUC4-0028'
p1064
(dp1065
S'PERP ORGANIZATION CONFIDENCE'
p1066
S'SUSPECTED OR ACCUSED NATIONALIST REPUBLICAN ALLIANCE ARENA GOVERNMENT ALFREDO CRISTIANIS GOVERNMENT GOVERNMENT'
p1067
sS'HUM TGT EFFECT OF INCIDENT'
p1068
S''
sS'INCIDENT LOCATION'
p1069
S'EL SALVADOR CENTRAL AMERICAN UNIVERSITY UNIVERSITY EL SALVADOR NATIONAL UNIVERSITY UNIVERSITY'
p1070
sS'PHYS TGT ID'
p1071
S'CENTRAL AMERICAN UNIVERSITY UCA CENTRAL AMERICAN UNIVERSITY UCA NATIONAL UNIVERSITY'
p1072
sS'PERP INCIDENT CATEGORY'
p1073
S'STATESPONSORED VIOLENCE'
p1074
sS'PERP ORGANIZATION ID'
p1075
S'NATIONALIST REPUBLICAN ALLIANCE ARENA GOVERNMENT ALFREDO CRISTIANIS GOVERNMENT GOVERNMENT'
p1076
sS'HUM TGT TYPE'
p1077
S''
sS'HUM TGT TOTAL NUMBER'
p1078
S''
sS'INCIDENT INSTRUMENT ID'
p1079
S'BOMB'
p1080
sS'INCIDENT INSTRUMENT TYPE'
p1081
S'BOMB BOMB'
p1082
sS'PHYS TGT FOREIGN NATION'
p1083
S''
sS'HUM TGT NUMBER'
p1084
S''
sS'PHYS TGT TYPE'
p1085
S'OTHER CENTRAL AMERICAN UNIVERSITY UCA CENTRAL AMERICAN UNIVERSITY UCA NATIONAL UNIVERSITY'
p1086
sS'HUM TGT NAME'
p1087
S''
sS'INCIDENT TYPE'
p1088
S'BOMBING'
p1089
sS'PHYS TGT NUMBER'
p1090
S'1 CENTRAL AMERICAN UNIVERSITY UCA CENTRAL AMERICAN UNIVERSITY UCA NATIONAL UNIVERSITY'
p1091
sS'PERP INDIVIDUAL ID'
p1092
S''
sS'INCIDENT STAGE OF EXECUTION'
p1093
S'ACCOMPLISHED'
p1094
sS'HUM TGT DESCRIPTION'
p1095
S''
sS'PHYS TGT EFFECT OF INCIDENT'
p1096
S''
sS'HUM TGT FOREIGN NATION'
p1097
S''
sS'INCIDENT DATE'
p1098
S'22 JUL 89'
p1099
sS'MESSAGE TEMPLATE'
p1100
S'1'
sS'PHYS TGT TOTAL NUMBER'
p1101
S''
ssS'TST2-MUC4-0029'
p1102
(dp1103
S'PERP ORGANIZATION CONFIDENCE'
p1104
S''
sS'HUM TGT EFFECT OF INCIDENT'
p1105
S''
sS'INCIDENT LOCATION'
p1106
S''
sS'PHYS TGT ID'
p1107
S''
sS'PERP INCIDENT CATEGORY'
p1108
S''
sS'PERP ORGANIZATION ID'
p1109
S''
sS'HUM TGT TYPE'
p1110
S''
sS'HUM TGT TOTAL NUMBER'
p1111
S''
sS'INCIDENT INSTRUMENT ID'
p1112
S''
sS'INCIDENT INSTRUMENT TYPE'
p1113
S''
sS'PHYS TGT FOREIGN NATION'
p1114
S''
sS'HUM TGT NUMBER'
p1115
S''
sS'PHYS TGT TYPE'
p1116
S''
sS'HUM TGT NAME'
p1117
S''
sS'INCIDENT TYPE'
p1118
S''
sS'PHYS TGT NUMBER'
p1119
S''
sS'PERP INDIVIDUAL ID'
p1120
S''
sS'INCIDENT STAGE OF EXECUTION'
p1121
S''
sS'HUM TGT DESCRIPTION'
p1122
S''
sS'PHYS TGT EFFECT OF INCIDENT'
p1123
S''
sS'HUM TGT FOREIGN NATION'
p1124
S''
sS'INCIDENT DATE'
p1125
S''
sS'MESSAGE TEMPLATE'
p1126
S''
sS'PHYS TGT TOTAL NUMBER'
p1127
S''
ssS'TST2-MUC4-0031'
p1128
(dp1129
S'PERP ORGANIZATION CONFIDENCE'
p1130
S''
sS'HUM TGT EFFECT OF INCIDENT'
p1131
S''
sS'INCIDENT LOCATION'
p1132
S'HONDURAS INTIBUCA DEPARTMENT LOS LLANITOS CITY'
p1133
sS'PHYS TGT ID'
p1134
S'HELICOPTER'
p1135
sS'PERP INCIDENT CATEGORY'
p1136
S'STATESPONSORED VIOLENCE'
p1137
sS'PERP ORGANIZATION ID'
p1138
S''
sS'HUM TGT TYPE'
p1139
S''
sS'HUM TGT TOTAL NUMBER'
p1140
S''
sS'INCIDENT INSTRUMENT ID'
p1141
S'MACHINEGUNS'
p1142
sS'INCIDENT INSTRUMENT TYPE'
p1143
S'MACHINE GUN MACHINEGUNS'
p1144
sS'PHYS TGT FOREIGN NATION'
p1145
S''
sS'HUM TGT NUMBER'
p1146
S''
sS'PHYS TGT TYPE'
p1147
S'TRANSPORT VEHICLE HELICOPTER'
p1148
sS'HUM TGT NAME'
p1149
S''
sS'INCIDENT TYPE'
p1150
S'ATTACK'
p1151
sS'PHYS TGT NUMBER'
p1152
S'1 HELICOPTER'
p1153
sS'PERP INDIVIDUAL ID'
p1154
S''
sS'INCIDENT STAGE OF EXECUTION'
p1155
S'ACCOMPLISHED'
p1156
sS'HUM TGT DESCRIPTION'
p1157
S''
sS'PHYS TGT EFFECT OF INCIDENT'
p1158
S'SOME DAMAGE HOMES'
p1159
sS'HUM TGT FOREIGN NATION'
p1160
S''
sS'INCIDENT DATE'
p1161
S'29 MAY 89'
p1162
sS'MESSAGE TEMPLATE'
p1163
S'2'
sS'PHYS TGT TOTAL NUMBER'
p1164
S''
ssS'TST2-MUC4-0030'
p1165
(dp1166
S'PERP ORGANIZATION CONFIDENCE'
p1167
S''
sS'HUM TGT EFFECT OF INCIDENT'
p1168
S''
sS'INCIDENT LOCATION'
p1169
S''
sS'PHYS TGT ID'
p1170
S''
sS'PERP INCIDENT CATEGORY'
p1171
S''
sS'PERP ORGANIZATION ID'
p1172
S''
sS'HUM TGT TYPE'
p1173
S''
sS'HUM TGT TOTAL NUMBER'
p1174
S''
sS'INCIDENT INSTRUMENT ID'
p1175
S''
sS'INCIDENT INSTRUMENT TYPE'
p1176
S''
sS'PHYS TGT FOREIGN NATION'
p1177
S''
sS'HUM TGT NUMBER'
p1178
S''
sS'PHYS TGT TYPE'
p1179
S''
sS'HUM TGT NAME'
p1180
S''
sS'INCIDENT TYPE'
p1181
S''
sS'PHYS TGT NUMBER'
p1182
S''
sS'PERP INDIVIDUAL ID'
p1183
S''
sS'INCIDENT STAGE OF EXECUTION'
p1184
S''
sS'HUM TGT DESCRIPTION'
p1185
S''
sS'PHYS TGT EFFECT OF INCIDENT'
p1186
S''
sS'HUM TGT FOREIGN NATION'
p1187
S''
sS'INCIDENT DATE'
p1188
S''
sS'MESSAGE TEMPLATE'
p1189
S''
sS'PHYS TGT TOTAL NUMBER'
p1190
S''
ssS'TST2-MUC4-0033'
p1191
(dp1192
S'PERP ORGANIZATION CONFIDENCE'
p1193
S''
sS'HUM TGT EFFECT OF INCIDENT'
p1194
S'DEATH FRANCISCO JOSE GUERRERO'
p1195
sS'INCIDENT LOCATION'
p1196
S'EL SALVADOR SAN SALVADOR CITY EL SALVADOR'
p1197
sS'PHYS TGT ID'
p1198
S''
sS'PERP INCIDENT CATEGORY'
p1199
S'TERRORIST ACT'
p1200
sS'PERP ORGANIZATION ID'
p1201
S''
sS'HUM TGT TYPE'
p1202
S'FORMER GOVERNMENT OFFICIAL CIVILIAN FRANCISCO JOSE GUERRERO'
p1203
sS'HUM TGT TOTAL NUMBER'
p1204
S''
sS'INCIDENT INSTRUMENT ID'
p1205
S''
sS'INCIDENT INSTRUMENT TYPE'
p1206
S'GUN'
p1207
sS'PHYS TGT FOREIGN NATION'
p1208
S''
sS'HUM TGT NUMBER'
p1209
S'1 FRANCISCO JOSE GUERRERO'
p1210
sS'PHYS TGT TYPE'
p1211
S''
sS'HUM TGT NAME'
p1212
S'FRANCISCO JOSE GUERRERO'
p1213
sS'INCIDENT TYPE'
p1214
S'ATTACK'
p1215
sS'PHYS TGT NUMBER'
p1216
S''
sS'PERP INDIVIDUAL ID'
p1217
S'TERRORISTS CRIMINALS'
p1218
sS'INCIDENT STAGE OF EXECUTION'
p1219
S'ACCOMPLISHED'
p1220
sS'HUM TGT DESCRIPTION'
p1221
S'FORMER SUPREME COURT PRESIDENT ADVISER TO THE GOVERNMENT COMMISSION FOR SUPPORT TO THE DIALOGUE ADVISER TO THE GOVERNMENT COMMISSION FOR SUPPORT TO THE DIALOGUE COMISION DE APOYO GUBERNAMENTAL DE DIALOGO FRANCISCO JOSE GUERRERO'
p1222
sS'PHYS TGT EFFECT OF INCIDENT'
p1223
S''
sS'HUM TGT FOREIGN NATION'
p1224
S''
sS'INCIDENT DATE'
p1225
S'28 NOV 89 28 NOV 89'
p1226
sS'MESSAGE TEMPLATE'
p1227
S'1'
sS'PHYS TGT TOTAL NUMBER'
p1228
S''
ssS'TST2-MUC4-0032'
p1229
(dp1230
S'PERP ORGANIZATION CONFIDENCE'
p1231
S'CLAIMED OR ADMITTED THE EXTRADITABLES EXTRADITABLES'
p1232
sS'HUM TGT EFFECT OF INCIDENT'
p1233
S''
sS'INCIDENT LOCATION'
p1234
S'COLOMBIA COLOMBIA BOGOTA CITY'
p1235
sS'PHYS TGT ID'
p1236
S''
sS'PERP INCIDENT CATEGORY'
p1237
S'TERRORIST ACT'
p1238
sS'PERP ORGANIZATION ID'
p1239
S'THE EXTRADITABLES EXTRADITABLES'
p1240
sS'HUM TGT TYPE'
p1241
S'POLITICAL FIGURE POLITICAL FIGURES'
p1242
sS'HUM TGT TOTAL NUMBER'
p1243
S''
sS'INCIDENT INSTRUMENT ID'
p1244
S''
sS'INCIDENT INSTRUMENT TYPE'
p1245
S''
sS'PHYS TGT FOREIGN NATION'
p1246
S''
sS'HUM TGT NUMBER'
p1247
S'1 CESAR GAVIRIA TRUJILLO'
p1248
sS'PHYS TGT TYPE'
p1249
S''
sS'HUM TGT NAME'
p1250
S'CESAR GAVIRIA TRUJILLO'
p1251
sS'INCIDENT TYPE'
p1252
S'ATTACK'
p1253
sS'PHYS TGT NUMBER'
p1254
S''
sS'PERP INDIVIDUAL ID'
p1255
S'CALLERS'
p1256
sS'INCIDENT STAGE OF EXECUTION'
p1257
S'THREATENED'
p1258
sS'HUM TGT DESCRIPTION'
p1259
S'LIBERAL PARTY CANDIDATE CESAR GAVIRIA TRUJILLO'
p1260
sS'PHYS TGT EFFECT OF INCIDENT'
p1261
S''
sS'HUM TGT FOREIGN NATION'
p1262
S''
sS'INCIDENT DATE'
p1263
S'22 MAR 90'
p1264
sS'MESSAGE TEMPLATE'
p1265
S'2'
sS'PHYS TGT TOTAL NUMBER'
p1266
S''
ssS'TST2-MUC4-0035'
p1267
(dp1268
S'PERP ORGANIZATION CONFIDENCE'
p1269
S''
sS'HUM TGT EFFECT OF INCIDENT'
p1270
S''
sS'INCIDENT LOCATION'
p1271
S''
sS'PHYS TGT ID'
p1272
S''
sS'PERP INCIDENT CATEGORY'
p1273
S''
sS'PERP ORGANIZATION ID'
p1274
S''
sS'HUM TGT TYPE'
p1275
S''
sS'HUM TGT TOTAL NUMBER'
p1276
S''
sS'INCIDENT INSTRUMENT ID'
p1277
S''
sS'INCIDENT INSTRUMENT TYPE'
p1278
S''
sS'PHYS TGT FOREIGN NATION'
p1279
S''
sS'HUM TGT NUMBER'
p1280
S''
sS'PHYS TGT TYPE'
p1281
S''
sS'HUM TGT NAME'
p1282
S''
sS'INCIDENT TYPE'
p1283
S''
sS'PHYS TGT NUMBER'
p1284
S''
sS'PERP INDIVIDUAL ID'
p1285
S''
sS'INCIDENT STAGE OF EXECUTION'
p1286
S''
sS'HUM TGT DESCRIPTION'
p1287
S''
sS'PHYS TGT EFFECT OF INCIDENT'
p1288
S''
sS'HUM TGT FOREIGN NATION'
p1289
S''
sS'INCIDENT DATE'
p1290
S''
sS'MESSAGE TEMPLATE'
p1291
S''
sS'PHYS TGT TOTAL NUMBER'
p1292
S''
ssS'TST2-MUC4-0034'
p1293
(dp1294
S'PERP ORGANIZATION CONFIDENCE'
p1295
S''
sS'HUM TGT EFFECT OF INCIDENT'
p1296
S'DEATH EDUARDO ANTONIO LOPEZ PALENCIA'
p1297
sS'INCIDENT LOCATION'
p1298
S'GUATEMALA'
p1299
sS'PHYS TGT ID'
p1300
S''
sS'PERP INCIDENT CATEGORY'
p1301
S''
sS'PERP ORGANIZATION ID'
p1302
S''
sS'HUM TGT TYPE'
p1303
S'CIVILIAN EDUARDO ANTONIO LOPEZ PALENCIA'
p1304
sS'HUM TGT TOTAL NUMBER'
p1305
S''
sS'INCIDENT INSTRUMENT ID'
p1306
S''
sS'INCIDENT INSTRUMENT TYPE'
p1307
S''
sS'PHYS TGT FOREIGN NATION'
p1308
S''
sS'HUM TGT NUMBER'
p1309
S'1 EDUARDO ANTONIO LOPEZ PALENCIA'
p1310
sS'PHYS TGT TYPE'
p1311
S''
sS'HUM TGT NAME'
p1312
S'EDUARDO ANTONIO LOPEZ PALENCIA'
p1313
sS'INCIDENT TYPE'
p1314
S'KIDNAPPING'
p1315
sS'PHYS TGT NUMBER'
p1316
S''
sS'PERP INDIVIDUAL ID'
p1317
S''
sS'INCIDENT STAGE OF EXECUTION'
p1318
S'ACCOMPLISHED'
p1319
sS'HUM TGT DESCRIPTION'
p1320
S'STUDENT EDUARDO ANTONIO LOPEZ PALENCIA'
p1321
sS'PHYS TGT EFFECT OF INCIDENT'
p1322
S''
sS'HUM TGT FOREIGN NATION'
p1323
S''
sS'INCIDENT DATE'
p1324
S'15 SEP 89'
p1325
sS'MESSAGE TEMPLATE'
p1326
S'4'
sS'PHYS TGT TOTAL NUMBER'
p1327
S''
ssS'TST2-MUC4-0037'
p1328
(dp1329
S'PERP ORGANIZATION CONFIDENCE'
p1330
S''
sS'HUM TGT EFFECT OF INCIDENT'
p1331
S''
sS'INCIDENT LOCATION'
p1332
S''
sS'PHYS TGT ID'
p1333
S''
sS'PERP INCIDENT CATEGORY'
p1334
S''
sS'PERP ORGANIZATION ID'
p1335
S''
sS'HUM TGT TYPE'
p1336
S''
sS'HUM TGT TOTAL NUMBER'
p1337
S''
sS'INCIDENT INSTRUMENT ID'
p1338
S''
sS'INCIDENT INSTRUMENT TYPE'
p1339
S''
sS'PHYS TGT FOREIGN NATION'
p1340
S''
sS'HUM TGT NUMBER'
p1341
S''
sS'PHYS TGT TYPE'
p1342
S''
sS'HUM TGT NAME'
p1343
S''
sS'INCIDENT TYPE'
p1344
S''
sS'PHYS TGT NUMBER'
p1345
S''
sS'PERP INDIVIDUAL ID'
p1346
S''
sS'INCIDENT STAGE OF EXECUTION'
p1347
S''
sS'HUM TGT DESCRIPTION'
p1348
S''
sS'PHYS TGT EFFECT OF INCIDENT'
p1349
S''
sS'HUM TGT FOREIGN NATION'
p1350
S''
sS'INCIDENT DATE'
p1351
S''
sS'MESSAGE TEMPLATE'
p1352
S''
sS'PHYS TGT TOTAL NUMBER'
p1353
S''
ssS'TST2-MUC4-0036'
p1354
(dp1355
S'PERP ORGANIZATION CONFIDENCE'
p1356
S'REPORTED AS FACT ATONAL BATTALION'
p1357
sS'HUM TGT EFFECT OF INCIDENT'
p1358
S''
sS'INCIDENT LOCATION'
p1359
S'EL SALVADOR'
p1360
sS'PHYS TGT ID'
p1361
S''
sS'PERP INCIDENT CATEGORY'
p1362
S'STATESPONSORED VIOLENCE'
p1363
sS'PERP ORGANIZATION ID'
p1364
S'ATONAL BATTALION'
p1365
sS'HUM TGT TYPE'
p1366
S'CIVILIAN ROBERTO MENA'
p1367
sS'HUM TGT TOTAL NUMBER'
p1368
S''
sS'INCIDENT INSTRUMENT ID'
p1369
S''
sS'INCIDENT INSTRUMENT TYPE'
p1370
S''
sS'PHYS TGT FOREIGN NATION'
p1371
S''
sS'HUM TGT NUMBER'
p1372
S'1 ROBERTO MENA'
p1373
sS'PHYS TGT TYPE'
p1374
S''
sS'HUM TGT NAME'
p1375
S'ROBERTO MENA'
p1376
sS'INCIDENT TYPE'
p1377
S'KIDNAPPING'
p1378
sS'PHYS TGT NUMBER'
p1379
S''
sS'PERP INDIVIDUAL ID'
p1380
S'ATONAL BATTALION TROOPS TROOPS'
p1381
sS'INCIDENT STAGE OF EXECUTION'
p1382
S'ACCOMPLISHED'
p1383
sS'HUM TGT DESCRIPTION'
p1384
S''
sS'PHYS TGT EFFECT OF INCIDENT'
p1385
S''
sS'HUM TGT FOREIGN NATION'
p1386
S''
sS'INCIDENT DATE'
p1387
S'05 FEB 89'
p1388
sS'MESSAGE TEMPLATE'
p1389
S'10 OPTIONAL'
p1390
sS'PHYS TGT TOTAL NUMBER'
p1391
S''
ssS'TST2-MUC4-0039'
p1392
(dp1393
S'JAMES ARTHUR DONNELLY'
p1394
S''
sS'PERP ORGANIZATION CONFIDENCE'
p1395
S'REPORTED AS FACT ARMY OF NATIONAL LIBERATION ELN'
p1396
sS'HUM TGT EFFECT OF INCIDENT'
p1397
S''
sS'INCIDENT LOCATION'
p1398
S'COLOMBIA MEDELLIN CITY'
p1399
sS'PHYS TGT ID'
p1400
S''
sS'PERP INCIDENT CATEGORY'
p1401
S'TERRORIST ACT'
p1402
sS'PERP ORGANIZATION ID'
p1403
S'ARMY OF NATIONAL LIBERATION ELN'
p1404
sS'HUM TGT TYPE'
p1405
S'CIVILIAN LESLIE KENT'
p1406
sS'HUM TGT TOTAL NUMBER'
p1407
S'2'
sS'INCIDENT INSTRUMENT ID'
p1408
S''
sS'INCIDENT INSTRUMENT TYPE'
p1409
S''
sS'PHYS TGT FOREIGN NATION'
p1410
S''
sS'HUM TGT NUMBER'
p1411
S'1 LESLIE KENT'
p1412
sS'PHYS TGT TYPE'
p1413
S''
sS'HUM TGT NAME'
p1414
S'LESLIE KENT'
p1415
sS'INCIDENT TYPE'
p1416
S'KIDNAPPING'
p1417
sS'PHYS TGT NUMBER'
p1418
S''
sS'PERP INDIVIDUAL ID'
p1419
S'NELSON MANDELA CELL OF THE ELN NELSON MANDELA CELL'
p1420
sS'INCIDENT STAGE OF EXECUTION'
p1421
S'ACCOMPLISHED'
p1422
sS'HUM TGT DESCRIPTION'
p1423
S'PROFESSOR OF THE COLUMBUS SCHOOL IN MEDELLIN PROFESSOR OF THE COLUMBUS SCHOOL PROFESSOR LESLIE KENT'
p1424
sS'PHYS TGT EFFECT OF INCIDENT'
p1425
S''
sS'HUM TGT FOREIGN NATION'
p1426
S'UNITED STATES JAMES ARTHUR DONNELLY'
p1427
sS'INCIDENT DATE'
p1428
S'13 DEC 89'
p1429
sS'MESSAGE TEMPLATE'
p1430
S'2 OPTIONAL'
p1431
sS'PHYS TGT TOTAL NUMBER'
p1432
S''
ssS'TST2-MUC4-0038'
p1433
(dp1434
S'PERP ORGANIZATION CONFIDENCE'
p1435
S''
sS'HUM TGT EFFECT OF INCIDENT'
p1436
S''
sS'INCIDENT LOCATION'
p1437
S''
sS'PHYS TGT ID'
p1438
S''
sS'PERP INCIDENT CATEGORY'
p1439
S''
sS'PERP ORGANIZATION ID'
p1440
S''
sS'HUM TGT TYPE'
p1441
S''
sS'HUM TGT TOTAL NUMBER'
p1442
S''
sS'INCIDENT INSTRUMENT ID'
p1443
S''
sS'INCIDENT INSTRUMENT TYPE'
p1444
S''
sS'PHYS TGT FOREIGN NATION'
p1445
S''
sS'HUM TGT NUMBER'
p1446
S''
sS'PHYS TGT TYPE'
p1447
S''
sS'HUM TGT NAME'
p1448
S''
sS'INCIDENT TYPE'
p1449
S''
sS'PHYS TGT NUMBER'
p1450
S''
sS'PERP INDIVIDUAL ID'
p1451
S''
sS'INCIDENT STAGE OF EXECUTION'
p1452
S''
sS'HUM TGT DESCRIPTION'
p1453
S''
sS'PHYS TGT EFFECT OF INCIDENT'
p1454
S''
sS'HUM TGT FOREIGN NATION'
p1455
S''
sS'INCIDENT DATE'
p1456
S''
sS'MESSAGE TEMPLATE'
p1457
S''
sS'PHYS TGT TOTAL NUMBER'
p1458
S''
ssS'TST2-MUC4-0084'
p1459
(dp1460
S'PERP ORGANIZATION CONFIDENCE'
p1461
S''
sS'HUM TGT EFFECT OF INCIDENT'
p1462
S''
sS'INCIDENT LOCATION'
p1463
S''
sS'PHYS TGT ID'
p1464
S''
sS'PERP INCIDENT CATEGORY'
p1465
S''
sS'PERP ORGANIZATION ID'
p1466
S''
sS'HUM TGT TYPE'
p1467
S''
sS'HUM TGT TOTAL NUMBER'
p1468
S''
sS'INCIDENT INSTRUMENT ID'
p1469
S''
sS'INCIDENT INSTRUMENT TYPE'
p1470
S''
sS'PHYS TGT FOREIGN NATION'
p1471
S''
sS'HUM TGT NUMBER'
p1472
S''
sS'PHYS TGT TYPE'
p1473
S''
sS'HUM TGT NAME'
p1474
S''
sS'INCIDENT TYPE'
p1475
S''
sS'PHYS TGT NUMBER'
p1476
S''
sS'PERP INDIVIDUAL ID'
p1477
S''
sS'INCIDENT STAGE OF EXECUTION'
p1478
S''
sS'HUM TGT DESCRIPTION'
p1479
S''
sS'PHYS TGT EFFECT OF INCIDENT'
p1480
S''
sS'HUM TGT FOREIGN NATION'
p1481
S''
sS'INCIDENT DATE'
p1482
S''
sS'MESSAGE TEMPLATE'
p1483
S''
sS'PHYS TGT TOTAL NUMBER'
p1484
S''
ssS'TST2-MUC4-0085'
p1485
(dp1486
S'PERP ORGANIZATION CONFIDENCE'
p1487
S''
sS'HUM TGT EFFECT OF INCIDENT'
p1488
S''
sS'INCIDENT LOCATION'
p1489
S''
sS'PHYS TGT ID'
p1490
S''
sS'PERP INCIDENT CATEGORY'
p1491
S''
sS'PERP ORGANIZATION ID'
p1492
S''
sS'HUM TGT TYPE'
p1493
S''
sS'HUM TGT TOTAL NUMBER'
p1494
S''
sS'INCIDENT INSTRUMENT ID'
p1495
S''
sS'INCIDENT INSTRUMENT TYPE'
p1496
S''
sS'PHYS TGT FOREIGN NATION'
p1497
S''
sS'HUM TGT NUMBER'
p1498
S''
sS'PHYS TGT TYPE'
p1499
S''
sS'HUM TGT NAME'
p1500
S''
sS'INCIDENT TYPE'
p1501
S''
sS'PHYS TGT NUMBER'
p1502
S''
sS'PERP INDIVIDUAL ID'
p1503
S''
sS'INCIDENT STAGE OF EXECUTION'
p1504
S''
sS'HUM TGT DESCRIPTION'
p1505
S''
sS'PHYS TGT EFFECT OF INCIDENT'
p1506
S''
sS'HUM TGT FOREIGN NATION'
p1507
S''
sS'INCIDENT DATE'
p1508
S''
sS'MESSAGE TEMPLATE'
p1509
S''
sS'PHYS TGT TOTAL NUMBER'
p1510
S''
ssS'TST2-MUC4-0086'
p1511
(dp1512
S'PERP ORGANIZATION CONFIDENCE'
p1513
S''
sS'HUM TGT EFFECT OF INCIDENT'
p1514
S''
sS'INCIDENT LOCATION'
p1515
S'COLOMBIA'
p1516
sS'PHYS TGT ID'
p1517
S''
sS'PERP INCIDENT CATEGORY'
p1518
S''
sS'PERP ORGANIZATION ID'
p1519
S''
sS'HUM TGT TYPE'
p1520
S'POLITICAL FIGURE PRESIDENTIAL CANDIDATES CANDIDATES'
p1521
sS'HUM TGT TOTAL NUMBER'
p1522
S''
sS'INCIDENT INSTRUMENT ID'
p1523
S''
sS'INCIDENT INSTRUMENT TYPE'
p1524
S''
sS'PHYS TGT FOREIGN NATION'
p1525
S''
sS'HUM TGT NUMBER'
p1526
S'PLURAL PRESIDENTIAL CANDIDATES CANDIDATES'
p1527
sS'PHYS TGT TYPE'
p1528
S''
sS'HUM TGT NAME'
p1529
S''
sS'INCIDENT TYPE'
p1530
S'ATTACK'
p1531
sS'PHYS TGT NUMBER'
p1532
S''
sS'PERP INDIVIDUAL ID'
p1533
S''
sS'INCIDENT STAGE OF EXECUTION'
p1534
S'ACCOMPLISHED ATTEMPTED'
p1535
sS'HUM TGT DESCRIPTION'
p1536
S'PRESIDENTIAL CANDIDATES CANDIDATES'
p1537
sS'PHYS TGT EFFECT OF INCIDENT'
p1538
S''
sS'HUM TGT FOREIGN NATION'
p1539
S''
sS'INCIDENT DATE'
p1540
S'07 AUG 89'
p1541
sS'MESSAGE TEMPLATE'
p1542
S'2 OPTIONAL'
p1543
sS'PHYS TGT TOTAL NUMBER'
p1544
S''
ssS'TST2-MUC4-0087'
p1545
(dp1546
S'PERP ORGANIZATION CONFIDENCE'
p1547
S''
sS'HUM TGT EFFECT OF INCIDENT'
p1548
S''
sS'INCIDENT LOCATION'
p1549
S''
sS'PHYS TGT ID'
p1550
S''
sS'PERP INCIDENT CATEGORY'
p1551
S''
sS'PERP ORGANIZATION ID'
p1552
S''
sS'HUM TGT TYPE'
p1553
S''
sS'HUM TGT TOTAL NUMBER'
p1554
S''
sS'INCIDENT INSTRUMENT ID'
p1555
S''
sS'INCIDENT INSTRUMENT TYPE'
p1556
S''
sS'PHYS TGT FOREIGN NATION'
p1557
S''
sS'HUM TGT NUMBER'
p1558
S''
sS'PHYS TGT TYPE'
p1559
S''
sS'HUM TGT NAME'
p1560
S''
sS'INCIDENT TYPE'
p1561
S''
sS'PHYS TGT NUMBER'
p1562
S''
sS'PERP INDIVIDUAL ID'
p1563
S''
sS'INCIDENT STAGE OF EXECUTION'
p1564
S''
sS'HUM TGT DESCRIPTION'
p1565
S''
sS'PHYS TGT EFFECT OF INCIDENT'
p1566
S''
sS'HUM TGT FOREIGN NATION'
p1567
S''
sS'INCIDENT DATE'
p1568
S''
sS'MESSAGE TEMPLATE'
p1569
S''
sS'PHYS TGT TOTAL NUMBER'
p1570
S''
ssS'TST2-MUC4-0080'
p1571
(dp1572
S'PERP ORGANIZATION CONFIDENCE'
p1573
S''
sS'HUM TGT EFFECT OF INCIDENT'
p1574
S''
sS'INCIDENT LOCATION'
p1575
S'EL SALVADOR SAN SALVADOR CITY NATIONAL UNIVERSITY UNIVERSITY'
p1576
sS'PHYS TGT ID'
p1577
S'AMBULANCE'
p1578
sS'PERP INCIDENT CATEGORY'
p1579
S''
sS'PERP ORGANIZATION ID'
p1580
S''
sS'HUM TGT TYPE'
p1581
S''
sS'HUM TGT TOTAL NUMBER'
p1582
S''
sS'INCIDENT INSTRUMENT ID'
p1583
S''
sS'INCIDENT INSTRUMENT TYPE'
p1584
S''
sS'PHYS TGT FOREIGN NATION'
p1585
S''
sS'HUM TGT NUMBER'
p1586
S''
sS'PHYS TGT TYPE'
p1587
S'TRANSPORT VEHICLE AMBULANCE'
p1588
sS'HUM TGT NAME'
p1589
S''
sS'INCIDENT TYPE'
p1590
S'ATTACK'
p1591
sS'PHYS TGT NUMBER'
p1592
S'1 AMBULANCE'
p1593
sS'PERP INDIVIDUAL ID'
p1594
S''
sS'INCIDENT STAGE OF EXECUTION'
p1595
S'ACCOMPLISHED'
p1596
sS'HUM TGT DESCRIPTION'
p1597
S''
sS'PHYS TGT EFFECT OF INCIDENT'
p1598
S''
sS'HUM TGT FOREIGN NATION'
p1599
S''
sS'INCIDENT DATE'
p1600
S'11 NOV 89 10 NOV 89 11 NOV 89'
p1601
sS'MESSAGE TEMPLATE'
p1602
S'3'
sS'PHYS TGT TOTAL NUMBER'
p1603
S''
ssS'TST2-MUC4-0081'
p1604
(dp1605
S'PERP ORGANIZATION CONFIDENCE'
p1606
S''
sS'HUM TGT EFFECT OF INCIDENT'
p1607
S'NO INJURY OR DEATH'
p1608
sS'INCIDENT LOCATION'
p1609
S'COLOMBIA MEDELLIN CITY COLOMBIA'
p1610
sS'PHYS TGT ID'
p1611
S'GOVERNMENT BANK BRANCHES BANK BRANCHES'
p1612
sS'PERP INCIDENT CATEGORY'
p1613
S''
sS'PERP ORGANIZATION ID'
p1614
S''
sS'HUM TGT TYPE'
p1615
S''
sS'HUM TGT TOTAL NUMBER'
p1616
S''
sS'INCIDENT INSTRUMENT ID'
p1617
S'BOMBS'
p1618
sS'INCIDENT INSTRUMENT TYPE'
p1619
S'BOMB BOMBS'
p1620
sS'PHYS TGT FOREIGN NATION'
p1621
S''
sS'HUM TGT NUMBER'
p1622
S''
sS'PHYS TGT TYPE'
p1623
S'FINANCIAL GOVERNMENT BANK BRANCHES BANK BRANCHES'
p1624
sS'HUM TGT NAME'
p1625
S''
sS'INCIDENT TYPE'
p1626
S'BOMBING'
p1627
sS'PHYS TGT NUMBER'
p1628
S'PLURAL GOVERNMENT BANK BRANCHES BANK BRANCHES'
p1629
sS'PERP INDIVIDUAL ID'
p1630
S'UNIDENTIFIED PERSONS'
p1631
sS'INCIDENT STAGE OF EXECUTION'
p1632
S'ACCOMPLISHED'
p1633
sS'HUM TGT DESCRIPTION'
p1634
S''
sS'PHYS TGT EFFECT OF INCIDENT'
p1635
S'SOME DAMAGE GOVERNMENT BANK BRANCHES BANK BRANCHES'
p1636
sS'HUM TGT FOREIGN NATION'
p1637
S''
sS'INCIDENT DATE'
p1638
S'27 AUG 89'
p1639
sS'MESSAGE TEMPLATE'
p1640
S'1'
sS'PHYS TGT TOTAL NUMBER'
p1641
S''
ssS'TST2-MUC4-0082'
p1642
(dp1643
S'PERP ORGANIZATION CONFIDENCE'
p1644
S''
sS'HUM TGT EFFECT OF INCIDENT'
p1645
S''
sS'INCIDENT LOCATION'
p1646
S''
sS'PHYS TGT ID'
p1647
S''
sS'PERP INCIDENT CATEGORY'
p1648
S''
sS'PERP ORGANIZATION ID'
p1649
S''
sS'HUM TGT TYPE'
p1650
S''
sS'HUM TGT TOTAL NUMBER'
p1651
S''
sS'INCIDENT INSTRUMENT ID'
p1652
S''
sS'INCIDENT INSTRUMENT TYPE'
p1653
S''
sS'PHYS TGT FOREIGN NATION'
p1654
S''
sS'HUM TGT NUMBER'
p1655
S''
sS'PHYS TGT TYPE'
p1656
S''
sS'HUM TGT NAME'
p1657
S''
sS'INCIDENT TYPE'
p1658
S''
sS'PHYS TGT NUMBER'
p1659
S''
sS'PERP INDIVIDUAL ID'
p1660
S''
sS'INCIDENT STAGE OF EXECUTION'
p1661
S''
sS'HUM TGT DESCRIPTION'
p1662
S''
sS'PHYS TGT EFFECT OF INCIDENT'
p1663
S''
sS'HUM TGT FOREIGN NATION'
p1664
S''
sS'INCIDENT DATE'
p1665
S''
sS'MESSAGE TEMPLATE'
p1666
S''
sS'PHYS TGT TOTAL NUMBER'
p1667
S''
ssS'TST2-MUC4-0083'
p1668
(dp1669
S'PERP ORGANIZATION CONFIDENCE'
p1670
S''
sS'HUM TGT EFFECT OF INCIDENT'
p1671
S''
sS'INCIDENT LOCATION'
p1672
S''
sS'PHYS TGT ID'
p1673
S''
sS'PERP INCIDENT CATEGORY'
p1674
S''
sS'PERP ORGANIZATION ID'
p1675
S''
sS'HUM TGT TYPE'
p1676
S''
sS'HUM TGT TOTAL NUMBER'
p1677
S''
sS'INCIDENT INSTRUMENT ID'
p1678
S''
sS'INCIDENT INSTRUMENT TYPE'
p1679
S''
sS'PHYS TGT FOREIGN NATION'
p1680
S''
sS'HUM TGT NUMBER'
p1681
S''
sS'PHYS TGT TYPE'
p1682
S''
sS'HUM TGT NAME'
p1683
S''
sS'INCIDENT TYPE'
p1684
S''
sS'PHYS TGT NUMBER'
p1685
S''
sS'PERP INDIVIDUAL ID'
p1686
S''
sS'INCIDENT STAGE OF EXECUTION'
p1687
S''
sS'HUM TGT DESCRIPTION'
p1688
S''
sS'PHYS TGT EFFECT OF INCIDENT'
p1689
S''
sS'HUM TGT FOREIGN NATION'
p1690
S''
sS'INCIDENT DATE'
p1691
S''
sS'MESSAGE TEMPLATE'
p1692
S''
sS'PHYS TGT TOTAL NUMBER'
p1693
S''
ssS'TST2-MUC4-0088'
p1694
(dp1695
S'PERP ORGANIZATION CONFIDENCE'
p1696
S''
sS'HUM TGT EFFECT OF INCIDENT'
p1697
S''
sS'INCIDENT LOCATION'
p1698
S''
sS'PHYS TGT ID'
p1699
S''
sS'PERP INCIDENT CATEGORY'
p1700
S''
sS'PERP ORGANIZATION ID'
p1701
S''
sS'HUM TGT TYPE'
p1702
S''
sS'HUM TGT TOTAL NUMBER'
p1703
S''
sS'INCIDENT INSTRUMENT ID'
p1704
S''
sS'INCIDENT INSTRUMENT TYPE'
p1705
S''
sS'PHYS TGT FOREIGN NATION'
p1706
S''
sS'HUM TGT NUMBER'
p1707
S''
sS'PHYS TGT TYPE'
p1708
S''
sS'HUM TGT NAME'
p1709
S''
sS'INCIDENT TYPE'
p1710
S''
sS'PHYS TGT NUMBER'
p1711
S''
sS'PERP INDIVIDUAL ID'
p1712
S''
sS'INCIDENT STAGE OF EXECUTION'
p1713
S''
sS'HUM TGT DESCRIPTION'
p1714
S''
sS'PHYS TGT EFFECT OF INCIDENT'
p1715
S''
sS'HUM TGT FOREIGN NATION'
p1716
S''
sS'INCIDENT DATE'
p1717
S''
sS'MESSAGE TEMPLATE'
p1718
S''
sS'PHYS TGT TOTAL NUMBER'
p1719
S''
ssS'TST2-MUC4-0089'
p1720
(dp1721
S'PERP ORGANIZATION CONFIDENCE'
p1722
S''
sS'HUM TGT EFFECT OF INCIDENT'
p1723
S''
sS'INCIDENT LOCATION'
p1724
S''
sS'PHYS TGT ID'
p1725
S''
sS'PERP INCIDENT CATEGORY'
p1726
S''
sS'PERP ORGANIZATION ID'
p1727
S''
sS'HUM TGT TYPE'
p1728
S''
sS'HUM TGT TOTAL NUMBER'
p1729
S''
sS'INCIDENT INSTRUMENT ID'
p1730
S''
sS'INCIDENT INSTRUMENT TYPE'
p1731
S''
sS'PHYS TGT FOREIGN NATION'
p1732
S''
sS'HUM TGT NUMBER'
p1733
S''
sS'PHYS TGT TYPE'
p1734
S''
sS'HUM TGT NAME'
p1735
S''
sS'INCIDENT TYPE'
p1736
S''
sS'PHYS TGT NUMBER'
p1737
S''
sS'PERP INDIVIDUAL ID'
p1738
S''
sS'INCIDENT STAGE OF EXECUTION'
p1739
S''
sS'HUM TGT DESCRIPTION'
p1740
S''
sS'PHYS TGT EFFECT OF INCIDENT'
p1741
S''
sS'HUM TGT FOREIGN NATION'
p1742
S''
sS'INCIDENT DATE'
p1743
S''
sS'MESSAGE TEMPLATE'
p1744
S''
sS'PHYS TGT TOTAL NUMBER'
p1745
S''
ssS'TST2-MUC4-0008'
p1746
(dp1747
S'PERP ORGANIZATION CONFIDENCE'
p1748
S''
sS'HUM TGT EFFECT OF INCIDENT'
p1749
S'DEATH DEATHS'
p1750
sS'INCIDENT LOCATION'
p1751
S'EL SALVADOR SAN SALVADOR CITY'
p1752
sS'PHYS TGT ID'
p1753
S''
sS'PERP INCIDENT CATEGORY'
p1754
S'STATESPONSORED VIOLENCE'
p1755
sS'PERP ORGANIZATION ID'
p1756
S''
sS'HUM TGT TYPE'
p1757
S'CIVILIAN DEATHS'
p1758
sS'HUM TGT TOTAL NUMBER'
p1759
S''
sS'INCIDENT INSTRUMENT ID'
p1760
S''
sS'INCIDENT INSTRUMENT TYPE'
p1761
S'BOMB'
p1762
sS'PHYS TGT FOREIGN NATION'
p1763
S''
sS'HUM TGT NUMBER'
p1764
S'PLURAL DEATHS'
p1765
sS'PHYS TGT TYPE'
p1766
S''
sS'HUM TGT NAME'
p1767
S''
sS'INCIDENT TYPE'
p1768
S'BOMBING'
p1769
sS'PHYS TGT NUMBER'
p1770
S''
sS'PERP INDIVIDUAL ID'
p1771
S''
sS'INCIDENT STAGE OF EXECUTION'
p1772
S'ACCOMPLISHED'
p1773
sS'HUM TGT DESCRIPTION'
p1774
S'DEATHS'
p1775
sS'PHYS TGT EFFECT OF INCIDENT'
p1776
S''
sS'HUM TGT FOREIGN NATION'
p1777
S''
sS'INCIDENT DATE'
p1778
S'17 NOV 89'
p1779
sS'MESSAGE TEMPLATE'
p1780
S'1 OPTIONAL'
p1781
sS'PHYS TGT TOTAL NUMBER'
p1782
S''
ssS'TST2-MUC4-0009'
p1783
(dp1784
S'PERP ORGANIZATION CONFIDENCE'
p1785
S''
sS'HUM TGT EFFECT OF INCIDENT'
p1786
S''
sS'INCIDENT LOCATION'
p1787
S''
sS'PHYS TGT ID'
p1788
S''
sS'PERP INCIDENT CATEGORY'
p1789
S''
sS'PERP ORGANIZATION ID'
p1790
S''
sS'HUM TGT TYPE'
p1791
S''
sS'HUM TGT TOTAL NUMBER'
p1792
S''
sS'INCIDENT INSTRUMENT ID'
p1793
S''
sS'INCIDENT INSTRUMENT TYPE'
p1794
S''
sS'PHYS TGT FOREIGN NATION'
p1795
S''
sS'HUM TGT NUMBER'
p1796
S''
sS'PHYS TGT TYPE'
p1797
S''
sS'HUM TGT NAME'
p1798
S''
sS'INCIDENT TYPE'
p1799
S''
sS'PHYS TGT NUMBER'
p1800
S''
sS'PERP INDIVIDUAL ID'
p1801
S''
sS'INCIDENT STAGE OF EXECUTION'
p1802
S''
sS'HUM TGT DESCRIPTION'
p1803
S''
sS'PHYS TGT EFFECT OF INCIDENT'
p1804
S''
sS'HUM TGT FOREIGN NATION'
p1805
S''
sS'INCIDENT DATE'
p1806
S''
sS'MESSAGE TEMPLATE'
p1807
S''
sS'PHYS TGT TOTAL NUMBER'
p1808
S''
ssS'TST2-MUC4-0004'
p1809
(dp1810
S'PERP ORGANIZATION CONFIDENCE'
p1811
S'CLAIMED OR ADMITTED ZARATE WILLKA ARMED FORCES OF LIBERATION'
p1812
sS'HUM TGT EFFECT OF INCIDENT'
p1813
S''
sS'INCIDENT LOCATION'
p1814
S'BOLIVIA LA PAZ CITY'
p1815
sS'PHYS TGT ID'
p1816
S'EMBASSY'
p1817
sS'PERP INCIDENT CATEGORY'
p1818
S'TERRORIST ACT'
p1819
sS'PERP ORGANIZATION ID'
p1820
S'ZARATE WILLKA ARMED FORCES OF LIBERATION'
p1821
sS'MARISCAL BALLIVIAN BUILDING'
p1822
S''
sS'HUM TGT TOTAL NUMBER'
p1823
S''
sS'INCIDENT INSTRUMENT ID'
p1824
S'DYNAMITE CHARGE DYNAMITE'
p1825
sS'INCIDENT INSTRUMENT TYPE'
p1826
S'DYNAMITE DYNAMITE CHARGE DYNAMITE'
p1827
sS'PHYS TGT FOREIGN NATION'
p1828
S'PERU PEOPLES PERUVIAN BANK'
p1829
sS'PERP INDIVIDUAL ID'
p1830
S'UNIDENTIFIED PERSON'
p1831
sS'HUM TGT TYPE'
p1832
S''
sS'HUM TGT NUMBER'
p1833
S''
sS'PHYS TGT TYPE'
p1834
S'DIPLOMAT OFFICE OR RESIDENCE EMBASSY'
p1835
sS'HUM TGT NAME'
p1836
S''
sS'PEOPLES PERUVIAN BANK'
p1837
S''
sS'INCIDENT TYPE'
p1838
S'BOMBING'
p1839
sS'PHYS TGT NUMBER'
p1840
S'1 EMBASSY'
p1841
sS'STATE BANK'
p1842
S''
sS'INCIDENT STAGE OF EXECUTION'
p1843
S'ACCOMPLISHED'
p1844
sS'HUM TGT DESCRIPTION'
p1845
S''
sS'PHYS TGT EFFECT OF INCIDENT'
p1846
S'SOME DAMAGE NO DAMAGE EMBASSY'
p1847
sS'HUM TGT FOREIGN NATION'
p1848
S''
sS'BOOK STORE'
p1849
S''
sS'INCIDENT DATE'
p1850
S'20 DEC 89'
p1851
sS'MESSAGE TEMPLATE'
p1852
S'1'
sS'PHYS TGT TOTAL NUMBER'
p1853
S''
ssS'TST2-MUC4-0005'
p1854
(dp1855
S'PERP ORGANIZATION CONFIDENCE'
p1856
S''
sS'HUM TGT EFFECT OF INCIDENT'
p1857
S''
sS'INCIDENT LOCATION'
p1858
S''
sS'PHYS TGT ID'
p1859
S''
sS'PERP INCIDENT CATEGORY'
p1860
S''
sS'PERP ORGANIZATION ID'
p1861
S''
sS'HUM TGT TYPE'
p1862
S''
sS'HUM TGT TOTAL NUMBER'
p1863
S''
sS'INCIDENT INSTRUMENT ID'
p1864
S''
sS'INCIDENT INSTRUMENT TYPE'
p1865
S''
sS'PHYS TGT FOREIGN NATION'
p1866
S''
sS'HUM TGT NUMBER'
p1867
S''
sS'PHYS TGT TYPE'
p1868
S''
sS'HUM TGT NAME'
p1869
S''
sS'INCIDENT TYPE'
p1870
S''
sS'PHYS TGT NUMBER'
p1871
S''
sS'PERP INDIVIDUAL ID'
p1872
S''
sS'INCIDENT STAGE OF EXECUTION'
p1873
S''
sS'HUM TGT DESCRIPTION'
p1874
S''
sS'PHYS TGT EFFECT OF INCIDENT'
p1875
S''
sS'HUM TGT FOREIGN NATION'
p1876
S''
sS'INCIDENT DATE'
p1877
S''
sS'MESSAGE TEMPLATE'
p1878
S''
sS'PHYS TGT TOTAL NUMBER'
p1879
S''
ssS'TST2-MUC4-0006'
p1880
(dp1881
S'PERP ORGANIZATION CONFIDENCE'
p1882
S''
sS'HUM TGT EFFECT OF INCIDENT'
p1883
S''
sS'INCIDENT LOCATION'
p1884
S''
sS'PHYS TGT ID'
p1885
S''
sS'PERP INCIDENT CATEGORY'
p1886
S''
sS'PERP ORGANIZATION ID'
p1887
S''
sS'HUM TGT TYPE'
p1888
S''
sS'HUM TGT TOTAL NUMBER'
p1889
S''
sS'INCIDENT INSTRUMENT ID'
p1890
S''
sS'INCIDENT INSTRUMENT TYPE'
p1891
S''
sS'PHYS TGT FOREIGN NATION'
p1892
S''
sS'HUM TGT NUMBER'
p1893
S''
sS'PHYS TGT TYPE'
p1894
S''
sS'HUM TGT NAME'
p1895
S''
sS'INCIDENT TYPE'
p1896
S''
sS'PHYS TGT NUMBER'
p1897
S''
sS'PERP INDIVIDUAL ID'
p1898
S''
sS'INCIDENT STAGE OF EXECUTION'
p1899
S''
sS'HUM TGT DESCRIPTION'
p1900
S''
sS'PHYS TGT EFFECT OF INCIDENT'
p1901
S''
sS'HUM TGT FOREIGN NATION'
p1902
S''
sS'INCIDENT DATE'
p1903
S''
sS'MESSAGE TEMPLATE'
p1904
S''
sS'PHYS TGT TOTAL NUMBER'
p1905
S''
ssS'TST2-MUC4-0007'
p1906
(dp1907
S'PERP ORGANIZATION CONFIDENCE'
p1908
S''
sS'HUM TGT EFFECT OF INCIDENT'
p1909
S'DEATH BERNARDO JARAMILLO OSSA'
p1910
sS'INCIDENT LOCATION'
p1911
S'COLOMBIA'
p1912
sS'PHYS TGT ID'
p1913
S''
sS'PERP INCIDENT CATEGORY'
p1914
S'TERRORIST ACT'
p1915
sS'PERP ORGANIZATION ID'
p1916
S''
sS'HUM TGT TYPE'
p1917
S'POLITICAL FIGURE BERNARDO JARAMILLO OSSA'
p1918
sS'HUM TGT TOTAL NUMBER'
p1919
S''
sS'INCIDENT INSTRUMENT ID'
p1920
S''
sS'INCIDENT INSTRUMENT TYPE'
p1921
S''
sS'PHYS TGT FOREIGN NATION'
p1922
S''
sS'HUM TGT NUMBER'
p1923
S'1 BERNARDO JARAMILLO OSSA'
p1924
sS'PHYS TGT TYPE'
p1925
S''
sS'HUM TGT NAME'
p1926
S'BERNARDO JARAMILLO OSSA'
p1927
sS'MAYOR'
p1928
S''
sS'INCIDENT TYPE'
p1929
S'ATTACK'
p1930
sS'PHYS TGT NUMBER'
p1931
S''
sS'CHIEF OF POLICE'
p1932
S''
sS'PERP INDIVIDUAL ID'
p1933
S'ADOLFO MESA MENESES'
p1934
sS'INCIDENT STAGE OF EXECUTION'
p1935
S'ACCOMPLISHED'
p1936
sS'HUM TGT DESCRIPTION'
p1937
S'LEFTIST PRESIDENTIAL CANDIDATE BERNARDO JARAMILLO OSSA'
p1938
sS'PHYS TGT EFFECT OF INCIDENT'
p1939
S''
sS'HUM TGT FOREIGN NATION'
p1940
S''
sS'INCIDENT DATE'
p1941
S'11 APR 90'
p1942
sS'MESSAGE TEMPLATE'
p1943
S'3'
sS'PHYS TGT TOTAL NUMBER'
p1944
S''
ssS'TST2-MUC4-0001'
p1945
(dp1946
S'PERP ORGANIZATION CONFIDENCE'
p1947
S''
sS'HUM TGT EFFECT OF INCIDENT'
p1948
S'DEATH JESUITS'
p1949
sS'INCIDENT LOCATION'
p1950
S'EL SALVADOR'
p1951
sS'PHYS TGT ID'
p1952
S''
sS'PERP INCIDENT CATEGORY'
p1953
S''
sS'PERP ORGANIZATION ID'
p1954
S''
sS'HUM TGT TYPE'
p1955
S'CIVILIAN JESUITS'
p1956
sS'HUM TGT TOTAL NUMBER'
p1957
S''
sS'INCIDENT INSTRUMENT ID'
p1958
S''
sS'INCIDENT INSTRUMENT TYPE'
p1959
S''
sS'PHYS TGT FOREIGN NATION'
p1960
S''
sS'HUM TGT NUMBER'
p1961
S'PLURAL JESUITS'
p1962
sS'PHYS TGT TYPE'
p1963
S''
sS'HUM TGT NAME'
p1964
S''
sS'INCIDENT TYPE'
p1965
S'ATTACK'
p1966
sS'PHYS TGT NUMBER'
p1967
S''
sS'PERP INDIVIDUAL ID'
p1968
S''
sS'INCIDENT STAGE OF EXECUTION'
p1969
S'ACCOMPLISHED'
p1970
sS'HUM TGT DESCRIPTION'
p1971
S'JESUITS'
p1972
sS'PHYS TGT EFFECT OF INCIDENT'
p1973
S''
sS'HUM TGT FOREIGN NATION'
p1974
S'SPAIN JESUITS'
p1975
sS'INCIDENT DATE'
p1976
S'20 NOV 89'
p1977
sS'MESSAGE TEMPLATE'
p1978
S'1'
sS'PHYS TGT TOTAL NUMBER'
p1979
S''
ssS'TST2-MUC4-0002'
p1980
(dp1981
S'PERP ORGANIZATION CONFIDENCE'
p1982
S'POSSIBLE COMMUNIST PARTY OF CHILE COMMUNIST PARTY MANUEL RODRIGUEZ PATRIOTIC FRONT FPMR'
p1983
sS'HUM TGT EFFECT OF INCIDENT'
p1984
S'NO INJURY OR DEATH NO INJURY'
p1985
sS'INCIDENT LOCATION'
p1986
S'CHILE SANTIAGO CITY PROVIDENCIA NEIGHBORHOOD'
p1987
sS'PHYS TGT ID'
p1988
S'CONSULATE EMBASSY BUILDING EMBASSY'
p1989
sS'PERP INCIDENT CATEGORY'
p1990
S'TERRORIST ACT'
p1991
sS'PERP ORGANIZATION ID'
p1992
S'COMMUNIST PARTY OF CHILE COMMUNIST PARTY MANUEL RODRIGUEZ PATRIOTIC FRONT FPMR'
p1993
sS'HUM TGT TYPE'
p1994
S''
sS'HUM TGT TOTAL NUMBER'
p1995
S''
sS'INCIDENT INSTRUMENT ID'
p1996
S''
sS'INCIDENT INSTRUMENT TYPE'
p1997
S'EXPLOSIVE'
p1998
sS'PHYS TGT FOREIGN NATION'
p1999
S'EL SALVADOR CONSULATE EMBASSY BUILDING EMBASSY'
p2000
sS'HUM TGT NUMBER'
p2001
S''
sS'PHYS TGT TYPE'
p2002
S'DIPLOMAT OFFICE OR RESIDENCE CONSULATE EMBASSY BUILDING EMBASSY'
p2003
sS'HUM TGT NAME'
p2004
S''
sS'INCIDENT TYPE'
p2005
S'BOMBING'
p2006
sS'PHYS TGT NUMBER'
p2007
S'1 CONSULATE EMBASSY BUILDING EMBASSY'
p2008
sS'PERP INDIVIDUAL ID'
p2009
S'MANUEL RODRIGUEZ PATRIOTIC FRONT FPMR'
p2010
sS'INCIDENT STAGE OF EXECUTION'
p2011
S'ACCOMPLISHED'
p2012
sS'HUM TGT DESCRIPTION'
p2013
S''
sS'PHYS TGT EFFECT OF INCIDENT'
p2014
S'SOME DAMAGE CONSULATE EMBASSY BUILDING EMBASSY'
p2015
sS'HUM TGT FOREIGN NATION'
p2016
S''
sS'INCIDENT DATE'
p2017
S'12 DEC 89'
p2018
sS'MESSAGE TEMPLATE'
p2019
S'1'
sS'PHYS TGT TOTAL NUMBER'
p2020
S''
ssS'TST2-MUC4-0003'
p2021
(dp2022
S'PERP ORGANIZATION CONFIDENCE'
p2023
S'REPORTED AS FACT PEOPLES REVOLUTIONARY ARMY ERP'
p2024
sS'HUM TGT EFFECT OF INCIDENT'
p2025
S''
sS'INCIDENT LOCATION'
p2026
S'EL SALVADOR ALBERTO MASFERRER UNIVERSITY UNIVERSITY'
p2027
sS'PHYS TGT ID'
p2028
S''
sS'PERP INCIDENT CATEGORY'
p2029
S'TERRORIST ACT'
p2030
sS'PERP ORGANIZATION ID'
p2031
S'PEOPLES REVOLUTIONARY ARMY ERP'
p2032
sS'HUM TGT TYPE'
p2033
S'CIVILIAN STUDENTS GROUP OF STUDENTS'
p2034
sS'HUM TGT TOTAL NUMBER'
p2035
S''
sS'INCIDENT INSTRUMENT ID'
p2036
S'HAND GRENADES'
p2037
sS'INCIDENT INSTRUMENT TYPE'
p2038
S'GRENADE HAND GRENADES'
p2039
sS'PHYS TGT FOREIGN NATION'
p2040
S''
sS'HUM TGT NUMBER'
p2041
S'PLURAL STUDENTS GROUP OF STUDENTS'
p2042
sS'PHYS TGT TYPE'
p2043
S''
sS'HUM TGT NAME'
p2044
S''
sS'INCIDENT TYPE'
p2045
S'ATTACK'
p2046
sS'PHYS TGT NUMBER'
p2047
S''
sS'PERP INDIVIDUAL ID'
p2048
S'RUTH ESPERANA AGUILAR MARROQUIN'
p2049
sS'INCIDENT STAGE OF EXECUTION'
p2050
S'THREATENED'
p2051
sS'HUM TGT DESCRIPTION'
p2052
S'STUDENTS GROUP OF STUDENTS'
p2053
sS'PHYS TGT EFFECT OF INCIDENT'
p2054
S''
sS'HUM TGT FOREIGN NATION'
p2055
S''
sS'INCIDENT DATE'
p2056
S'09 DEC 89 09 DEC 89'
p2057
sS'MESSAGE TEMPLATE'
p2058
S'3'
sS'PHYS TGT TOTAL NUMBER'
p2059
S''
ssS'TST2-MUC4-0093'
p2060
(dp2061
S'PERP ORGANIZATION CONFIDENCE'
p2062
S'REPORTED AS FACT AIR FORCE'
p2063
sS'HUM TGT EFFECT OF INCIDENT'
p2064
S'DEATH CIVILIANS'
p2065
sS'INCIDENT LOCATION'
p2066
S'EL SALVADOR SAN SALVADOR CITY'
p2067
sS'PHYS TGT ID'
p2068
S''
sS'PERP INCIDENT CATEGORY'
p2069
S'STATESPONSORED VIOLENCE'
p2070
sS'PERP ORGANIZATION ID'
p2071
S'AIR FORCE'
p2072
sS'HUM TGT TYPE'
p2073
S'CIVILIAN CIVILIANS'
p2074
sS'HUM TGT TOTAL NUMBER'
p2075
S''
sS'INCIDENT INSTRUMENT ID'
p2076
S''
sS'INCIDENT INSTRUMENT TYPE'
p2077
S'AERIAL BOMB BOMB'
p2078
sS'PHYS TGT FOREIGN NATION'
p2079
S''
sS'HUM TGT NUMBER'
p2080
S'PLURAL CIVILIANS'
p2081
sS'PHYS TGT TYPE'
p2082
S''
sS'HUM TGT NAME'
p2083
S''
sS'INCIDENT TYPE'
p2084
S'BOMBING ATTACK'
p2085
sS'PHYS TGT NUMBER'
p2086
S''
sS'PERP INDIVIDUAL ID'
p2087
S''
sS'INCIDENT STAGE OF EXECUTION'
p2088
S'ACCOMPLISHED'
p2089
sS'HUM TGT DESCRIPTION'
p2090
S'CIVILIANS'
p2091
sS'PHYS TGT EFFECT OF INCIDENT'
p2092
S''
sS'HUM TGT FOREIGN NATION'
p2093
S''
sS'INCIDENT DATE'
p2094
S'14 NOV 89 14 NOV 89'
p2095
sS'MESSAGE TEMPLATE'
p2096
S'1 OPTIONAL'
p2097
sS'PHYS TGT TOTAL NUMBER'
p2098
S''
ssS'TST2-MUC4-0092'
p2099
(dp2100
S'PERP ORGANIZATION CONFIDENCE'
p2101
S''
sS'HUM TGT EFFECT OF INCIDENT'
p2102
S''
sS'INCIDENT LOCATION'
p2103
S''
sS'PHYS TGT ID'
p2104
S''
sS'PERP INCIDENT CATEGORY'
p2105
S''
sS'PERP ORGANIZATION ID'
p2106
S''
sS'HUM TGT TYPE'
p2107
S''
sS'HUM TGT TOTAL NUMBER'
p2108
S''
sS'INCIDENT INSTRUMENT ID'
p2109
S''
sS'INCIDENT INSTRUMENT TYPE'
p2110
S''
sS'PHYS TGT FOREIGN NATION'
p2111
S''
sS'HUM TGT NUMBER'
p2112
S''
sS'PHYS TGT TYPE'
p2113
S''
sS'HUM TGT NAME'
p2114
S''
sS'INCIDENT TYPE'
p2115
S''
sS'PHYS TGT NUMBER'
p2116
S''
sS'PERP INDIVIDUAL ID'
p2117
S''
sS'INCIDENT STAGE OF EXECUTION'
p2118
S''
sS'HUM TGT DESCRIPTION'
p2119
S''
sS'PHYS TGT EFFECT OF INCIDENT'
p2120
S''
sS'HUM TGT FOREIGN NATION'
p2121
S''
sS'INCIDENT DATE'
p2122
S''
sS'MESSAGE TEMPLATE'
p2123
S''
sS'PHYS TGT TOTAL NUMBER'
p2124
S''
ssS'TST2-MUC4-0091'
p2125
(dp2126
S'PERP ORGANIZATION CONFIDENCE'
p2127
S''
sS'HUM TGT EFFECT OF INCIDENT'
p2128
S''
sS'INCIDENT LOCATION'
p2129
S''
sS'PHYS TGT ID'
p2130
S''
sS'PERP INCIDENT CATEGORY'
p2131
S''
sS'PERP ORGANIZATION ID'
p2132
S''
sS'HUM TGT TYPE'
p2133
S''
sS'HUM TGT TOTAL NUMBER'
p2134
S''
sS'INCIDENT INSTRUMENT ID'
p2135
S''
sS'INCIDENT INSTRUMENT TYPE'
p2136
S''
sS'PHYS TGT FOREIGN NATION'
p2137
S''
sS'HUM TGT NUMBER'
p2138
S''
sS'PHYS TGT TYPE'
p2139
S''
sS'HUM TGT NAME'
p2140
S''
sS'INCIDENT TYPE'
p2141
S''
sS'PHYS TGT NUMBER'
p2142
S''
sS'PERP INDIVIDUAL ID'
p2143
S''
sS'INCIDENT STAGE OF EXECUTION'
p2144
S''
sS'HUM TGT DESCRIPTION'
p2145
S''
sS'PHYS TGT EFFECT OF INCIDENT'
p2146
S''
sS'HUM TGT FOREIGN NATION'
p2147
S''
sS'INCIDENT DATE'
p2148
S''
sS'MESSAGE TEMPLATE'
p2149
S''
sS'PHYS TGT TOTAL NUMBER'
p2150
S''
ssS'TST2-MUC4-0090'
p2151
(dp2152
S'PERP ORGANIZATION CONFIDENCE'
p2153
S''
sS'HUM TGT EFFECT OF INCIDENT'
p2154
S''
sS'INCIDENT LOCATION'
p2155
S'HONDURAS EL SALVADOR'
p2156
sS'PHYS TGT ID'
p2157
S'BUILDING BUILDING NEXT TO THE US EMBASSY'
p2158
sS'PERP INCIDENT CATEGORY'
p2159
S''
sS'PERP ORGANIZATION ID'
p2160
S''
sS'HUM TGT TYPE'
p2161
S''
sS'HUM TGT TOTAL NUMBER'
p2162
S''
sS'INCIDENT INSTRUMENT ID'
p2163
S''
sS'INCIDENT INSTRUMENT TYPE'
p2164
S''
sS'PHYS TGT FOREIGN NATION'
p2165
S'UNITED STATES EL SALVADOR HONDURAS FACILITIES FACILITIES NEXT TO THE US EMBASSY'
p2166
sS'HUM TGT NUMBER'
p2167
S''
sS'PHYS TGT TYPE'
p2168
S'DIPLOMAT OFFICE OR RESIDENCE OTHER BUILDING BUILDING NEXT TO THE US EMBASSY'
p2169
sS'HUM TGT NAME'
p2170
S''
sS'INCIDENT TYPE'
p2171
S'ATTACK'
p2172
sS'PHYS TGT NUMBER'
p2173
S'1 BUILDING BUILDING NEXT TO THE US EMBASSY'
p2174
sS'PERP INDIVIDUAL ID'
p2175
S''
sS'INCIDENT STAGE OF EXECUTION'
p2176
S'ACCOMPLISHED'
p2177
sS'HUM TGT DESCRIPTION'
p2178
S''
sS'PHYS TGT EFFECT OF INCIDENT'
p2179
S'SOME DAMAGE BUILDING BUILDING NEXT TO THE US EMBASSY'
p2180
sS'HUM TGT FOREIGN NATION'
p2181
S''
sS'INCIDENT DATE'
p2182
S'29 APR 88'
p2183
sS'MESSAGE TEMPLATE'
p2184
S'3 OPTIONAL'
p2185
sS'PHYS TGT TOTAL NUMBER'
p2186
S''
ssS'TST2-MUC4-0097'
p2187
(dp2188
S'PERP ORGANIZATION CONFIDENCE'
p2189
S''
sS'HUM TGT EFFECT OF INCIDENT'
p2190
S''
sS'INCIDENT LOCATION'
p2191
S''
sS'PHYS TGT ID'
p2192
S''
sS'PERP INCIDENT CATEGORY'
p2193
S''
sS'PERP ORGANIZATION ID'
p2194
S''
sS'HUM TGT TYPE'
p2195
S''
sS'HUM TGT TOTAL NUMBER'
p2196
S''
sS'INCIDENT INSTRUMENT ID'
p2197
S''
sS'INCIDENT INSTRUMENT TYPE'
p2198
S''
sS'PHYS TGT FOREIGN NATION'
p2199
S''
sS'HUM TGT NUMBER'
p2200
S''
sS'PHYS TGT TYPE'
p2201
S''
sS'HUM TGT NAME'
p2202
S''
sS'INCIDENT TYPE'
p2203
S''
sS'PHYS TGT NUMBER'
p2204
S''
sS'PERP INDIVIDUAL ID'
p2205
S''
sS'INCIDENT STAGE OF EXECUTION'
p2206
S''
sS'HUM TGT DESCRIPTION'
p2207
S''
sS'PHYS TGT EFFECT OF INCIDENT'
p2208
S''
sS'HUM TGT FOREIGN NATION'
p2209
S''
sS'INCIDENT DATE'
p2210
S''
sS'MESSAGE TEMPLATE'
p2211
S''
sS'PHYS TGT TOTAL NUMBER'
p2212
S''
ssS'TST2-MUC4-0096'
p2213
(dp2214
S'PERP ORGANIZATION CONFIDENCE'
p2215
S''
sS'HUM TGT EFFECT OF INCIDENT'
p2216
S''
sS'INCIDENT LOCATION'
p2217
S''
sS'PHYS TGT ID'
p2218
S''
sS'PERP INCIDENT CATEGORY'
p2219
S''
sS'PERP ORGANIZATION ID'
p2220
S''
sS'HUM TGT TYPE'
p2221
S''
sS'HUM TGT TOTAL NUMBER'
p2222
S''
sS'INCIDENT INSTRUMENT ID'
p2223
S''
sS'INCIDENT INSTRUMENT TYPE'
p2224
S''
sS'PHYS TGT FOREIGN NATION'
p2225
S''
sS'HUM TGT NUMBER'
p2226
S''
sS'PHYS TGT TYPE'
p2227
S''
sS'HUM TGT NAME'
p2228
S''
sS'INCIDENT TYPE'
p2229
S''
sS'PHYS TGT NUMBER'
p2230
S''
sS'PERP INDIVIDUAL ID'
p2231
S''
sS'INCIDENT STAGE OF EXECUTION'
p2232
S''
sS'HUM TGT DESCRIPTION'
p2233
S''
sS'PHYS TGT EFFECT OF INCIDENT'
p2234
S''
sS'HUM TGT FOREIGN NATION'
p2235
S''
sS'INCIDENT DATE'
p2236
S''
sS'MESSAGE TEMPLATE'
p2237
S''
sS'PHYS TGT TOTAL NUMBER'
p2238
S''
ssS'TST2-MUC4-0095'
p2239
(dp2240
S'PERP ORGANIZATION CONFIDENCE'
p2241
S''
sS'HUM TGT EFFECT OF INCIDENT'
p2242
S''
sS'INCIDENT LOCATION'
p2243
S'GUATEMALA'
p2244
sS'PHYS TGT ID'
p2245
S'AIR FORCE INSTALLATIONS'
p2246
sS'PERP INCIDENT CATEGORY'
p2247
S'TERRORIST ACT'
p2248
sS'PERP ORGANIZATION ID'
p2249
S''
sS'HUM TGT TYPE'
p2250
S''
sS'HUM TGT TOTAL NUMBER'
p2251
S''
sS'INCIDENT INSTRUMENT ID'
p2252
S'EXPLOSIVE DEVICES'
p2253
sS'INCIDENT INSTRUMENT TYPE'
p2254
S'EXPLOSIVE EXPLOSIVE DEVICES'
p2255
sS'PHYS TGT FOREIGN NATION'
p2256
S''
sS'HUM TGT NUMBER'
p2257
S''
sS'PHYS TGT TYPE'
p2258
S'OTHER AIR FORCE INSTALLATIONS'
p2259
sS'HUM TGT NAME'
p2260
S''
sS'INCIDENT TYPE'
p2261
S'BOMBING'
p2262
sS'PHYS TGT NUMBER'
p2263
S'PLURAL AIR FORCE INSTALLATIONS'
p2264
sS'PERP INDIVIDUAL ID'
p2265
S'TERRORIST'
p2266
sS'INCIDENT STAGE OF EXECUTION'
p2267
S'ACCOMPLISHED'
p2268
sS'HUM TGT DESCRIPTION'
p2269
S''
sS'PHYS TGT EFFECT OF INCIDENT'
p2270
S'SOME DAMAGE BUILDINGS'
p2271
sS'HUM TGT FOREIGN NATION'
p2272
S''
sS'INCIDENT DATE'
p2273
S'17 MAY 90 18 MAY 90'
p2274
sS'MESSAGE TEMPLATE'
p2275
S'1 OPTIONAL'
p2276
sS'PHYS TGT TOTAL NUMBER'
p2277
S''
ssS'TST2-MUC4-0094'
p2278
(dp2279
S'PERP ORGANIZATION CONFIDENCE'
p2280
S''
sS'HUM TGT EFFECT OF INCIDENT'
p2281
S''
sS'INCIDENT LOCATION'
p2282
S''
sS'PHYS TGT ID'
p2283
S''
sS'PERP INCIDENT CATEGORY'
p2284
S''
sS'PERP ORGANIZATION ID'
p2285
S''
sS'HUM TGT TYPE'
p2286
S''
sS'HUM TGT TOTAL NUMBER'
p2287
S''
sS'INCIDENT INSTRUMENT ID'
p2288
S''
sS'INCIDENT INSTRUMENT TYPE'
p2289
S''
sS'PHYS TGT FOREIGN NATION'
p2290
S''
sS'HUM TGT NUMBER'
p2291
S''
sS'PHYS TGT TYPE'
p2292
S''
sS'HUM TGT NAME'
p2293
S''
sS'INCIDENT TYPE'
p2294
S''
sS'PHYS TGT NUMBER'
p2295
S''
sS'PERP INDIVIDUAL ID'
p2296
S''
sS'INCIDENT STAGE OF EXECUTION'
p2297
S''
sS'HUM TGT DESCRIPTION'
p2298
S''
sS'PHYS TGT EFFECT OF INCIDENT'
p2299
S''
sS'HUM TGT FOREIGN NATION'
p2300
S''
sS'INCIDENT DATE'
p2301
S''
sS'MESSAGE TEMPLATE'
p2302
S''
sS'PHYS TGT TOTAL NUMBER'
p2303
S''
ssS'TST2-MUC4-0099'
p2304
(dp2305
S'PERP ORGANIZATION CONFIDENCE'
p2306
S'REPORTED AS FACT ELN ARMY OF NATIONAL LIBERATION'
p2307
sS'HUM TGT EFFECT OF INCIDENT'
p2308
S''
sS'INCIDENT LOCATION'
p2309
S'COLOMBIA'
p2310
sS'PHYS TGT ID'
p2311
S'CANO LIMONCOVENAS OIL TERMINAL OIL TERMINAL'
p2312
sS'PERP INCIDENT CATEGORY'
p2313
S'TERRORIST ACT'
p2314
sS'PERP ORGANIZATION ID'
p2315
S'ELN ARMY OF NATIONAL LIBERATION'
p2316
sS'HUM TGT TYPE'
p2317
S''
sS'HUM TGT TOTAL NUMBER'
p2318
S''
sS'INCIDENT INSTRUMENT ID'
p2319
S''
sS'INCIDENT INSTRUMENT TYPE'
p2320
S''
sS'PHYS TGT FOREIGN NATION'
p2321
S''
sS'HUM TGT NUMBER'
p2322
S''
sS'PHYS TGT TYPE'
p2323
S'ENERGY CANO LIMONCOVENAS OIL TERMINAL OIL TERMINAL'
p2324
sS'HUM TGT NAME'
p2325
S''
sS'INCIDENT TYPE'
p2326
S'ATTACK'
p2327
sS'PHYS TGT NUMBER'
p2328
S'1 CANO LIMONCOVENAS OIL TERMINAL OIL TERMINAL'
p2329
sS'PERP INDIVIDUAL ID'
p2330
S''
sS'INCIDENT STAGE OF EXECUTION'
p2331
S'ACCOMPLISHED'
p2332
sS'HUM TGT DESCRIPTION'
p2333
S''
sS'PHYS TGT EFFECT OF INCIDENT'
p2334
S'DESTROYED CANO LIMONCOVENAS OIL TERMINAL OIL TERMINAL'
p2335
sS'HUM TGT FOREIGN NATION'
p2336
S''
sS'INCIDENT DATE'
p2337
S'16 JUN 89'
p2338
sS'MESSAGE TEMPLATE'
p2339
S'2'
sS'PHYS TGT TOTAL NUMBER'
p2340
S''
ssS'TST2-MUC4-0098'
p2341
(dp2342
S'PERP ORGANIZATION CONFIDENCE'
p2343
S'SUSPECTED OR ACCUSED REPORTED AS FACT GUATEMALAN ARMY ARMY'
p2344
sS'HUM TGT EFFECT OF INCIDENT'
p2345
S'RESIGNATION ONE OF THE EXILED EXILED'
p2346
sS'INCIDENT LOCATION'
p2347
S'GUATEMALA'
p2348
sS'PHYS TGT ID'
p2349
S''
sS'PERP INCIDENT CATEGORY'
p2350
S'STATESPONSORED VIOLENCE'
p2351
sS'PERP ORGANIZATION ID'
p2352
S'GUATEMALAN ARMY ARMY'
p2353
sS'HUM TGT TYPE'
p2354
S'CIVILIAN ONE OF THE EXILED EXILED'
p2355
sS'HUM TGT TOTAL NUMBER'
p2356
S''
sS'INCIDENT INSTRUMENT ID'
p2357
S''
sS'INCIDENT INSTRUMENT TYPE'
p2358
S''
sS'PHYS TGT FOREIGN NATION'
p2359
S''
sS'HUM TGT NUMBER'
p2360
S'1 ONE OF THE EXILED EXILED'
p2361
sS'PHYS TGT TYPE'
p2362
S''
sS'HUM TGT NAME'
p2363
S''
sS'INCIDENT TYPE'
p2364
S'KIDNAPPING'
p2365
sS'PHYS TGT NUMBER'
p2366
S''
sS'PERP INDIVIDUAL ID'
p2367
S''
sS'INCIDENT STAGE OF EXECUTION'
p2368
S'THREATENED'
p2369
sS'HUM TGT DESCRIPTION'
p2370
S'ONE OF THE EXILED EXILED'
p2371
sS'PHYS TGT EFFECT OF INCIDENT'
p2372
S''
sS'HUM TGT FOREIGN NATION'
p2373
S''
sS'INCIDENT DATE'
p2374
S'21 AUG 89 04 SEP 89'
p2375
sS'MESSAGE TEMPLATE'
p2376
S'3 OPTIONAL'
p2377
sS'PHYS TGT TOTAL NUMBER'
p2378
S''
ssS'TST2-MUC4-0019'
p2379
(dp2380
S'PERP ORGANIZATION CONFIDENCE'
p2381
S'SUSPECTED OR ACCUSED BY AUTHORITIES FARABUNDO MARTI NATIONAL LIBERATION FRONT FMLN'
p2382
sS'HUM TGT EFFECT OF INCIDENT'
p2383
S'DEATH ROBERTO ARMANDO RIVERA ESCOBAR'
p2384
sS'INCIDENT LOCATION'
p2385
S'EL SALVADOR'
p2386
sS'PHYS TGT ID'
p2387
S''
sS'PERP INCIDENT CATEGORY'
p2388
S'TERRORIST ACT'
p2389
sS'PERP ORGANIZATION ID'
p2390
S'FARABUNDO MARTI NATIONAL LIBERATION FRONT FMLN'
p2391
sS'HUM TGT TYPE'
p2392
S'GOVERNMENT OFFICIAL CIVILIAN ACTIVE MILITARY ROBERTO ARMANDO RIVERA ESCOBAR'
p2393
sS'HUM TGT TOTAL NUMBER'
p2394
S''
sS'INCIDENT INSTRUMENT ID'
p2395
S'MACHINEGUN'
p2396
sS'INCIDENT INSTRUMENT TYPE'
p2397
S'MACHINE GUN MACHINEGUN'
p2398
sS'PHYS TGT FOREIGN NATION'
p2399
S''
sS'HUM TGT NUMBER'
p2400
S'1 ROBERTO ARMANDO RIVERA ESCOBAR'
p2401
sS'PHYS TGT TYPE'
p2402
S''
sS'HUM TGT NAME'
p2403
S'ROBERTO ARMANDO RIVERA ESCOBAR'
p2404
sS'INCIDENT TYPE'
p2405
S'ATTACK'
p2406
sS'PHYS TGT NUMBER'
p2407
S''
sS'PERP INDIVIDUAL ID'
p2408
S''
sS'INCIDENT STAGE OF EXECUTION'
p2409
S'ACCOMPLISHED'
p2410
sS'HUM TGT DESCRIPTION'
p2411
S'NATIONAL FIRE DEPARTMENT DIRECTOR COLONEL NATIONAL FIRE DEPARTMENT DIRECTOR COLONEL ROBERTO ARMANDO RIVERA ESCOBAR'
p2412
sS'PHYS TGT EFFECT OF INCIDENT'
p2413
S''
sS'HUM TGT FOREIGN NATION'
p2414
S''
sS'INCIDENT DATE'
p2415
S'26 JUN 89'
p2416
sS'MESSAGE TEMPLATE'
p2417
S'1 OPTIONAL'
p2418
sS'PHYS TGT TOTAL NUMBER'
p2419
S''
ssS'TST2-MUC4-0018'
p2420
(dp2421
S'PERP ORGANIZATION CONFIDENCE'
p2422
S'POSSIBLE ARMED FORCES'
p2423
sS'HUM TGT EFFECT OF INCIDENT'
p2424
S'DEATH ROMERO'
p2425
sS'INCIDENT LOCATION'
p2426
S'EL SALVADOR EL SALVADOR SAN SALVADOR CITY'
p2427
sS'PHYS TGT ID'
p2428
S''
sS'PERP INCIDENT CATEGORY'
p2429
S'STATESPONSORED VIOLENCE'
p2430
sS'PERP ORGANIZATION ID'
p2431
S'ARMED FORCES'
p2432
sS'HUM TGT TYPE'
p2433
S'CIVILIAN ROMERO'
p2434
sS'HUM TGT TOTAL NUMBER'
p2435
S''
sS'INCIDENT INSTRUMENT ID'
p2436
S''
sS'INCIDENT INSTRUMENT TYPE'
p2437
S''
sS'PHYS TGT FOREIGN NATION'
p2438
S''
sS'HUM TGT NUMBER'
p2439
S'1 ROMERO'
p2440
sS'PHYS TGT TYPE'
p2441
S''
sS'HUM TGT NAME'
p2442
S'ROMERO'
p2443
sS'INCIDENT TYPE'
p2444
S'ATTACK'
p2445
sS'PHYS TGT NUMBER'
p2446
S''
sS'PERP INDIVIDUAL ID'
p2447
S'ASSASSINS'
p2448
sS'INCIDENT STAGE OF EXECUTION'
p2449
S'ACCOMPLISHED'
p2450
sS'HUM TGT DESCRIPTION'
p2451
S'MSGR ROMERO'
p2452
sS'PHYS TGT EFFECT OF INCIDENT'
p2453
S''
sS'HUM TGT FOREIGN NATION'
p2454
S''
sS'INCIDENT DATE'
p2455
S'12 NOV 89'
p2456
sS'MESSAGE TEMPLATE'
p2457
S'1 OPTIONAL'
p2458
sS'PHYS TGT TOTAL NUMBER'
p2459
S''
ssS'TST2-MUC4-0013'
p2460
(dp2461
S'PERP ORGANIZATION CONFIDENCE'
p2462
S'POSSIBLE COLOMBIAN MILITARY'
p2463
sS'HUM TGT EFFECT OF INCIDENT'
p2464
S'REGAINED FREEDOM EDWIN RODRIGO TENEDA PARRENO'
p2465
sS'INCIDENT LOCATION'
p2466
S'ECUADOR SUCUMBIOS PROVINCE BERMEJA RIVER'
p2467
sS'PHYS TGT ID'
p2468
S''
sS'PERP INCIDENT CATEGORY'
p2469
S'STATESPONSORED VIOLENCE'
p2470
sS'PERP ORGANIZATION ID'
p2471
S'COLOMBIAN MILITARY'
p2472
sS'HUM TGT TYPE'
p2473
S'CIVILIAN SCOTT HEYNDAL'
p2474
sS'HUM TGT TOTAL NUMBER'
p2475
S''
sS'INCIDENT INSTRUMENT ID'
p2476
S''
sS'INCIDENT INSTRUMENT TYPE'
p2477
S''
sS'PHYS TGT FOREIGN NATION'
p2478
S''
sS'HUM TGT NUMBER'
p2479
S'1 SCOTT HEYNDAL'
p2480
sS'PHYS TGT TYPE'
p2481
S''
sS'HUM TGT NAME'
p2482
S'SCOTT HEYNDAL'
p2483
sS'INCIDENT TYPE'
p2484
S'KIDNAPPING'
p2485
sS'PHYS TGT NUMBER'
p2486
S''
sS'PERP INDIVIDUAL ID'
p2487
S'ATTACKERS ATTACKERS WHO WORE FIELD UNIFORMS OF THE COLOMBIAN MILITARY'
p2488
sS'INCIDENT STAGE OF EXECUTION'
p2489
S'ACCOMPLISHED'
p2490
sS'EDWIN RODRIGO TENEDA PARRENO'
p2491
S''
sS'HUM TGT DESCRIPTION'
p2492
S''
sS'PHYS TGT EFFECT OF INCIDENT'
p2493
S''
sS'HUM TGT FOREIGN NATION'
p2494
S'UNITED STATES SCOTT HEYNDAL'
p2495
sS'INCIDENT DATE'
p2496
S'30 APR 90'
p2497
sS'MESSAGE TEMPLATE'
p2498
S'3'
sS'PHYS TGT TOTAL NUMBER'
p2499
S''
ssS'TST2-MUC4-0012'
p2500
(dp2501
S'PERP ORGANIZATION CONFIDENCE'
p2502
S''
sS'HUM TGT EFFECT OF INCIDENT'
p2503
S'DEATH JECAR NEGHME'
p2504
sS'INCIDENT LOCATION'
p2505
S'CHILE SANTIAGO CITY'
p2506
sS'PHYS TGT ID'
p2507
S''
sS'PERP INCIDENT CATEGORY'
p2508
S''
sS'PERP ORGANIZATION ID'
p2509
S''
sS'HUM TGT TYPE'
p2510
S'POLITICAL FIGURE JECAR NEGHME'
p2511
sS'HUM TGT TOTAL NUMBER'
p2512
S''
sS'INCIDENT INSTRUMENT ID'
p2513
S''
sS'INCIDENT INSTRUMENT TYPE'
p2514
S''
sS'PHYS TGT FOREIGN NATION'
p2515
S''
sS'HUM TGT NUMBER'
p2516
S'1 JECAR NEGHME'
p2517
sS'PHYS TGT TYPE'
p2518
S''
sS'HUM TGT NAME'
p2519
S'JECAR NEGHME'
p2520
sS'INCIDENT TYPE'
p2521
S'ATTACK'
p2522
sS'PHYS TGT NUMBER'
p2523
S''
sS'PERP INDIVIDUAL ID'
p2524
S''
sS'INCIDENT STAGE OF EXECUTION'
p2525
S'ACCOMPLISHED'
p2526
sS'HUM TGT DESCRIPTION'
p2527
S'SPOKESMAN OF THE MIR SPOKESMAN OF THE MIR MOVEMENT OF THE REVOLUTIONARY LEFT JECAR NEGHME'
p2528
sS'PHYS TGT EFFECT OF INCIDENT'
p2529
S''
sS'HUM TGT FOREIGN NATION'
p2530
S''
sS'INCIDENT DATE'
p2531
S'06 SEP 89'
p2532
sS'MESSAGE TEMPLATE'
p2533
S'1'
sS'PHYS TGT TOTAL NUMBER'
p2534
S''
ssS'TST2-MUC4-0011'
p2535
(dp2536
S'PERP ORGANIZATION CONFIDENCE'
p2537
S'SUSPECTED OR ACCUSED BY AUTHORITIES REPORTED AS FACT ARMED FORCES SALVADORAN ARMY ARMY'
p2538
sS'HUM TGT EFFECT OF INCIDENT'
p2539
S'DEATH JESUIT PRIESTS JESUITS PRIESTS'
p2540
sS'INCIDENT LOCATION'
p2541
S'EL SALVADOR'
p2542
sS'PHYS TGT ID'
p2543
S''
sS'PERP INCIDENT CATEGORY'
p2544
S'STATESPONSORED VIOLENCE'
p2545
sS'PERP ORGANIZATION ID'
p2546
S'ARMED FORCES SALVADORAN ARMY ARMY'
p2547
sS'HUM TGT TYPE'
p2548
S'CIVILIAN JESUIT PRIESTS JESUITS PRIESTS'
p2549
sS'HUM TGT TOTAL NUMBER'
p2550
S''
sS'INCIDENT INSTRUMENT ID'
p2551
S''
sS'INCIDENT INSTRUMENT TYPE'
p2552
S''
sS'PHYS TGT FOREIGN NATION'
p2553
S''
sS'HUM TGT NUMBER'
p2554
S'6 JESUIT PRIESTS JESUITS PRIESTS'
p2555
sS'PHYS TGT TYPE'
p2556
S''
sS'HUM TGT NAME'
p2557
S''
sS'INCIDENT TYPE'
p2558
S'ATTACK'
p2559
sS'PHYS TGT NUMBER'
p2560
S''
sS'PERP INDIVIDUAL ID'
p2561
S'COLONEL GUILLERMO ALFREDO BENAVIDES MORENO'
p2562
sS'INCIDENT STAGE OF EXECUTION'
p2563
S'ACCOMPLISHED'
p2564
sS'HUM TGT DESCRIPTION'
p2565
S'JESUIT PRIESTS JESUITS PRIESTS'
p2566
sS'PHYS TGT EFFECT OF INCIDENT'
p2567
S''
sS'HUM TGT FOREIGN NATION'
p2568
S''
sS'INCIDENT DATE'
p2569
S'07 FEB 90'
p2570
sS'MESSAGE TEMPLATE'
p2571
S'1'
sS'PHYS TGT TOTAL NUMBER'
p2572
S''
ssS'TST2-MUC4-0010'
p2573
(dp2574
S'PERP ORGANIZATION CONFIDENCE'
p2575
S''
sS'HUM TGT EFFECT OF INCIDENT'
p2576
S''
sS'INCIDENT LOCATION'
p2577
S'COLOMBIA BOGOTA CITY'
p2578
sS'PHYS TGT ID'
p2579
S'NEWSPAPER'
p2580
sS'PERP INCIDENT CATEGORY'
p2581
S'TERRORIST ACT'
p2582
sS'PERP ORGANIZATION ID'
p2583
S''
sS'HUM TGT TYPE'
p2584
S''
sS'HUM TGT TOTAL NUMBER'
p2585
S''
sS'INCIDENT INSTRUMENT ID'
p2586
S''
sS'INCIDENT INSTRUMENT TYPE'
p2587
S'EXPLOSIVE'
p2588
sS'PHYS TGT FOREIGN NATION'
p2589
S''
sS'HUM TGT NUMBER'
p2590
S''
sS'PHYS TGT TYPE'
p2591
S'COMMUNICATIONS COMMERCIAL NEWSPAPER'
p2592
sS'HUM TGT NAME'
p2593
S''
sS'INCIDENT TYPE'
p2594
S'BOMBING'
p2595
sS'PHYS TGT NUMBER'
p2596
S'1 NEWSPAPER'
p2597
sS'PERP INDIVIDUAL ID'
p2598
S''
sS'INCIDENT STAGE OF EXECUTION'
p2599
S'ACCOMPLISHED'
p2600
sS'HUM TGT DESCRIPTION'
p2601
S''
sS'PHYS TGT EFFECT OF INCIDENT'
p2602
S'DESTROYED NEWSPAPER'
p2603
sS'HUM TGT FOREIGN NATION'
p2604
S''
sS'INCIDENT DATE'
p2605
S''
sS'MESSAGE TEMPLATE'
p2606
S'1'
sS'PHYS TGT TOTAL NUMBER'
p2607
S''
ssS'TST2-MUC4-0017'
p2608
(dp2609
S'PERP ORGANIZATION CONFIDENCE'
p2610
S''
sS'HUM TGT EFFECT OF INCIDENT'
p2611
S'DEATH PEOPLE'
p2612
sS'PEOPLE'
p2613
S''
sS'INCIDENT LOCATION'
p2614
S'COLOMBIA BOGOTA CITY'
p2615
sS'PHYS TGT ID'
p2616
S'FEDERAL POLICE BUILDING'
p2617
sS'PERP INCIDENT CATEGORY'
p2618
S'TERRORIST ACT'
p2619
sS'PERP ORGANIZATION ID'
p2620
S''
sS'HUM TGT TYPE'
p2621
S'CIVILIAN PEOPLE'
p2622
sS'HUM TGT TOTAL NUMBER'
p2623
S''
sS'INCIDENT INSTRUMENT ID'
p2624
S'TRUCKBOMB TRUCK TRUCK RIGGED WITH DYNAMITE'
p2625
sS'INCIDENT INSTRUMENT TYPE'
p2626
S'VEHICLE BOMB TRUCKBOMB TRUCK TRUCK RIGGED WITH DYNAMITE'
p2627
sS'PHYS TGT FOREIGN NATION'
p2628
S''
sS'HUM TGT NUMBER'
p2629
S'23 PEOPLE'
p2630
sS'PHYS TGT TYPE'
p2631
S'LAW ENFORCEMENT FACILITY FEDERAL POLICE BUILDING'
p2632
sS'HUM TGT NAME'
p2633
S''
sS'INCIDENT TYPE'
p2634
S'BOMBING'
p2635
sS'PHYS TGT NUMBER'
p2636
S'1 FEDERAL POLICE BUILDING'
p2637
sS'PERP INDIVIDUAL ID'
p2638
S''
sS'INCIDENT STAGE OF EXECUTION'
p2639
S'ACCOMPLISHED'
p2640
sS'HUM TGT DESCRIPTION'
p2641
S'PEOPLE'
p2642
sS'PHYS TGT EFFECT OF INCIDENT'
p2643
S''
sS'HUM TGT FOREIGN NATION'
p2644
S''
sS'INCIDENT DATE'
p2645
S'08 DEC 89'
p2646
sS'MESSAGE TEMPLATE'
p2647
S'1'
sS'PHYS TGT TOTAL NUMBER'
p2648
S''
ssS'TST2-MUC4-0016'
p2649
(dp2650
S'PERP ORGANIZATION CONFIDENCE'
p2651
S''
sS'HUM TGT EFFECT OF INCIDENT'
p2652
S''
sS'INCIDENT LOCATION'
p2653
S''
sS'PHYS TGT ID'
p2654
S''
sS'PERP INCIDENT CATEGORY'
p2655
S''
sS'PERP ORGANIZATION ID'
p2656
S''
sS'HUM TGT TYPE'
p2657
S''
sS'HUM TGT TOTAL NUMBER'
p2658
S''
sS'INCIDENT INSTRUMENT ID'
p2659
S''
sS'INCIDENT INSTRUMENT TYPE'
p2660
S''
sS'PHYS TGT FOREIGN NATION'
p2661
S''
sS'HUM TGT NUMBER'
p2662
S''
sS'PHYS TGT TYPE'
p2663
S''
sS'HUM TGT NAME'
p2664
S''
sS'INCIDENT TYPE'
p2665
S''
sS'PHYS TGT NUMBER'
p2666
S''
sS'PERP INDIVIDUAL ID'
p2667
S''
sS'INCIDENT STAGE OF EXECUTION'
p2668
S''
sS'HUM TGT DESCRIPTION'
p2669
S''
sS'PHYS TGT EFFECT OF INCIDENT'
p2670
S''
sS'HUM TGT FOREIGN NATION'
p2671
S''
sS'INCIDENT DATE'
p2672
S''
sS'MESSAGE TEMPLATE'
p2673
S''
sS'PHYS TGT TOTAL NUMBER'
p2674
S''
ssS'TST2-MUC4-0015'
p2675
(dp2676
S'PERP ORGANIZATION CONFIDENCE'
p2677
S'POSSIBLE MEDELLIN CARTEL'
p2678
sS'HUM TGT EFFECT OF INCIDENT'
p2679
S'NO DEATH'
p2680
sS'INCIDENT LOCATION'
p2681
S'COLOMBIA MEDELLIN CITY'
p2682
sS'PHYS TGT ID'
p2683
S'BANCO CAFETERO BRANCHES AND ITS OFFICES BANK BRANCH OFFICES'
p2684
sS'PERP INCIDENT CATEGORY'
p2685
S'TERRORIST ACT'
p2686
sS'PERP ORGANIZATION ID'
p2687
S'MEDELLIN CARTEL'
p2688
sS'HUM TGT TYPE'
p2689
S''
sS'HUM TGT TOTAL NUMBER'
p2690
S''
sS'INCIDENT INSTRUMENT ID'
p2691
S'OVER 55 KG OF DYNAMITE 55 KG OF DYNAMITE DYNAMITE'
p2692
sS'INCIDENT INSTRUMENT TYPE'
p2693
S'DYNAMITE OVER 55 KG OF DYNAMITE 55 KG OF DYNAMITE DYNAMITE'
p2694
sS'PHYS TGT FOREIGN NATION'
p2695
S''
sS'HUM TGT NUMBER'
p2696
S''
sS'PHYS TGT TYPE'
p2697
S'FINANCIAL BANCO CAFETERO BRANCHES AND ITS OFFICES BANK BRANCH OFFICES'
p2698
sS'HUM TGT NAME'
p2699
S''
sS'INCIDENT TYPE'
p2700
S'BOMBING'
p2701
sS'PHYS TGT NUMBER'
p2702
S'7 BANCO CAFETERO BRANCHES AND ITS OFFICES BANK BRANCH OFFICES'
p2703
sS'PERP INDIVIDUAL ID'
p2704
S'TERRORIST'
p2705
sS'INCIDENT STAGE OF EXECUTION'
p2706
S'ACCOMPLISHED'
p2707
sS'HUM TGT DESCRIPTION'
p2708
S''
sS'PHYS TGT EFFECT OF INCIDENT'
p2709
S'SOME DAMAGE BANCO CAFETERO BRANCHES AND ITS OFFICES BANK BRANCH OFFICES'
p2710
sS'HUM TGT FOREIGN NATION'
p2711
S''
sS'INCIDENT DATE'
p2712
S'27 AUG 89'
p2713
sS'MESSAGE TEMPLATE'
p2714
S'1'
sS'PHYS TGT TOTAL NUMBER'
p2715
S''
ssS'TST2-MUC4-0014'
p2716
(dp2717
S'PERP ORGANIZATION CONFIDENCE'
p2718
S''
sS'HUM TGT EFFECT OF INCIDENT'
p2719
S''
sS'INCIDENT LOCATION'
p2720
S''
sS'PHYS TGT ID'
p2721
S''
sS'PERP INCIDENT CATEGORY'
p2722
S''
sS'PERP ORGANIZATION ID'
p2723
S''
sS'HUM TGT TYPE'
p2724
S''
sS'HUM TGT TOTAL NUMBER'
p2725
S''
sS'INCIDENT INSTRUMENT ID'
p2726
S''
sS'INCIDENT INSTRUMENT TYPE'
p2727
S''
sS'PHYS TGT FOREIGN NATION'
p2728
S''
sS'HUM TGT NUMBER'
p2729
S''
sS'PHYS TGT TYPE'
p2730
S''
sS'HUM TGT NAME'
p2731
S''
sS'INCIDENT TYPE'
p2732
S''
sS'PHYS TGT NUMBER'
p2733
S''
sS'PERP INDIVIDUAL ID'
p2734
S''
sS'INCIDENT STAGE OF EXECUTION'
p2735
S''
sS'HUM TGT DESCRIPTION'
p2736
S''
sS'PHYS TGT EFFECT OF INCIDENT'
p2737
S''
sS'HUM TGT FOREIGN NATION'
p2738
S''
sS'INCIDENT DATE'
p2739
S''
sS'MESSAGE TEMPLATE'
p2740
S''
sS'PHYS TGT TOTAL NUMBER'
p2741
S''
ssS'TST2-MUC4-0068'
p2742
(dp2743
S'17YEAROLD'
p2744
S''
sS'PERP ORGANIZATION CONFIDENCE'
p2745
S'CLAIMED OR ADMITTED GUATEMALAN ARMY ARMY'
p2746
sS'HUM TGT EFFECT OF INCIDENT'
p2747
S'DEATH PEASANTS CIVIL SELFDEFENSE PATROL PAC MEMBERS CIVILIAN PATROL CIVILIAN PATROL UNIT CIVILIANS INDIAN PEASANTS PAC PATROL'
p2748
sS'INCIDENT LOCATION'
p2749
S'GUATEMALA COBAN CITY LA PROVIDENCIA COMMUNITY GUATEMALA COBAN MILITARY BASE LA PROVIDENCIA COMMUNITY GUATEMALA LA PROVIDENCIA COMMUNITY'
p2750
sS'PHYS TGT ID'
p2751
S''
sS'PERP INCIDENT CATEGORY'
p2752
S'STATESPONSORED VIOLENCE'
p2753
sS'PERP ORGANIZATION ID'
p2754
S'GUATEMALAN ARMY ARMY'
p2755
sS'HUM TGT TYPE'
p2756
S'CIVILIAN PEASANTS CIVIL SELFDEFENSE PATROL PAC MEMBERS CIVILIAN PATROL CIVILIAN PATROL UNIT CIVILIANS INDIAN PEASANTS PAC PATROL'
p2757
sS'HUM TGT TOTAL NUMBER'
p2758
S'70'
p2759
sS'INCIDENT INSTRUMENT ID'
p2760
S''
sS'INCIDENT INSTRUMENT TYPE'
p2761
S'GUN'
p2762
sS'PHYS TGT FOREIGN NATION'
p2763
S''
sS'HUM TGT NUMBER'
p2764
S'70 PEASANTS CIVIL SELFDEFENSE PATROL PAC MEMBERS CIVILIAN PATROL CIVILIAN PATROL UNIT CIVILIANS INDIAN PEASANTS PAC PATROL'
p2765
sS'PHYS TGT TYPE'
p2766
S''
sS'HUM TGT NAME'
p2767
S''
sS'INCIDENT TYPE'
p2768
S'ATTACK'
p2769
sS'PHYS TGT NUMBER'
p2770
S''
sS'PERP INDIVIDUAL ID'
p2771
S'GUATEMALAN ARMY TROOPS SOLDIERS NORTHEASTERN COBAN BASE TROOPS ARMY TROOPS TROOPS'
p2772
sS'INCIDENT STAGE OF EXECUTION'
p2773
S'ACCOMPLISHED'
p2774
sS'HUM TGT DESCRIPTION'
p2775
S'PEASANTS CIVIL SELFDEFENSE PATROL PAC MEMBERS CIVILIAN PATROL CIVILIAN PATROL UNIT CIVILIANS INDIAN PEASANTS PAC PATROL'
p2776
sS'PHYS TGT EFFECT OF INCIDENT'
p2777
S''
sS'HUM TGT FOREIGN NATION'
p2778
S''
sS'INCIDENT DATE'
p2779
S'17 AUG 89'
p2780
sS'MESSAGE TEMPLATE'
p2781
S'1'
sS'PEASANTS CIVIL SELFDEFENSE'
p2782
S'PATROL PAC MEMBERS CIVILIAN PATROL CIVILIAN PATROL UNIT CIVILIANS INDIAN PEASANTS PAC PATROL'
p2783
sS'PHYS TGT TOTAL NUMBER'
p2784
S''
ssS'TST2-MUC4-0069'
p2785
(dp2786
S'PERP ORGANIZATION CONFIDENCE'
p2787
S''
sS'HUM TGT EFFECT OF INCIDENT'
p2788
S'INJURY POLICEMAN'
p2789
sS'INCIDENT LOCATION'
p2790
S'COLOMBIA MEDELLIN CITY'
p2791
sS'PHYS TGT ID'
p2792
S'FASTFOOD RESTAURANT PRESTO INSTALLATIONS RESTAURANT'
p2793
sS'PERP INCIDENT CATEGORY'
p2794
S'TERRORIST ACT'
p2795
sS'PERP ORGANIZATION ID'
p2796
S''
sS'HUM TGT TYPE'
p2797
S'CIVILIAN PEOPLE'
p2798
sS'HUM TGT TOTAL NUMBER'
p2799
S''
sS'INCIDENT INSTRUMENT ID'
p2800
S'BOMB MEDIUMSIZED BOMB'
p2801
sS'INCIDENT INSTRUMENT TYPE'
p2802
S'BOMB BOMB MEDIUMSIZED BOMB'
p2803
sS'PHYS TGT FOREIGN NATION'
p2804
S''
sS'POLICEMAN'
p2805
S''
sS'HUM TGT NUMBER'
p2806
S'35 PEOPLE'
p2807
sS'PHYS TGT TYPE'
p2808
S'COMMERCIAL FASTFOOD RESTAURANT PRESTO INSTALLATIONS RESTAURANT'
p2809
sS'HUM TGT NAME'
p2810
S''
sS'INCIDENT TYPE'
p2811
S'BOMBING'
p2812
sS'PHYS TGT NUMBER'
p2813
S'1 FASTFOOD RESTAURANT PRESTO INSTALLATIONS RESTAURANT'
p2814
sS'PERP INDIVIDUAL ID'
p2815
S'TWO MEN MEN'
p2816
sS'INCIDENT STAGE OF EXECUTION'
p2817
S'ACCOMPLISHED'
p2818
sS'HUM TGT DESCRIPTION'
p2819
S'PEOPLE'
p2820
sS'PHYS TGT EFFECT OF INCIDENT'
p2821
S'SOME DAMAGE FASTFOOD RESTAURANT PRESTO INSTALLATIONS RESTAURANT'
p2822
sS'HUM TGT FOREIGN NATION'
p2823
S''
sS'INCIDENT DATE'
p2824
S'07 SEP 89'
p2825
sS'MESSAGE TEMPLATE'
p2826
S'2'
sS'PHYS TGT TOTAL NUMBER'
p2827
S''
ssS'TST2-MUC4-0066'
p2828
(dp2829
S'PERP ORGANIZATION CONFIDENCE'
p2830
S''
sS'HUM TGT EFFECT OF INCIDENT'
p2831
S''
sS'INCIDENT LOCATION'
p2832
S''
sS'PHYS TGT ID'
p2833
S''
sS'PERP INCIDENT CATEGORY'
p2834
S''
sS'PERP ORGANIZATION ID'
p2835
S''
sS'HUM TGT TYPE'
p2836
S''
sS'HUM TGT TOTAL NUMBER'
p2837
S''
sS'INCIDENT INSTRUMENT ID'
p2838
S''
sS'INCIDENT INSTRUMENT TYPE'
p2839
S''
sS'PHYS TGT FOREIGN NATION'
p2840
S''
sS'HUM TGT NUMBER'
p2841
S''
sS'PHYS TGT TYPE'
p2842
S''
sS'HUM TGT NAME'
p2843
S''
sS'INCIDENT TYPE'
p2844
S''
sS'PHYS TGT NUMBER'
p2845
S''
sS'PERP INDIVIDUAL ID'
p2846
S''
sS'INCIDENT STAGE OF EXECUTION'
p2847
S''
sS'HUM TGT DESCRIPTION'
p2848
S''
sS'PHYS TGT EFFECT OF INCIDENT'
p2849
S''
sS'HUM TGT FOREIGN NATION'
p2850
S''
sS'INCIDENT DATE'
p2851
S''
sS'MESSAGE TEMPLATE'
p2852
S''
sS'PHYS TGT TOTAL NUMBER'
p2853
S''
ssS'TST2-MUC4-0067'
p2854
(dp2855
S'PERP ORGANIZATION CONFIDENCE'
p2856
S'REPORTED AS FACT FMLN'
p2857
sS'HUM TGT EFFECT OF INCIDENT'
p2858
S''
sS'INCIDENT LOCATION'
p2859
S'EL SALVADOR'
p2860
sS'PHYS TGT ID'
p2861
S''
sS'PERP INCIDENT CATEGORY'
p2862
S'TERRORIST ACT'
p2863
sS'PERP ORGANIZATION ID'
p2864
S'FMLN'
p2865
sS'HUM TGT TYPE'
p2866
S'GOVERNMENT OFFICIAL CIVILIAN ELECTION OFFICIALS'
p2867
sS'HUM TGT TOTAL NUMBER'
p2868
S''
sS'INCIDENT INSTRUMENT ID'
p2869
S''
sS'INCIDENT INSTRUMENT TYPE'
p2870
S''
sS'PHYS TGT FOREIGN NATION'
p2871
S''
sS'HUM TGT NUMBER'
p2872
S'PLURAL ELECTION OFFICIALS'
p2873
sS'PHYS TGT TYPE'
p2874
S''
sS'HUM TGT NAME'
p2875
S''
sS'INCIDENT TYPE'
p2876
S'ATTACK'
p2877
sS'PHYS TGT NUMBER'
p2878
S''
sS'PERP INDIVIDUAL ID'
p2879
S'SALVADORAN REBELS REBELS'
p2880
sS'INCIDENT STAGE OF EXECUTION'
p2881
S'THREATENED'
p2882
sS'HUM TGT DESCRIPTION'
p2883
S'ELECTION OFFICIALS'
p2884
sS'PHYS TGT EFFECT OF INCIDENT'
p2885
S''
sS'HUM TGT FOREIGN NATION'
p2886
S''
sS'INCIDENT DATE'
p2887
S'12 MAR 89'
p2888
sS'MESSAGE TEMPLATE'
p2889
S'3'
sS'PHYS TGT TOTAL NUMBER'
p2890
S''
ssS'TST2-MUC4-0064'
p2891
(dp2892
S'PERP ORGANIZATION CONFIDENCE'
p2893
S''
sS'HUM TGT EFFECT OF INCIDENT'
p2894
S'NO RESIGNATION MONICA DE GREIFF'
p2895
sS'MIGUEL JOSE'
p2896
S''
sS'INCIDENT LOCATION'
p2897
S'COLOMBIA'
p2898
sS'PHYS TGT ID'
p2899
S''
sS'PERP INCIDENT CATEGORY'
p2900
S'TERRORIST ACT'
p2901
sS'FAMILY HER FAMILY'
p2902
S''
sS'PERP ORGANIZATION ID'
p2903
S''
sS'HUM TGT TYPE'
p2904
S'LEGAL OR JUDICIAL GOVERNMENT OFFICIAL MONICA DE GREIFF'
p2905
sS'HUM TGT TOTAL NUMBER'
p2906
S''
sS'INCIDENT INSTRUMENT ID'
p2907
S''
sS'INCIDENT INSTRUMENT TYPE'
p2908
S''
sS'PHYS TGT FOREIGN NATION'
p2909
S''
sS'HUM TGT NUMBER'
p2910
S'1 MONICA DE GREIFF'
p2911
sS'PHYS TGT TYPE'
p2912
S''
sS'HUM TGT NAME'
p2913
S'MONICA DE GREIFF'
p2914
sS'INCIDENT TYPE'
p2915
S'ATTACK'
p2916
sS'PHYS TGT NUMBER'
p2917
S''
sS'PERP INDIVIDUAL ID'
p2918
S'DRUG TRAFFICKERS'
p2919
sS'INCIDENT STAGE OF EXECUTION'
p2920
S'THREATENED'
p2921
sS'HUM TGT DESCRIPTION'
p2922
S'JUSTICE MINISTER MONICA DE GREIFF'
p2923
sS'PHYS TGT EFFECT OF INCIDENT'
p2924
S''
sS'HUM TGT FOREIGN NATION'
p2925
S''
sS'INCIDENT DATE'
p2926
S'11 SEP 89 10 SEP 89'
p2927
sS'MESSAGE TEMPLATE'
p2928
S'1'
sS'PHYS TGT TOTAL NUMBER'
p2929
S''
ssS'TST2-MUC4-0065'
p2930
(dp2931
S'PERP ORGANIZATION CONFIDENCE'
p2932
S''
sS'HUM TGT EFFECT OF INCIDENT'
p2933
S''
sS'INCIDENT LOCATION'
p2934
S''
sS'PHYS TGT ID'
p2935
S''
sS'PERP INCIDENT CATEGORY'
p2936
S''
sS'PERP ORGANIZATION ID'
p2937
S''
sS'HUM TGT TYPE'
p2938
S''
sS'HUM TGT TOTAL NUMBER'
p2939
S''
sS'INCIDENT INSTRUMENT ID'
p2940
S''
sS'INCIDENT INSTRUMENT TYPE'
p2941
S''
sS'PHYS TGT FOREIGN NATION'
p2942
S''
sS'HUM TGT NUMBER'
p2943
S''
sS'PHYS TGT TYPE'
p2944
S''
sS'HUM TGT NAME'
p2945
S''
sS'INCIDENT TYPE'
p2946
S''
sS'PHYS TGT NUMBER'
p2947
S''
sS'PERP INDIVIDUAL ID'
p2948
S''
sS'INCIDENT STAGE OF EXECUTION'
p2949
S''
sS'HUM TGT DESCRIPTION'
p2950
S''
sS'PHYS TGT EFFECT OF INCIDENT'
p2951
S''
sS'HUM TGT FOREIGN NATION'
p2952
S''
sS'INCIDENT DATE'
p2953
S''
sS'MESSAGE TEMPLATE'
p2954
S''
sS'PHYS TGT TOTAL NUMBER'
p2955
S''
ssS'TST2-MUC4-0062'
p2956
(dp2957
S'PERP ORGANIZATION CONFIDENCE'
p2958
S''
sS'HUM TGT EFFECT OF INCIDENT'
p2959
S''
sS'INCIDENT LOCATION'
p2960
S''
sS'PHYS TGT ID'
p2961
S''
sS'PERP INCIDENT CATEGORY'
p2962
S''
sS'PERP ORGANIZATION ID'
p2963
S''
sS'HUM TGT TYPE'
p2964
S''
sS'HUM TGT TOTAL NUMBER'
p2965
S''
sS'INCIDENT INSTRUMENT ID'
p2966
S''
sS'INCIDENT INSTRUMENT TYPE'
p2967
S''
sS'PHYS TGT FOREIGN NATION'
p2968
S''
sS'HUM TGT NUMBER'
p2969
S''
sS'PHYS TGT TYPE'
p2970
S''
sS'HUM TGT NAME'
p2971
S''
sS'INCIDENT TYPE'
p2972
S''
sS'PHYS TGT NUMBER'
p2973
S''
sS'PERP INDIVIDUAL ID'
p2974
S''
sS'INCIDENT STAGE OF EXECUTION'
p2975
S''
sS'HUM TGT DESCRIPTION'
p2976
S''
sS'PHYS TGT EFFECT OF INCIDENT'
p2977
S''
sS'HUM TGT FOREIGN NATION'
p2978
S''
sS'INCIDENT DATE'
p2979
S''
sS'MESSAGE TEMPLATE'
p2980
S''
sS'PHYS TGT TOTAL NUMBER'
p2981
S''
ssS'TST2-MUC4-0063'
p2982
(dp2983
S'PERP ORGANIZATION CONFIDENCE'
p2984
S''
sS'HUM TGT EFFECT OF INCIDENT'
p2985
S'DEATH UNION LEADERS'
p2986
sS'INCIDENT LOCATION'
p2987
S'EL SALVADOR SAN SALVADOR CITY EL SALVADOR'
p2988
sS'PHYS TGT ID'
p2989
S'UNION HEADQUARTERS'
p2990
sS'PERP INCIDENT CATEGORY'
p2991
S''
sS'PERP ORGANIZATION ID'
p2992
S''
sS'HUM TGT TYPE'
p2993
S'CIVILIAN UNION LEADERS'
p2994
sS'HUM TGT TOTAL NUMBER'
p2995
S''
sS'INCIDENT INSTRUMENT ID'
p2996
S''
sS'INCIDENT INSTRUMENT TYPE'
p2997
S''
sS'PHYS TGT FOREIGN NATION'
p2998
S''
sS'HUM TGT NUMBER'
p2999
S'10 UNION LEADERS'
p3000
sS'PHYS TGT TYPE'
p3001
S'ORGANIZATION OFFICE UNION HEADQUARTERS'
p3002
sS'HUM TGT NAME'
p3003
S''
sS'INCIDENT TYPE'
p3004
S'ATTACK'
p3005
sS'PHYS TGT NUMBER'
p3006
S'1 UNION HEADQUARTERS'
p3007
sS'PERP INDIVIDUAL ID'
p3008
S''
sS'INCIDENT STAGE OF EXECUTION'
p3009
S'ACCOMPLISHED'
p3010
sS'HUM TGT DESCRIPTION'
p3011
S'UNION LEADERS'
p3012
sS'PHYS TGT EFFECT OF INCIDENT'
p3013
S''
sS'HUM TGT FOREIGN NATION'
p3014
S''
sS'INCIDENT DATE'
p3015
S'31 OCT 89'
p3016
sS'MESSAGE TEMPLATE'
p3017
S'2'
sS'PHYS TGT TOTAL NUMBER'
p3018
S''
ssS'TST2-MUC4-0060'
p3019
(dp3020
S'PERP ORGANIZATION CONFIDENCE'
p3021
S''
sS'HUM TGT EFFECT OF INCIDENT'
p3022
S''
sS'INCIDENT LOCATION'
p3023
S''
sS'PHYS TGT ID'
p3024
S''
sS'PERP INCIDENT CATEGORY'
p3025
S''
sS'PERP ORGANIZATION ID'
p3026
S''
sS'HUM TGT TYPE'
p3027
S''
sS'HUM TGT TOTAL NUMBER'
p3028
S''
sS'INCIDENT INSTRUMENT ID'
p3029
S''
sS'INCIDENT INSTRUMENT TYPE'
p3030
S''
sS'PHYS TGT FOREIGN NATION'
p3031
S''
sS'HUM TGT NUMBER'
p3032
S''
sS'PHYS TGT TYPE'
p3033
S''
sS'HUM TGT NAME'
p3034
S''
sS'INCIDENT TYPE'
p3035
S''
sS'PHYS TGT NUMBER'
p3036
S''
sS'PERP INDIVIDUAL ID'
p3037
S''
sS'INCIDENT STAGE OF EXECUTION'
p3038
S''
sS'HUM TGT DESCRIPTION'
p3039
S''
sS'PHYS TGT EFFECT OF INCIDENT'
p3040
S''
sS'HUM TGT FOREIGN NATION'
p3041
S''
sS'INCIDENT DATE'
p3042
S''
sS'MESSAGE TEMPLATE'
p3043
S''
sS'PHYS TGT TOTAL NUMBER'
p3044
S''
ssS'TST2-MUC4-0061'
p3045
(dp3046
S'PERP ORGANIZATION CONFIDENCE'
p3047
S''
sS'HUM TGT EFFECT OF INCIDENT'
p3048
S'NO INJURY OR DEATH NO DEATH EMPLOYEES'
p3049
sS'INCIDENT LOCATION'
p3050
S'COLOMBIA BOGOTA CITY'
p3051
sS'PHYS TGT ID'
p3052
S'NEWSPAPER EL SIGLOS FACILITIES'
p3053
sS'PERP INCIDENT CATEGORY'
p3054
S'TERRORIST ACT'
p3055
sS'PERP ORGANIZATION ID'
p3056
S''
sS'HUM TGT TYPE'
p3057
S'CIVILIAN EMPLOYEES'
p3058
sS'HUM TGT TOTAL NUMBER'
p3059
S''
sS'INCIDENT INSTRUMENT ID'
p3060
S''
sS'INCIDENT INSTRUMENT TYPE'
p3061
S'GUN'
p3062
sS'PHYS TGT FOREIGN NATION'
p3063
S''
sS'HUM TGT NUMBER'
p3064
S'1 HIPOLITO HINCAPIE'
p3065
sS'PHYS TGT TYPE'
p3066
S'COMMERCIAL COMMUNICATIONS NEWSPAPER EL SIGLOS FACILITIES'
p3067
sS'HUM TGT NAME'
p3068
S'HIPOLITO HINCAPIE'
p3069
sS'INCIDENT TYPE'
p3070
S'ATTACK'
p3071
sS'PHYS TGT NUMBER'
p3072
S'1 PLURAL NEWSPAPER EL SIGLOS FACILITIES'
p3073
sS'PERP INDIVIDUAL ID'
p3074
S'ARMED INDIVIDUALS INDIVIDUALS INDIVIDUALS IN A BLUE RENAULT 12'
p3075
sS'INCIDENT STAGE OF EXECUTION'
p3076
S'ACCOMPLISHED'
p3077
sS'HUM TGT DESCRIPTION'
p3078
S'EL SIGLO EDITOR EDITOR HIPOLITO HINCAPIE'
p3079
sS'PHYS TGT EFFECT OF INCIDENT'
p3080
S'SOME DAMAGE NEWSPAPER EL SIGLOS FACILITIES'
p3081
sS'HUM TGT FOREIGN NATION'
p3082
S''
sS'INCIDENT DATE'
p3083
S'16 SEP 89 15 SEP 89 16 SEP 89'
p3084
sS'MESSAGE TEMPLATE'
p3085
S'1'
sS'PHYS TGT TOTAL NUMBER'
p3086
S''
ssS'TST2-MUC4-0079'
p3087
(dp3088
S'PERP ORGANIZATION CONFIDENCE'
p3089
S''
sS'HUM TGT EFFECT OF INCIDENT'
p3090
S''
sS'INCIDENT LOCATION'
p3091
S''
sS'PHYS TGT ID'
p3092
S''
sS'PERP INCIDENT CATEGORY'
p3093
S''
sS'PERP ORGANIZATION ID'
p3094
S''
sS'HUM TGT TYPE'
p3095
S''
sS'HUM TGT TOTAL NUMBER'
p3096
S''
sS'INCIDENT INSTRUMENT ID'
p3097
S''
sS'INCIDENT INSTRUMENT TYPE'
p3098
S''
sS'PHYS TGT FOREIGN NATION'
p3099
S''
sS'HUM TGT NUMBER'
p3100
S''
sS'PHYS TGT TYPE'
p3101
S''
sS'HUM TGT NAME'
p3102
S''
sS'INCIDENT TYPE'
p3103
S''
sS'PHYS TGT NUMBER'
p3104
S''
sS'PERP INDIVIDUAL ID'
p3105
S''
sS'INCIDENT STAGE OF EXECUTION'
p3106
S''
sS'HUM TGT DESCRIPTION'
p3107
S''
sS'PHYS TGT EFFECT OF INCIDENT'
p3108
S''
sS'HUM TGT FOREIGN NATION'
p3109
S''
sS'INCIDENT DATE'
p3110
S''
sS'MESSAGE TEMPLATE'
p3111
S''
sS'PHYS TGT TOTAL NUMBER'
p3112
S''
ssS'TST2-MUC4-0078'
p3113
(dp3114
S'PERP ORGANIZATION CONFIDENCE'
p3115
S'REPORTED AS FACT CLAIMED OR ADMITTED FMLN FARABUNDO MARTI NATIONAL LIBERATION FRONT'
p3116
sS'HUM TGT EFFECT OF INCIDENT'
p3117
S''
sS'INCIDENT LOCATION'
p3118
S'EL SALVADOR SAN SALVADOR CITY'
p3119
sS'PHYS TGT ID'
p3120
S'POWER LINES'
p3121
sS'PERP INCIDENT CATEGORY'
p3122
S'TERRORIST ACT'
p3123
sS'PERP ORGANIZATION ID'
p3124
S'FMLN FARABUNDO MARTI NATIONAL LIBERATION FRONT'
p3125
sS'HUM TGT TYPE'
p3126
S''
sS'HUM TGT TOTAL NUMBER'
p3127
S''
sS'INCIDENT INSTRUMENT ID'
p3128
S''
sS'INCIDENT INSTRUMENT TYPE'
p3129
S''
sS'PHYS TGT FOREIGN NATION'
p3130
S''
sS'HUM TGT NUMBER'
p3131
S''
sS'PHYS TGT TYPE'
p3132
S'ENERGY POWER LINES'
p3133
sS'HUM TGT NAME'
p3134
S''
sS'INCIDENT TYPE'
p3135
S'ATTACK'
p3136
sS'TRANSFORMERS'
p3137
S''
sS'PHYS TGT NUMBER'
p3138
S'PLURAL POWER LINES'
p3139
sS'PERP INDIVIDUAL ID'
p3140
S'FMLN FARABUNDO MARTI NATIONAL LIBERATION FRONT FORCES'
p3141
sS'INCIDENT STAGE OF EXECUTION'
p3142
S'ACCOMPLISHED'
p3143
sS'HUM TGT DESCRIPTION'
p3144
S''
sS'PHYS TGT EFFECT OF INCIDENT'
p3145
S'SOME DAMAGE POWER LINES'
p3146
sS'HUM TGT FOREIGN NATION'
p3147
S''
sS'INCIDENT DATE'
p3148
S'28 NOV 89'
p3149
sS'MESSAGE TEMPLATE'
p3150
S'1'
sS'PHYS TGT TOTAL NUMBER'
p3151
S''
ssS'TST2-MUC4-0075'
p3152
(dp3153
S'PERP ORGANIZATION CONFIDENCE'
p3154
S''
sS'HUM TGT EFFECT OF INCIDENT'
p3155
S'DEATH PERSONS'
p3156
sS'INCIDENT LOCATION'
p3157
S'EL SALVADOR SAN SALVADOR CITY'
p3158
sS'PHYS TGT ID'
p3159
S'OFFICES OF THE SALVADORAN WORKERS NATIONAL UNION FEDERATION FENASTRAS OFFICES OF THE SALVADORAN WORKERS NATIONAL UNION FEDERATION'
p3160
sS'PERP INCIDENT CATEGORY'
p3161
S''
sS'PERP ORGANIZATION ID'
p3162
S''
sS'HUM TGT TYPE'
p3163
S'CIVILIAN PERSONS'
p3164
sS'HUM TGT TOTAL NUMBER'
p3165
S''
sS'INCIDENT INSTRUMENT ID'
p3166
S'CAR BOMB'
p3167
sS'INCIDENT INSTRUMENT TYPE'
p3168
S'VEHICLE BOMB CAR BOMB'
p3169
sS'PHYS TGT FOREIGN NATION'
p3170
S''
sS'HUM TGT NUMBER'
p3171
S'6 PERSONS'
p3172
sS'PHYS TGT TYPE'
p3173
S'ORGANIZATION OFFICE OFFICES OF THE SALVADORAN WORKERS NATIONAL UNION FEDERATION FENASTRAS OFFICES OF THE SALVADORAN WORKERS NATIONAL UNION FEDERATION'
p3174
sS'HUM TGT NAME'
p3175
S''
sS'INCIDENT TYPE'
p3176
S'BOMBING'
p3177
sS'PHYS TGT NUMBER'
p3178
S'PLURAL OFFICES OF THE SALVADORAN WORKERS NATIONAL UNION FEDERATION FENASTRAS OFFICES OF THE SALVADORAN WORKERS NATIONAL UNION FEDERATION'
p3179
sS'PERP INDIVIDUAL ID'
p3180
S''
sS'INCIDENT STAGE OF EXECUTION'
p3181
S'ACCOMPLISHED'
p3182
sS'HUM TGT DESCRIPTION'
p3183
S'PERSONS'
p3184
sS'PHYS TGT EFFECT OF INCIDENT'
p3185
S''
sS'HUM TGT FOREIGN NATION'
p3186
S''
sS'INCIDENT DATE'
p3187
S'31 OCT 89'
p3188
sS'MESSAGE TEMPLATE'
p3189
S'1'
sS'PHYS TGT TOTAL NUMBER'
p3190
S''
ssS'TST2-MUC4-0074'
p3191
(dp3192
S'PERP ORGANIZATION CONFIDENCE'
p3193
S'REPORTED AS FACT ARMED FORCES'
p3194
sS'HUM TGT EFFECT OF INCIDENT'
p3195
S''
sS'INCIDENT LOCATION'
p3196
S'EL SALVADOR SAN SALVADOR CITY'
p3197
sS'PHYS TGT ID'
p3198
S'LABOR UNION OFFICES'
p3199
sS'PERP INCIDENT CATEGORY'
p3200
S'STATESPONSORED VIOLENCE'
p3201
sS'PERP ORGANIZATION ID'
p3202
S'ARMED FORCES'
p3203
sS'HUM TGT TYPE'
p3204
S''
sS'HUM TGT TOTAL NUMBER'
p3205
S''
sS'INCIDENT INSTRUMENT ID'
p3206
S''
sS'INCIDENT INSTRUMENT TYPE'
p3207
S''
sS'PHYS TGT FOREIGN NATION'
p3208
S''
sS'HUM TGT NUMBER'
p3209
S''
sS'PHYS TGT TYPE'
p3210
S'ORGANIZATION OFFICE LABOR UNION OFFICES'
p3211
sS'HUM TGT NAME'
p3212
S''
sS'INCIDENT TYPE'
p3213
S'ROBBERY'
p3214
sS'PHYS TGT NUMBER'
p3215
S'PLURAL LABOR UNION OFFICES'
p3216
sS'PERP INDIVIDUAL ID'
p3217
S'GENERAL STAFF OF THE ARMED FORCES GENERAL STAFF'
p3218
sS'INCIDENT STAGE OF EXECUTION'
p3219
S'ACCOMPLISHED'
p3220
sS'HUM TGT DESCRIPTION'
p3221
S''
sS'PHYS TGT EFFECT OF INCIDENT'
p3222
S'PROPERTY TAKEN FROM TARGET MONEY TAKEN FROM TARGET LABOR UNION OFFICES'
p3223
sS'HUM TGT FOREIGN NATION'
p3224
S''
sS'INCIDENT DATE'
p3225
S'16 NOV 00'
p3226
sS'MESSAGE TEMPLATE'
p3227
S'2'
sS'PHYS TGT TOTAL NUMBER'
p3228
S''
ssS'TST2-MUC4-0077'
p3229
(dp3230
S'PERP ORGANIZATION CONFIDENCE'
p3231
S'CLAIMED OR ADMITTED TUPAC AMARU REVOLUTIONARY MOVEMENT MRTA'
p3232
sS'HUM TGT EFFECT OF INCIDENT'
p3233
S''
sS'INCIDENT LOCATION'
p3234
S'PERU'
p3235
sS'PHYS TGT ID'
p3236
S''
sS'PERP INCIDENT CATEGORY'
p3237
S'TERRORIST ACT'
p3238
sS'PERP ORGANIZATION ID'
p3239
S'TUPAC AMARU REVOLUTIONARY MOVEMENT MRTA'
p3240
sS'HUM TGT TYPE'
p3241
S'CIVILIAN CARLOS ENRIQUE FERREYROS'
p3242
sS'HUM TGT TOTAL NUMBER'
p3243
S''
sS'INCIDENT INSTRUMENT ID'
p3244
S''
sS'INCIDENT INSTRUMENT TYPE'
p3245
S''
sS'PHYS TGT FOREIGN NATION'
p3246
S''
sS'HUM TGT NUMBER'
p3247
S'1 CARLOS ENRIQUE FERREYROS'
p3248
sS'PHYS TGT TYPE'
p3249
S''
sS'HUM TGT NAME'
p3250
S'CARLOS ENRIQUE FERREYROS'
p3251
sS'INCIDENT TYPE'
p3252
S'KIDNAPPING'
p3253
sS'PHYS TGT NUMBER'
p3254
S''
sS'PERP INDIVIDUAL ID'
p3255
S''
sS'INCIDENT STAGE OF EXECUTION'
p3256
S'ACCOMPLISHED'
p3257
sS'HUM TGT DESCRIPTION'
p3258
S'BUSINESSMEN THE KIND OF THE MACHINERY INDUSTRY CARLOS ENRIQUE FERREYROS'
p3259
sS'PHYS TGT EFFECT OF INCIDENT'
p3260
S''
sS'HUM TGT FOREIGN NATION'
p3261
S''
sS'INCIDENT DATE'
p3262
S'02 DEC 88'
p3263
sS'MESSAGE TEMPLATE'
p3264
S'2'
sS'PHYS TGT TOTAL NUMBER'
p3265
S''
ssS'TST2-MUC4-0076'
p3266
(dp3267
S'PERP ORGANIZATION CONFIDENCE'
p3268
S''
sS'HUM TGT EFFECT OF INCIDENT'
p3269
S'NO INJURY OR DEATH'
p3270
sS'INCIDENT LOCATION'
p3271
S'COLOMBIA CORDOBA DEPARTMENT MONTERIA CITY'
p3272
sS'PHYS TGT ID'
p3273
S'US STATE DEPARTMENT HERCULES C123 CARGO PLANE HERCULES C123 CARGO PLANE CARGO PLANE PLANE STATE DEPARTMENT HERCULES C123 CARGO PLANE C123 CARGO PLANE'
p3274
sS'PERP INCIDENT CATEGORY'
p3275
S''
sS'PERP ORGANIZATION ID'
p3276
S''
sS'HUM TGT TYPE'
p3277
S''
sS'HUM TGT TOTAL NUMBER'
p3278
S''
sS'INCIDENT INSTRUMENT ID'
p3279
S'INCENDIARY BOMB BOMB'
p3280
sS'INCIDENT INSTRUMENT TYPE'
p3281
S'BOMB INCENDIARY BOMB BOMB'
p3282
sS'PHYS TGT FOREIGN NATION'
p3283
S'UNITED STATES US STATE DEPARTMENT HERCULES C123 CARGO PLANE HERCULES C123 CARGO PLANE CARGO PLANE PLANE STATE DEPARTMENT HERCULES C123 CARGO PLANE C123 CARGO PLANE'
p3284
sS'HUM TGT NUMBER'
p3285
S''
sS'PHYS TGT TYPE'
p3286
S'TRANSPORT VEHICLE US STATE DEPARTMENT HERCULES C123 CARGO PLANE HERCULES C123 CARGO PLANE CARGO PLANE PLANE STATE DEPARTMENT HERCULES C123 CARGO PLANE C123 CARGO PLANE'
p3287
sS'HUM TGT NAME'
p3288
S''
sS'INCIDENT TYPE'
p3289
S'BOMBING'
p3290
sS'PHYS TGT NUMBER'
p3291
S'1 US STATE DEPARTMENT HERCULES C123 CARGO PLANE HERCULES C123 CARGO PLANE CARGO PLANE PLANE STATE DEPARTMENT HERCULES C123 CARGO PLANE C123 CARGO PLANE'
p3292
sS'PERP INDIVIDUAL ID'
p3293
S'UNIDENTIFIED PERSONS'
p3294
sS'INCIDENT STAGE OF EXECUTION'
p3295
S'ACCOMPLISHED'
p3296
sS'HUM TGT DESCRIPTION'
p3297
S''
sS'PHYS TGT EFFECT OF INCIDENT'
p3298
S'SOME DAMAGE US STATE DEPARTMENT HERCULES C123 CARGO PLANE HERCULES C123 CARGO PLANE CARGO PLANE PLANE STATE DEPARTMENT HERCULES C123 CARGO PLANE C123 CARGO PLANE'
p3299
sS'HUM TGT FOREIGN NATION'
p3300
S''
sS'INCIDENT DATE'
p3301
S'03 SEP 89'
p3302
sS'MESSAGE TEMPLATE'
p3303
S'1'
sS'PHYS TGT TOTAL NUMBER'
p3304
S''
ssS'TST2-MUC4-0071'
p3305
(dp3306
S'PERP ORGANIZATION CONFIDENCE'
p3307
S''
sS'HUM TGT EFFECT OF INCIDENT'
p3308
S'DEATH JESUIT PRIESTS PRIESTS JESUITS'
p3309
sS'INCIDENT LOCATION'
p3310
S'EL SALVADOR SAN SALVADOR CITY EL SALVADOR SAN SALVADOR DEPARTMENT'
p3311
sS'PHYS TGT ID'
p3312
S''
sS'PERP INCIDENT CATEGORY'
p3313
S''
sS'PERP ORGANIZATION ID'
p3314
S''
sS'HUM TGT TYPE'
p3315
S'CIVILIAN JESUIT PRIESTS PRIESTS JESUITS'
p3316
sS'HUM TGT TOTAL NUMBER'
p3317
S''
sS'INCIDENT INSTRUMENT ID'
p3318
S''
sS'INCIDENT INSTRUMENT TYPE'
p3319
S''
sS'PHYS TGT FOREIGN NATION'
p3320
S''
sS'HUM TGT NUMBER'
p3321
S'6 JESUIT PRIESTS PRIESTS JESUITS'
p3322
sS'PHYS TGT TYPE'
p3323
S''
sS'HUM TGT NAME'
p3324
S''
sS'INCIDENT TYPE'
p3325
S'ATTACK'
p3326
sS'PHYS TGT NUMBER'
p3327
S''
sS'PERP INDIVIDUAL ID'
p3328
S''
sS'INCIDENT STAGE OF EXECUTION'
p3329
S'ACCOMPLISHED'
p3330
sS'HUM TGT DESCRIPTION'
p3331
S'JESUIT PRIESTS PRIESTS JESUITS'
p3332
sS'PHYS TGT EFFECT OF INCIDENT'
p3333
S''
sS'HUM TGT FOREIGN NATION'
p3334
S''
sS'INCIDENT DATE'
p3335
S'16 NOV 89'
p3336
sS'MESSAGE TEMPLATE'
p3337
S'1'
sS'PHYS TGT TOTAL NUMBER'
p3338
S''
ssS'TST2-MUC4-0070'
p3339
(dp3340
S'PERP ORGANIZATION CONFIDENCE'
p3341
S'REPORTED AS FACT FEDERATION OF COMMITTEES OF MOTHERS AND RELATIVES FECMAFAM MSGR OSCAR ARNULFO ROMERO FEDERATION OF COMMITTEES OF MOTHERS AND RELATIVES FECMAFAM OF POLITICAL PRISONERS AND MURDERED AND MISSING PEOPLE'
p3342
sS'HUM TGT EFFECT OF INCIDENT'
p3343
S'REGAINED FREEDOM PEOPLE'
p3344
sS'INCIDENT LOCATION'
p3345
S'EL SALVADOR SAN SALVADOR CITY'
p3346
sS'PHYS TGT ID'
p3347
S''
sS'PERP INCIDENT CATEGORY'
p3348
S'TERRORIST ACT'
p3349
sS'PERP ORGANIZATION ID'
p3350
S'FEDERATION OF COMMITTEES OF MOTHERS AND RELATIVES FECMAFAM MSGR OSCAR ARNULFO ROMERO FEDERATION OF COMMITTEES OF MOTHERS AND RELATIVES FECMAFAM OF POLITICAL PRISONERS AND MURDERED AND MISSING PEOPLE'
p3351
sS'HUM TGT TYPE'
p3352
S'CIVILIAN PEOPLE'
p3353
sS'HUM TGT TOTAL NUMBER'
p3354
S''
sS'INCIDENT INSTRUMENT ID'
p3355
S''
sS'INCIDENT INSTRUMENT TYPE'
p3356
S''
sS'PHYS TGT FOREIGN NATION'
p3357
S''
sS'HUM TGT NUMBER'
p3358
S'1 JESUS FERNANDEZ'
p3359
sS'PHYS TGT TYPE'
p3360
S''
sS'HUM TGT NAME'
p3361
S'JESUS FERNANDEZ'
p3362
sS'INCIDENT TYPE'
p3363
S'KIDNAPPING'
p3364
sS'PHYS TGT NUMBER'
p3365
S''
sS'TELEVISION JOURNALISTS JOURN'
p3366
S'ALISTS'
p3367
sS'PERP INDIVIDUAL ID'
p3368
S'MEMBERS AND SYMPATHIZERS OF THE MSGR OSCAR ARNULFO ROMERO FEDERATION OF COMMITTEES OF MOTHERS AND RELATIVES FECMAFAM OF POLITICAL PRISONERS AND MURDERED AND MISSING PEOPLE'
p3369
sS'INCIDENT STAGE OF EXECUTION'
p3370
S'ACCOMPLISHED'
p3371
sS'HUM TGT DESCRIPTION'
p3372
S'AMBASSADOR JESUS FERNANDEZ'
p3373
sS'PHYS TGT EFFECT OF INCIDENT'
p3374
S''
sS'HUM TGT FOREIGN NATION'
p3375
S'COSTA RICA DIPLOMATS EMBASSY OFFICIALS'
p3376
sS'DIPLOMATS EMBASSY OFFICIALS'
p3377
S''
sS'INCIDENT DATE'
p3378
S'05 OCT 89 04 OCT 89 05 OCT 89'
p3379
sS'MESSAGE TEMPLATE'
p3380
S'1'
sS'PHYS TGT TOTAL NUMBER'
p3381
S''
ssS'TST2-MUC4-0073'
p3382
(dp3383
S'PERP ORGANIZATION CONFIDENCE'
p3384
S''
sS'HUM TGT EFFECT OF INCIDENT'
p3385
S'DEATH JESUITS JESUIT PRIESTS PRIESTS'
p3386
sS'INCIDENT LOCATION'
p3387
S'EL SALVADOR'
p3388
sS'PHYS TGT ID'
p3389
S''
sS'PERP INCIDENT CATEGORY'
p3390
S'STATESPONSORED VIOLENCE'
p3391
sS'PERP ORGANIZATION ID'
p3392
S''
sS'HUM TGT TYPE'
p3393
S'CIVILIAN JESUITS JESUIT PRIESTS PRIESTS'
p3394
sS'HUM TGT TOTAL NUMBER'
p3395
S''
sS'INCIDENT INSTRUMENT ID'
p3396
S''
sS'INCIDENT INSTRUMENT TYPE'
p3397
S''
sS'PHYS TGT FOREIGN NATION'
p3398
S''
sS'HUM TGT NUMBER'
p3399
S'6 JESUITS JESUIT PRIESTS PRIESTS'
p3400
sS'PHYS TGT TYPE'
p3401
S''
sS'HUM TGT NAME'
p3402
S''
sS'INCIDENT TYPE'
p3403
S'ATTACK'
p3404
sS'PHYS TGT NUMBER'
p3405
S''
sS'PERP INDIVIDUAL ID'
p3406
S'MILITARY'
p3407
sS'INCIDENT STAGE OF EXECUTION'
p3408
S'ACCOMPLISHED'
p3409
sS'HUM TGT DESCRIPTION'
p3410
S'JESUITS JESUIT PRIESTS PRIESTS'
p3411
sS'PHYS TGT EFFECT OF INCIDENT'
p3412
S''
sS'HUM TGT FOREIGN NATION'
p3413
S''
sS'INCIDENT DATE'
p3414
S'14 JAN 90'
p3415
sS'MESSAGE TEMPLATE'
p3416
S'1'
sS'PHYS TGT TOTAL NUMBER'
p3417
S''
ssS'TST2-MUC4-0072'
p3418
(dp3419
S'PERP ORGANIZATION CONFIDENCE'
p3420
S''
sS'HUM TGT EFFECT OF INCIDENT'
p3421
S''
sS'INCIDENT LOCATION'
p3422
S''
sS'PHYS TGT ID'
p3423
S''
sS'PERP INCIDENT CATEGORY'
p3424
S''
sS'PERP ORGANIZATION ID'
p3425
S''
sS'HUM TGT TYPE'
p3426
S''
sS'HUM TGT TOTAL NUMBER'
p3427
S''
sS'INCIDENT INSTRUMENT ID'
p3428
S''
sS'INCIDENT INSTRUMENT TYPE'
p3429
S''
sS'PHYS TGT FOREIGN NATION'
p3430
S''
sS'HUM TGT NUMBER'
p3431
S''
sS'PHYS TGT TYPE'
p3432
S''
sS'HUM TGT NAME'
p3433
S''
sS'INCIDENT TYPE'
p3434
S''
sS'PHYS TGT NUMBER'
p3435
S''
sS'PERP INDIVIDUAL ID'
p3436
S''
sS'INCIDENT STAGE OF EXECUTION'
p3437
S''
sS'HUM TGT DESCRIPTION'
p3438
S''
sS'PHYS TGT EFFECT OF INCIDENT'
p3439
S''
sS'HUM TGT FOREIGN NATION'
p3440
S''
sS'INCIDENT DATE'
p3441
S''
sS'MESSAGE TEMPLATE'
p3442
S''
sS'PHYS TGT TOTAL NUMBER'
p3443
S''
ss.