(dp1
S'TST3-MUC4-0041'
p2
(dp3
S'PERP ORGANIZATION CONFIDENCE'
p4
S''
sS'HUM TGT EFFECT OF INCIDENT'
p5
S'INJURY EMPLOYEES OF THE GAS STATION WHERE THE CAR BOMB WENT OFF EMPLOYEES OF THE GAS STATION'
p6
sS'INCIDENT LOCATION'
p7
S'COLOMBIA SUBA MUNICIPALITY'
p8
sS'PHYS TGT ID'
p9
S'GAS STATION'
p10
sS'PERP INCIDENT CATEGORY'
p11
S''
sS'PERP ORGANIZATION ID'
p12
S''
sS'HUM TGT TYPE'
p13
S'CIVILIAN EMPLOYEES OF THE GAS STATION WHERE THE CAR BOMB WENT OFF EMPLOYEES OF THE GAS STATION'
p14
sS'HUM TGT TOTAL NUMBER'
p15
S''
sS'INCIDENT INSTRUMENT ID'
p16
S'CAR BOMB'
p17
sS'INCIDENT INSTRUMENT TYPE'
p18
S'VEHICLE BOMB CAR BOMB'
p19
sS'PHYS TGT FOREIGN NATION'
p20
S''
sS'HUM TGT NUMBER'
p21
S'3 EMPLOYEES OF THE GAS STATION WHERE THE CAR BOMB WENT OFF EMPLOYEES OF THE GAS STATION'
p22
sS'PHYS TGT TYPE'
p23
S'COMMERCIAL GAS STATION'
p24
sS'HUM TGT NAME'
p25
S''
sS'INCIDENT TYPE'
p26
S'BOMBING'
p27
sS'PHYS TGT NUMBER'
p28
S'1 GAS STATION'
p29
sS'PEOPLE WHO WERE WALKING BY THE'
p30
S'GAS STATION AT THE MOMENT OF THE EXPLOSION PEOPLE WHO WERE WALKING BY THE GAS STATION PEOPLE'
p31
sS'PERP INDIVIDUAL ID'
p32
S'TWO PEOPLE PEOPLE TWO PEOPLE WHO WERE KILLED PEOPLE WHO WERE KILLED'
p33
sS'INCIDENT STAGE OF EXECUTION'
p34
S'ACCOMPLISHED'
p35
sS'HUM TGT DESCRIPTION'
p36
S'EMPLOYEES OF THE GAS STATION WHERE THE CAR BOMB WENT OFF EMPLOYEES OF THE GAS STATION'
p37
sS'PHYS TGT EFFECT OF INCIDENT'
p38
S'SOME DAMAGE GAS STATION'
p39
sS'HUM TGT FOREIGN NATION'
p40
S''
sS'INCIDENT DATE'
p41
S'27 SEP 89 27 SEP 89 28 SEP 89'
p42
sS'MESSAGE TEMPLATE'
p43
S'1'
sS'PHYS TGT TOTAL NUMBER'
p44
S''
ssS'TST3-MUC4-0040'
p45
(dp46
S'PERP ORGANIZATION CONFIDENCE'
p47
S''
sS'HUM TGT EFFECT OF INCIDENT'
p48
S''
sS'INCIDENT LOCATION'
p49
S'COLOMBIA BOGOTA CITY TEUSAQUILLO NEIGHBORHOOD'
p50
sS'PHYS TGT ID'
p51
S'POLITICAL OFFICES OF THE LIBERAL AND SOCIAL CONSERVATIVE PARTIES POLITICAL OFFICES'
p52
sS'PERP INCIDENT CATEGORY'
p53
S''
sS'PERP ORGANIZATION ID'
p54
S''
sS'HUM TGT TYPE'
p55
S''
sS'HUM TGT TOTAL NUMBER'
p56
S''
sS'INCIDENT INSTRUMENT ID'
p57
S'10 BOMBS BOMBS'
p58
sS'INCIDENT INSTRUMENT TYPE'
p59
S'BOMB 10 BOMBS BOMBS'
p60
sS'PHYS TGT FOREIGN NATION'
p61
S''
sS'HUM TGT NUMBER'
p62
S''
sS'PHYS TGT TYPE'
p63
S'POLITICAL FIGURE OFFICE OR RESIDENCE ORGANIZATION OFFICE POLITICAL OFFICES OF THE LIBERAL AND SOCIAL CONSERVATIVE PARTIES POLITICAL OFFICES'
p64
sS'HUM TGT NAME'
p65
S''
sS'INCIDENT TYPE'
p66
S'BOMBING'
p67
sS'BANK OFFICE'
p68
S''
sS'PHYS TGT NUMBER'
p69
S'9 POLITICAL OFFICES OF THE LIBERAL AND SOCIAL CONSERVATIVE PARTIES POLITICAL OFFICES'
p70
sS'PERP INDIVIDUAL ID'
p71
S''
sS'INCIDENT STAGE OF EXECUTION'
p72
S'ACCOMPLISHED'
p73
sS'HUM TGT DESCRIPTION'
p74
S''
sS'PHYS TGT EFFECT OF INCIDENT'
p75
S''
sS'HUM TGT FOREIGN NATION'
p76
S''
sS'INCIDENT DATE'
p77
S'21 SEP 89'
p78
sS'MESSAGE TEMPLATE'
p79
S'2'
sS'PHYS TGT TOTAL NUMBER'
p80
S'10'
p81
ssS'TST3-MUC4-0043'
p82
(dp83
S'PERP ORGANIZATION CONFIDENCE'
p84
S''
sS'HUM TGT EFFECT OF INCIDENT'
p85
S'DEATH ARNULFO ROMERO'
p86
sS'INCIDENT LOCATION'
p87
S'EL SALVADOR'
p88
sS'PHYS TGT ID'
p89
S''
sS'PERP INCIDENT CATEGORY'
p90
S''
sS'PERP ORGANIZATION ID'
p91
S''
sS'HUM TGT TYPE'
p92
S'CIVILIAN ARNULFO ROMERO'
p93
sS'HUM TGT TOTAL NUMBER'
p94
S''
sS'INCIDENT INSTRUMENT ID'
p95
S''
sS'INCIDENT INSTRUMENT TYPE'
p96
S''
sS'PHYS TGT FOREIGN NATION'
p97
S''
sS'HUM TGT NUMBER'
p98
S'1 ARNULFO ROMERO'
p99
sS'PHYS TGT TYPE'
p100
S''
sS'HUM TGT NAME'
p101
S'ARNULFO ROMERO'
p102
sS'INCIDENT TYPE'
p103
S'ATTACK'
p104
sS'PHYS TGT NUMBER'
p105
S''
sS'PERP INDIVIDUAL ID'
p106
S''
sS'INCIDENT STAGE OF EXECUTION'
p107
S'ACCOMPLISHED'
p108
sS'HUM TGT DESCRIPTION'
p109
S'MONSIGNOR ARNULFO ROMERO'
p110
sS'PHYS TGT EFFECT OF INCIDENT'
p111
S''
sS'HUM TGT FOREIGN NATION'
p112
S''
sS'INCIDENT DATE'
p113
S'29 SEP 89'
p114
sS'MESSAGE TEMPLATE'
p115
S'1'
sS'PHYS TGT TOTAL NUMBER'
p116
S''
ssS'TST3-MUC4-0042'
p117
(dp118
S'PERP ORGANIZATION CONFIDENCE'
p119
S''
sS'HUM TGT EFFECT OF INCIDENT'
p120
S''
sS'INCIDENT LOCATION'
p121
S''
sS'PHYS TGT ID'
p122
S''
sS'PERP INCIDENT CATEGORY'
p123
S''
sS'PERP ORGANIZATION ID'
p124
S''
sS'HUM TGT TYPE'
p125
S''
sS'HUM TGT TOTAL NUMBER'
p126
S''
sS'INCIDENT INSTRUMENT ID'
p127
S''
sS'INCIDENT INSTRUMENT TYPE'
p128
S''
sS'PHYS TGT FOREIGN NATION'
p129
S''
sS'HUM TGT NUMBER'
p130
S''
sS'PHYS TGT TYPE'
p131
S''
sS'HUM TGT NAME'
p132
S''
sS'INCIDENT TYPE'
p133
S''
sS'PHYS TGT NUMBER'
p134
S''
sS'PERP INDIVIDUAL ID'
p135
S''
sS'INCIDENT STAGE OF EXECUTION'
p136
S''
sS'HUM TGT DESCRIPTION'
p137
S''
sS'PHYS TGT EFFECT OF INCIDENT'
p138
S''
sS'HUM TGT FOREIGN NATION'
p139
S''
sS'INCIDENT DATE'
p140
S''
sS'MESSAGE TEMPLATE'
p141
S''
sS'PHYS TGT TOTAL NUMBER'
p142
S''
ssS'TST3-MUC4-0045'
p143
(dp144
S'PERP ORGANIZATION CONFIDENCE'
p145
S''
sS'HUM TGT EFFECT OF INCIDENT'
p146
S''
sS'INCIDENT LOCATION'
p147
S''
sS'PHYS TGT ID'
p148
S''
sS'PERP INCIDENT CATEGORY'
p149
S''
sS'PERP ORGANIZATION ID'
p150
S''
sS'HUM TGT TYPE'
p151
S''
sS'HUM TGT TOTAL NUMBER'
p152
S''
sS'INCIDENT INSTRUMENT ID'
p153
S''
sS'INCIDENT INSTRUMENT TYPE'
p154
S''
sS'PHYS TGT FOREIGN NATION'
p155
S''
sS'HUM TGT NUMBER'
p156
S''
sS'PHYS TGT TYPE'
p157
S''
sS'HUM TGT NAME'
p158
S''
sS'INCIDENT TYPE'
p159
S''
sS'PHYS TGT NUMBER'
p160
S''
sS'PERP INDIVIDUAL ID'
p161
S''
sS'INCIDENT STAGE OF EXECUTION'
p162
S''
sS'HUM TGT DESCRIPTION'
p163
S''
sS'PHYS TGT EFFECT OF INCIDENT'
p164
S''
sS'HUM TGT FOREIGN NATION'
p165
S''
sS'INCIDENT DATE'
p166
S''
sS'MESSAGE TEMPLATE'
p167
S''
sS'PHYS TGT TOTAL NUMBER'
p168
S''
ssS'TST3-MUC4-0044'
p169
(dp170
S'PERP ORGANIZATION CONFIDENCE'
p171
S''
sS'HUM TGT EFFECT OF INCIDENT'
p172
S'INJURY BEATRIZ IERO'
p173
sS'INCIDENT LOCATION'
p174
S'ARGENTINA BUENOS AIRES CITY'
p175
sS'PHYS TGT ID'
p176
S'RICARDO ROJAS CULTURAL CENTER LOCATED AT 132 AYACUCHO STREET WHERE THE FORMER PRESIDENT HAS OFFICES FOR HIS POLITICAL ACTIVITIES RICARDO ROJAS CULTURAL CENTER OFFICES THAT FORMER PRESIDENT RAUL ALFONSIN HAS IN THIS CITY'
p177
sS'PERP INCIDENT CATEGORY'
p178
S''
sS'PERP ORGANIZATION ID'
p179
S''
sS'HUM TGT TYPE'
p180
S'CIVILIAN BEATRIZ IERO'
p181
sS'HUM TGT TOTAL NUMBER'
p182
S''
sS'INCIDENT INSTRUMENT ID'
p183
S'BOMB'
p184
sS'INCIDENT INSTRUMENT TYPE'
p185
S'BOMB BOMB'
p186
sS'PHYS TGT FOREIGN NATION'
p187
S''
sS'HUM TGT NUMBER'
p188
S'1 BEATRIZ IERO'
p189
sS'PHYS TGT TYPE'
p190
S'POLITICAL FIGURE OFFICE OR RESIDENCE RICARDO ROJAS CULTURAL CENTER LOCATED AT 132 AYACUCHO STREET WHERE THE FORMER PRESIDENT HAS OFFICES FOR HIS POLITICAL ACTIVITIES RICARDO ROJAS CULTURAL CENTER OFFICES THAT FORMER PRESIDENT RAUL ALFONSIN HAS IN THIS CITY'
p191
sS'HUM TGT NAME'
p192
S'BEATRIZ IERO'
p193
sS'INCIDENT TYPE'
p194
S'BOMBING'
p195
sS'PHYS TGT NUMBER'
p196
S'1 PLURAL RICARDO ROJAS CULTURAL CENTER LOCATED AT 132 AYACUCHO STREET WHERE THE FORMER PRESIDENT HAS OFFICES FOR HIS POLITICAL ACTIVITIES RICARDO ROJAS CULTURAL CENTER OFFICES THAT FORMER PRESIDENT RAUL ALFONSIN HAS IN THIS CITY'
p197
sS'PERP INDIVIDUAL ID'
p198
S''
sS'INCIDENT STAGE OF EXECUTION'
p199
S'ACCOMPLISHED'
p200
sS'HUM TGT DESCRIPTION'
p201
S''
sS'PHYS TGT EFFECT OF INCIDENT'
p202
S'SOME DAMAGE RICARDO ROJAS CULTURAL CENTER LOCATED AT 132 AYACUCHO STREET WHERE THE FORMER PRESIDENT HAS OFFICES FOR HIS POLITICAL ACTIVITIES RICARDO ROJAS CULTURAL CENTER OFFICES THAT FORMER PRESIDENT RAUL ALFONSIN HAS IN THIS CITY'
p203
sS'HUM TGT FOREIGN NATION'
p204
S''
sS'INCIDENT DATE'
p205
S'05 OCT 89'
p206
sS'MESSAGE TEMPLATE'
p207
S'1'
sS'PHYS TGT TOTAL NUMBER'
p208
S''
ssS'TST3-MUC4-0047'
p209
(dp210
S'PERP ORGANIZATION CONFIDENCE'
p211
S''
sS'HUM TGT EFFECT OF INCIDENT'
p212
S''
sS'INCIDENT LOCATION'
p213
S''
sS'PHYS TGT ID'
p214
S''
sS'PERP INCIDENT CATEGORY'
p215
S''
sS'PERP ORGANIZATION ID'
p216
S''
sS'HUM TGT TYPE'
p217
S''
sS'HUM TGT TOTAL NUMBER'
p218
S''
sS'INCIDENT INSTRUMENT ID'
p219
S''
sS'INCIDENT INSTRUMENT TYPE'
p220
S''
sS'PHYS TGT FOREIGN NATION'
p221
S''
sS'HUM TGT NUMBER'
p222
S''
sS'PHYS TGT TYPE'
p223
S''
sS'HUM TGT NAME'
p224
S''
sS'INCIDENT TYPE'
p225
S''
sS'PHYS TGT NUMBER'
p226
S''
sS'PERP INDIVIDUAL ID'
p227
S''
sS'INCIDENT STAGE OF EXECUTION'
p228
S''
sS'HUM TGT DESCRIPTION'
p229
S''
sS'PHYS TGT EFFECT OF INCIDENT'
p230
S''
sS'HUM TGT FOREIGN NATION'
p231
S''
sS'INCIDENT DATE'
p232
S''
sS'MESSAGE TEMPLATE'
p233
S''
sS'PHYS TGT TOTAL NUMBER'
p234
S''
ssS'TST3-MUC4-0046'
p235
(dp236
S'PERP ORGANIZATION CONFIDENCE'
p237
S''
sS'HUM TGT EFFECT OF INCIDENT'
p238
S'INJURY PEOPLE'
p239
sS'INCIDENT LOCATION'
p240
S'COLOMBIA BOGOTA CITY'
p241
sS'PHYS TGT ID'
p242
S'MAIN OFFICES IN BOGOTA OF EL ESPECTADOR'
p243
sS'PERP INCIDENT CATEGORY'
p244
S'TERRORIST ACT'
p245
sS'PERP ORGANIZATION ID'
p246
S''
sS'HUM TGT TYPE'
p247
S'CIVILIAN PEOPLE'
p248
sS'HUM TGT TOTAL NUMBER'
p249
S''
sS'INCIDENT INSTRUMENT ID'
p250
S'CAR BOMB'
p251
sS'INCIDENT INSTRUMENT TYPE'
p252
S'VEHICLE BOMB CAR BOMB'
p253
sS'PHYS TGT FOREIGN NATION'
p254
S''
sS'HUM TGT NUMBER'
p255
S'90 PEOPLE'
p256
sS'PHYS TGT TYPE'
p257
S'COMMERCIAL COMMUNICATIONS MAIN OFFICES IN BOGOTA OF EL ESPECTADOR'
p258
sS'HUM TGT NAME'
p259
S''
sS'INCIDENT TYPE'
p260
S'BOMBING'
p261
sS'PHYS TGT NUMBER'
p262
S'PLURAL MAIN OFFICES IN BOGOTA OF EL ESPECTADOR'
p263
sS'PERP INDIVIDUAL ID'
p264
S'DRUG TRAFFICKING MAFIA'
p265
sS'INCIDENT STAGE OF EXECUTION'
p266
S'ACCOMPLISHED'
p267
sS'HUM TGT DESCRIPTION'
p268
S'PEOPLE'
p269
sS'PHYS TGT EFFECT OF INCIDENT'
p270
S'SOME DAMAGE MAIN OFFICES IN BOGOTA OF EL ESPECTADOR'
p271
sS'HUM TGT FOREIGN NATION'
p272
S''
sS'INCIDENT DATE'
p273
S'02 SEP 89'
p274
sS'MESSAGE TEMPLATE'
p275
S'3'
sS'PHYS TGT TOTAL NUMBER'
p276
S''
ssS'TST3-MUC4-0049'
p277
(dp278
S'PERP ORGANIZATION CONFIDENCE'
p279
S''
sS'HUM TGT EFFECT OF INCIDENT'
p280
S''
sS'INCIDENT LOCATION'
p281
S''
sS'PHYS TGT ID'
p282
S''
sS'PERP INCIDENT CATEGORY'
p283
S''
sS'PERP ORGANIZATION ID'
p284
S''
sS'HUM TGT TYPE'
p285
S''
sS'HUM TGT TOTAL NUMBER'
p286
S''
sS'INCIDENT INSTRUMENT ID'
p287
S''
sS'INCIDENT INSTRUMENT TYPE'
p288
S''
sS'PHYS TGT FOREIGN NATION'
p289
S''
sS'HUM TGT NUMBER'
p290
S''
sS'PHYS TGT TYPE'
p291
S''
sS'HUM TGT NAME'
p292
S''
sS'INCIDENT TYPE'
p293
S''
sS'PHYS TGT NUMBER'
p294
S''
sS'PERP INDIVIDUAL ID'
p295
S''
sS'INCIDENT STAGE OF EXECUTION'
p296
S''
sS'HUM TGT DESCRIPTION'
p297
S''
sS'PHYS TGT EFFECT OF INCIDENT'
p298
S''
sS'HUM TGT FOREIGN NATION'
p299
S''
sS'INCIDENT DATE'
p300
S''
sS'MESSAGE TEMPLATE'
p301
S''
sS'PHYS TGT TOTAL NUMBER'
p302
S''
ssS'TST3-MUC4-0048'
p303
(dp304
S'PERP ORGANIZATION CONFIDENCE'
p305
S''
sS'HUM TGT EFFECT OF INCIDENT'
p306
S'NO RESIGNATION DIANA MACK ORTIZ'
p307
sS'INCIDENT LOCATION'
p308
S'GUATEMALA HUEHUETENANGO DEPARTMENT GUATEMALA'
p309
sS'PHYS TGT ID'
p310
S''
sS'PERP INCIDENT CATEGORY'
p311
S''
sS'PERP ORGANIZATION ID'
p312
S''
sS'HUM TGT TYPE'
p313
S'CIVILIAN DIANA MACK ORTIZ'
p314
sS'HUM TGT TOTAL NUMBER'
p315
S''
sS'INCIDENT INSTRUMENT ID'
p316
S''
sS'INCIDENT INSTRUMENT TYPE'
p317
S''
sS'PHYS TGT FOREIGN NATION'
p318
S''
sS'HUM TGT NUMBER'
p319
S'1 DIANA MACK ORTIZ'
p320
sS'PHYS TGT TYPE'
p321
S''
sS'HUM TGT NAME'
p322
S'DIANA MACK ORTIZ'
p323
sS'INCIDENT TYPE'
p324
S'ATTACK'
p325
sS'PHYS TGT NUMBER'
p326
S''
sS'PERP INDIVIDUAL ID'
p327
S''
sS'INCIDENT STAGE OF EXECUTION'
p328
S'THREATENED'
p329
sS'HUM TGT DESCRIPTION'
p330
S'NUN DIANA MACK ORTIZ'
p331
sS'PHYS TGT EFFECT OF INCIDENT'
p332
S''
sS'HUM TGT FOREIGN NATION'
p333
S'UNITED STATES DIANA MACK ORTIZ'
p334
sS'INCIDENT DATE'
p335
S'02 NOV 89'
p336
sS'MESSAGE TEMPLATE'
p337
S'3 OPTIONAL'
p338
sS'PHYS TGT TOTAL NUMBER'
p339
S''
ssS'TST3-MUC4-0078'
p340
(dp341
S'PERP ORGANIZATION CONFIDENCE'
p342
S'CLAIMED OR ADMITTED MIR MOVEMENT OF THE REVOLUTIONARY LEFT'
p343
sS'HUM TGT EFFECT OF INCIDENT'
p344
S'REGAINED FREEDOM ABILIO DINIZ'
p345
sS'INCIDENT LOCATION'
p346
S'BRAZIL'
p347
sS'PHYS TGT ID'
p348
S''
sS'PERP INCIDENT CATEGORY'
p349
S'TERRORIST ACT'
p350
sS'PERP ORGANIZATION ID'
p351
S'MIR MOVEMENT OF THE REVOLUTIONARY LEFT'
p352
sS'HUM TGT TYPE'
p353
S'CIVILIAN ABILIO DINIZ'
p354
sS'HUM TGT TOTAL NUMBER'
p355
S''
sS'INCIDENT INSTRUMENT ID'
p356
S''
sS'INCIDENT INSTRUMENT TYPE'
p357
S''
sS'PHYS TGT FOREIGN NATION'
p358
S''
sS'HUM TGT NUMBER'
p359
S'1 ABILIO DINIZ'
p360
sS'PHYS TGT TYPE'
p361
S''
sS'HUM TGT NAME'
p362
S'ABILIO DINIZ'
p363
sS'INCIDENT TYPE'
p364
S'KIDNAPPING'
p365
sS'PHYS TGT NUMBER'
p366
S''
sS'PERP INDIVIDUAL ID'
p367
S'FIVE CHILEANS'
p368
sS'INCIDENT STAGE OF EXECUTION'
p369
S'ACCOMPLISHED'
p370
sS'HUM TGT DESCRIPTION'
p371
S'BUSINESSMAN ABILIO DINIZ'
p372
sS'PHYS TGT EFFECT OF INCIDENT'
p373
S''
sS'HUM TGT FOREIGN NATION'
p374
S''
sS'INCIDENT DATE'
p375
S'19 DEC 89 13 DEC 89'
p376
sS'MESSAGE TEMPLATE'
p377
S'1'
sS'PHYS TGT TOTAL NUMBER'
p378
S''
ssS'TST3-MUC4-0079'
p379
(dp380
S'PERP ORGANIZATION CONFIDENCE'
p381
S''
sS'HUM TGT EFFECT OF INCIDENT'
p382
S''
sS'INCIDENT LOCATION'
p383
S''
sS'PHYS TGT ID'
p384
S''
sS'PERP INCIDENT CATEGORY'
p385
S''
sS'PERP ORGANIZATION ID'
p386
S''
sS'HUM TGT TYPE'
p387
S''
sS'HUM TGT TOTAL NUMBER'
p388
S''
sS'INCIDENT INSTRUMENT ID'
p389
S''
sS'INCIDENT INSTRUMENT TYPE'
p390
S''
sS'PHYS TGT FOREIGN NATION'
p391
S''
sS'HUM TGT NUMBER'
p392
S''
sS'PHYS TGT TYPE'
p393
S''
sS'HUM TGT NAME'
p394
S''
sS'INCIDENT TYPE'
p395
S''
sS'PHYS TGT NUMBER'
p396
S''
sS'PERP INDIVIDUAL ID'
p397
S''
sS'INCIDENT STAGE OF EXECUTION'
p398
S''
sS'HUM TGT DESCRIPTION'
p399
S''
sS'PHYS TGT EFFECT OF INCIDENT'
p400
S''
sS'HUM TGT FOREIGN NATION'
p401
S''
sS'INCIDENT DATE'
p402
S''
sS'MESSAGE TEMPLATE'
p403
S''
sS'PHYS TGT TOTAL NUMBER'
p404
S''
ssS'TST3-MUC4-0074'
p405
(dp406
S'PERP ORGANIZATION CONFIDENCE'
p407
S''
sS'HUM TGT EFFECT OF INCIDENT'
p408
S'DEATH FEBE ELIZABETH VELAZQUEZ'
p409
sS'INCIDENT LOCATION'
p410
S'EL SALVADOR'
p411
sS'PHYS TGT ID'
p412
S'FENASTRAS SALVADORAN WORKERS NATIONAL UNION FEDERATION FENASTRAS SALVADORAN WORKERS NATIONAL UNION FEDERATION'
p413
sS'PERP INCIDENT CATEGORY'
p414
S''
sS'PERP ORGANIZATION ID'
p415
S''
sS'HUM TGT TYPE'
p416
S'CIVILIAN FENASTRAS'
p417
sS'HUM TGT TOTAL NUMBER'
p418
S''
sS'INCIDENT INSTRUMENT ID'
p419
S'DYNAMITE'
p420
sS'INCIDENT INSTRUMENT TYPE'
p421
S'DYNAMITE DYNAMITE'
p422
sS'PHYS TGT FOREIGN NATION'
p423
S''
sS'HUM TGT NUMBER'
p424
S'1 FENASTRAS'
p425
sS'PHYS TGT TYPE'
p426
S'ORGANIZATION OFFICE OTHER FENASTRAS SALVADORAN WORKERS NATIONAL UNION FEDERATION FENASTRAS SALVADORAN WORKERS NATIONAL UNION FEDERATION'
p427
sS'HUM TGT NAME'
p428
S'FENASTRAS'
p429
sS'INCIDENT TYPE'
p430
S'BOMBING'
p431
sS'PHYS TGT NUMBER'
p432
S'1 FENASTRAS SALVADORAN WORKERS NATIONAL UNION FEDERATION FENASTRAS SALVADORAN WORKERS NATIONAL UNION FEDERATION'
p433
sS'PERP INDIVIDUAL ID'
p434
S''
sS'INCIDENT STAGE OF EXECUTION'
p435
S'ACCOMPLISHED'
p436
sS'FEBE ELIZABETH VELAZQUEZ'
p437
S''
sS'HUM TGT DESCRIPTION'
p438
S''
sS'PHYS TGT EFFECT OF INCIDENT'
p439
S''
sS'HUM TGT FOREIGN NATION'
p440
S''
sS'INCIDENT DATE'
p441
S'06 DEC 89'
p442
sS'MESSAGE TEMPLATE'
p443
S'1'
sS'PHYS TGT TOTAL NUMBER'
p444
S''
ssS'TST3-MUC4-0075'
p445
(dp446
S'PERP ORGANIZATION CONFIDENCE'
p447
S''
sS'HUM TGT EFFECT OF INCIDENT'
p448
S''
sS'INCIDENT LOCATION'
p449
S''
sS'PHYS TGT ID'
p450
S''
sS'PERP INCIDENT CATEGORY'
p451
S''
sS'PERP ORGANIZATION ID'
p452
S''
sS'HUM TGT TYPE'
p453
S''
sS'HUM TGT TOTAL NUMBER'
p454
S''
sS'INCIDENT INSTRUMENT ID'
p455
S''
sS'INCIDENT INSTRUMENT TYPE'
p456
S''
sS'PHYS TGT FOREIGN NATION'
p457
S''
sS'HUM TGT NUMBER'
p458
S''
sS'PHYS TGT TYPE'
p459
S''
sS'HUM TGT NAME'
p460
S''
sS'INCIDENT TYPE'
p461
S''
sS'PHYS TGT NUMBER'
p462
S''
sS'PERP INDIVIDUAL ID'
p463
S''
sS'INCIDENT STAGE OF EXECUTION'
p464
S''
sS'HUM TGT DESCRIPTION'
p465
S''
sS'PHYS TGT EFFECT OF INCIDENT'
p466
S''
sS'HUM TGT FOREIGN NATION'
p467
S''
sS'INCIDENT DATE'
p468
S''
sS'MESSAGE TEMPLATE'
p469
S''
sS'PHYS TGT TOTAL NUMBER'
p470
S''
ssS'TST3-MUC4-0076'
p471
(dp472
S'PERP ORGANIZATION CONFIDENCE'
p473
S'REPORTED AS FACT GOVERNMENT'
p474
sS'HUM TGT EFFECT OF INCIDENT'
p475
S'DEATH JESUIT PRIESTS PRIESTS'
p476
sS'INCIDENT LOCATION'
p477
S'EL SALVADOR'
p478
sS'PHYS TGT ID'
p479
S''
sS'PERP INCIDENT CATEGORY'
p480
S'STATESPONSORED VIOLENCE'
p481
sS'PERP ORGANIZATION ID'
p482
S'GOVERNMENT'
p483
sS'HUM TGT TYPE'
p484
S'CIVILIAN JESUIT PRIESTS PRIESTS'
p485
sS'HUM TGT TOTAL NUMBER'
p486
S''
sS'INCIDENT INSTRUMENT ID'
p487
S''
sS'INCIDENT INSTRUMENT TYPE'
p488
S''
sS'PHYS TGT FOREIGN NATION'
p489
S''
sS'HUM TGT NUMBER'
p490
S'PLURAL JESUIT PRIESTS PRIESTS'
p491
sS'PHYS TGT TYPE'
p492
S''
sS'HUM TGT NAME'
p493
S''
sS'INCIDENT TYPE'
p494
S'ATTACK'
p495
sS'PHYS TGT NUMBER'
p496
S''
sS'PERP INDIVIDUAL ID'
p497
S''
sS'INCIDENT STAGE OF EXECUTION'
p498
S'ACCOMPLISHED'
p499
sS'HUM TGT DESCRIPTION'
p500
S'JESUIT PRIESTS PRIESTS'
p501
sS'PHYS TGT EFFECT OF INCIDENT'
p502
S''
sS'HUM TGT FOREIGN NATION'
p503
S''
sS'INCIDENT DATE'
p504
S'13 DEC 89'
p505
sS'MESSAGE TEMPLATE'
p506
S'1 OPTIONAL'
p507
sS'PHYS TGT TOTAL NUMBER'
p508
S''
ssS'TST3-MUC4-0077'
p509
(dp510
S'PERP ORGANIZATION CONFIDENCE'
p511
S''
sS'HUM TGT EFFECT OF INCIDENT'
p512
S'DEATH INNOCENT PEOPLE PEOPLE'
p513
sS'INCIDENT LOCATION'
p514
S'COLOMBIA BOGOTA CITY'
p515
sS'PHYS TGT ID'
p516
S'DAS'
p517
sS'PERP INCIDENT CATEGORY'
p518
S'TERRORIST ACT'
p519
sS'PERP ORGANIZATION ID'
p520
S''
sS'HUM TGT TYPE'
p521
S'CIVILIAN INNOCENT PEOPLE PEOPLE'
p522
sS'HUM TGT TOTAL NUMBER'
p523
S''
sS'INCIDENT INSTRUMENT ID'
p524
S''
sS'INCIDENT INSTRUMENT TYPE'
p525
S''
sS'PHYS TGT FOREIGN NATION'
p526
S''
sS'HUM TGT NUMBER'
p527
S'60 INNOCENT PEOPLE PEOPLE'
p528
sS'PHYS TGT TYPE'
p529
S'ORGANIZATION OFFICE OTHER DAS'
p530
sS'HUM TGT NAME'
p531
S''
sS'INCIDENT TYPE'
p532
S'ATTACK'
p533
sS'PHYS TGT NUMBER'
p534
S'1 DAS'
p535
sS'PERP INDIVIDUAL ID'
p536
S'GONZALO RODRIGUEZ GACHA'
p537
sS'INCIDENT STAGE OF EXECUTION'
p538
S'ACCOMPLISHED'
p539
sS'HUM TGT DESCRIPTION'
p540
S'INNOCENT PEOPLE PEOPLE'
p541
sS'PHYS TGT EFFECT OF INCIDENT'
p542
S''
sS'HUM TGT FOREIGN NATION'
p543
S''
sS'INCIDENT DATE'
p544
S'15 DEC 89'
p545
sS'MESSAGE TEMPLATE'
p546
S'1'
sS'PHYS TGT TOTAL NUMBER'
p547
S''
ssS'TST3-MUC4-0070'
p548
(dp549
S'PERP ORGANIZATION CONFIDENCE'
p550
S'REPORTED AS FACT FMLN FARABUNDO MARTI NATIONAL LIBERATION FRONT'
p551
sS'HUM TGT EFFECT OF INCIDENT'
p552
S'DEATH LITTLE GIRLS GIRLS'
p553
sS'ARMED FORCES JOINT CHIEFS OF S'
p554
S'TAFF'
p555
sS'INCIDENT LOCATION'
p556
S'EL SALVADOR'
p557
sS'PHYS TGT ID'
p558
S'PRESIDENTIAL HOUSE'
p559
sS'PERP INCIDENT CATEGORY'
p560
S'TERRORIST ACT'
p561
sS'PERP ORGANIZATION ID'
p562
S'FMLN FARABUNDO MARTI NATIONAL LIBERATION FRONT'
p563
sS'HUM TGT TYPE'
p564
S'CIVILIAN LITTLE GIRLS GIRLS'
p565
sS'HUM TGT TOTAL NUMBER'
p566
S''
sS'INCIDENT INSTRUMENT ID'
p567
S''
sS'INCIDENT INSTRUMENT TYPE'
p568
S''
sS'PHYS TGT FOREIGN NATION'
p569
S''
sS'HUM TGT NUMBER'
p570
S'2 LITTLE GIRLS GIRLS'
p571
sS'PHYS TGT TYPE'
p572
S'GOVERNMENT OFFICE OR RESIDENCE PRESIDENTIAL HOUSE'
p573
sS'HUM TGT NAME'
p574
S''
sS'INCIDENT TYPE'
p575
S'ATTACK'
p576
sS'PHYS TGT NUMBER'
p577
S'1 PRESIDENTIAL HOUSE'
p578
sS'PERP INDIVIDUAL ID'
p579
S''
sS'INCIDENT STAGE OF EXECUTION'
p580
S'ACCOMPLISHED'
p581
sS'HUM TGT DESCRIPTION'
p582
S'LITTLE GIRLS GIRLS'
p583
sS'PHYS TGT EFFECT OF INCIDENT'
p584
S''
sS'HUM TGT FOREIGN NATION'
p585
S''
sS'INCIDENT DATE'
p586
S'11 NOV 89 26 NOV 89 26 NOV 89'
p587
sS'MESSAGE TEMPLATE'
p588
S'2'
sS'NATIONAL GUARD GARRISON'
p589
S''
sS'PHYS TGT TOTAL NUMBER'
p590
S''
ssS'TST3-MUC4-0071'
p591
(dp592
S'PERP ORGANIZATION CONFIDENCE'
p593
S'CLAIMED OR ADMITTED FMLN FARABUNDO MARTI NATIONAL LIBERATION FRONT'
p594
sS'HUM TGT EFFECT OF INCIDENT'
p595
S''
sS'INCIDENT LOCATION'
p596
S'EL SALVADOR SAN BENITO NEIGHBORHOOD'
p597
sS'PHYS TGT ID'
p598
S'ELECTRICITY POSTS'
p599
sS'PERP INCIDENT CATEGORY'
p600
S'TERRORIST ACT'
p601
sS'PERP ORGANIZATION ID'
p602
S'FMLN FARABUNDO MARTI NATIONAL LIBERATION FRONT'
p603
sS'HUM TGT TYPE'
p604
S''
sS'HUM TGT TOTAL NUMBER'
p605
S''
sS'INCIDENT INSTRUMENT ID'
p606
S''
sS'INCIDENT INSTRUMENT TYPE'
p607
S''
sS'PHYS TGT FOREIGN NATION'
p608
S''
sS'HUM TGT NUMBER'
p609
S''
sS'PHYS TGT TYPE'
p610
S'ENERGY ELECTRICITY POSTS'
p611
sS'HUM TGT NAME'
p612
S''
sS'INCIDENT TYPE'
p613
S'ATTACK'
p614
sS'PHYS TGT NUMBER'
p615
S'PLURAL ELECTRICITY POSTS'
p616
sS'PERP INDIVIDUAL ID'
p617
S'FMLN FARABUNDO MARTI NATIONAL LIBERATION FRONT FORCES FORCES BATTALIONS'
p618
sS'INCIDENT STAGE OF EXECUTION'
p619
S'ACCOMPLISHED THREATENED'
p620
sS'HUM TGT DESCRIPTION'
p621
S''
sS'PHYS TGT EFFECT OF INCIDENT'
p622
S''
sS'HUM TGT FOREIGN NATION'
p623
S''
sS'INCIDENT DATE'
p624
S'29 NOV 89'
p625
sS'MESSAGE TEMPLATE'
p626
S'2'
sS'PHYS TGT TOTAL NUMBER'
p627
S''
ssS'TST3-MUC4-0072'
p628
(dp629
S'PERP ORGANIZATION CONFIDENCE'
p630
S''
sS'HUM TGT EFFECT OF INCIDENT'
p631
S''
sS'INCIDENT LOCATION'
p632
S''
sS'PHYS TGT ID'
p633
S''
sS'PERP INCIDENT CATEGORY'
p634
S''
sS'PERP ORGANIZATION ID'
p635
S''
sS'HUM TGT TYPE'
p636
S''
sS'HUM TGT TOTAL NUMBER'
p637
S''
sS'INCIDENT INSTRUMENT ID'
p638
S''
sS'INCIDENT INSTRUMENT TYPE'
p639
S''
sS'PHYS TGT FOREIGN NATION'
p640
S''
sS'HUM TGT NUMBER'
p641
S''
sS'PHYS TGT TYPE'
p642
S''
sS'HUM TGT NAME'
p643
S''
sS'INCIDENT TYPE'
p644
S''
sS'PHYS TGT NUMBER'
p645
S''
sS'PERP INDIVIDUAL ID'
p646
S''
sS'INCIDENT STAGE OF EXECUTION'
p647
S''
sS'HUM TGT DESCRIPTION'
p648
S''
sS'PHYS TGT EFFECT OF INCIDENT'
p649
S''
sS'HUM TGT FOREIGN NATION'
p650
S''
sS'INCIDENT DATE'
p651
S''
sS'MESSAGE TEMPLATE'
p652
S''
sS'PHYS TGT TOTAL NUMBER'
p653
S''
ssS'TST3-MUC4-0073'
p654
(dp655
S'PERP ORGANIZATION CONFIDENCE'
p656
S''
sS'HUM TGT EFFECT OF INCIDENT'
p657
S'DEATH PEOPLE'
p658
sS'INCIDENT LOCATION'
p659
S'COLOMBIA BOGOTA CITY'
p660
sS'PHYS TGT ID'
p661
S'HEADQUARTERS OF COLOMBIAS SECRET POLICE BUILDING OF THE SECRET POLICE DAS ADMINISTRATIVE DEPARTMENT OF SECURITY'
p662
sS'PERP INCIDENT CATEGORY'
p663
S''
sS'PERP ORGANIZATION ID'
p664
S''
sS'HUM TGT TYPE'
p665
S'CIVILIAN PEOPLE'
p666
sS'HUM TGT TOTAL NUMBER'
p667
S''
sS'INCIDENT INSTRUMENT ID'
p668
S'POWERFUL BOMB HIDDEN IN A TRUCK BOMB HIDDEN IN A TRUCK'
p669
sS'INCIDENT INSTRUMENT TYPE'
p670
S'VEHICLE BOMB POWERFUL BOMB HIDDEN IN A TRUCK BOMB HIDDEN IN A TRUCK'
p671
sS'PHYS TGT FOREIGN NATION'
p672
S''
sS'HUM TGT NUMBER'
p673
S'PLURAL PEOPLE'
p674
sS'PHYS TGT TYPE'
p675
S'LAW ENFORCEMENT FACILITY HEADQUARTERS OF COLOMBIAS SECRET POLICE BUILDING OF THE SECRET POLICE DAS ADMINISTRATIVE DEPARTMENT OF SECURITY'
p676
sS'HUM TGT NAME'
p677
S''
sS'INCIDENT TYPE'
p678
S'BOMBING'
p679
sS'PHYS TGT NUMBER'
p680
S'1 PLURAL HEADQUARTERS OF COLOMBIAS SECRET POLICE BUILDING OF THE SECRET POLICE DAS ADMINISTRATIVE DEPARTMENT OF SECURITY'
p681
sS'PERP INDIVIDUAL ID'
p682
S''
sS'INCIDENT STAGE OF EXECUTION'
p683
S'ACCOMPLISHED'
p684
sS'HUM TGT DESCRIPTION'
p685
S'PEOPLE'
p686
sS'PHYS TGT EFFECT OF INCIDENT'
p687
S'SOME DAMAGE HEADQUARTERS OF COLOMBIAS SECRET POLICE BUILDING OF THE SECRET POLICE DAS ADMINISTRATIVE DEPARTMENT OF SECURITY'
p688
sS'HUM TGT FOREIGN NATION'
p689
S''
sS'INCIDENT DATE'
p690
S'06 DEC 89'
p691
sS'MESSAGE TEMPLATE'
p692
S'1'
sS'PHYS TGT TOTAL NUMBER'
p693
S''
ssS'TST3-MUC4-0069'
p694
(dp695
S'PERP ORGANIZATION CONFIDENCE'
p696
S'REPORTED AS FACT US GOVERNMENT'
p697
sS'HUM TGT EFFECT OF INCIDENT'
p698
S'DEATH SPANISH PRIESTS PRIESTS'
p699
sS'INCIDENT LOCATION'
p700
S'EL SALVADOR'
p701
sS'PHYS TGT ID'
p702
S''
sS'PERP INCIDENT CATEGORY'
p703
S'STATESPONSORED VIOLENCE'
p704
sS'PERP ORGANIZATION ID'
p705
S'US GOVERNMENT'
p706
sS'HUM TGT TYPE'
p707
S'CIVILIAN SPANISH PRIESTS PRIESTS'
p708
sS'HUM TGT TOTAL NUMBER'
p709
S''
sS'INCIDENT INSTRUMENT ID'
p710
S''
sS'INCIDENT INSTRUMENT TYPE'
p711
S''
sS'PHYS TGT FOREIGN NATION'
p712
S''
sS'HUM TGT NUMBER'
p713
S'PLURAL SPANISH PRIESTS PRIESTS'
p714
sS'PHYS TGT TYPE'
p715
S''
sS'HUM TGT NAME'
p716
S''
sS'INCIDENT TYPE'
p717
S'ATTACK'
p718
sS'PHYS TGT NUMBER'
p719
S''
sS'PERP INDIVIDUAL ID'
p720
S''
sS'INCIDENT STAGE OF EXECUTION'
p721
S'ACCOMPLISHED'
p722
sS'HUM TGT DESCRIPTION'
p723
S'SPANISH PRIESTS PRIESTS'
p724
sS'PHYS TGT EFFECT OF INCIDENT'
p725
S''
sS'HUM TGT FOREIGN NATION'
p726
S'SPAIN SPANISH PRIESTS PRIESTS'
p727
sS'INCIDENT DATE'
p728
S'22 NOV 89'
p729
sS'MESSAGE TEMPLATE'
p730
S'3 OPTIONAL'
p731
sS'PHYS TGT TOTAL NUMBER'
p732
S''
ssS'TST3-MUC4-0068'
p733
(dp734
S'PERP ORGANIZATION CONFIDENCE'
p735
S'REPORTED AS FACT FARABUNDO MARTI NATIONAL LIBERATION FRONT FMLN'
p736
sS'HUM TGT EFFECT OF INCIDENT'
p737
S'REGAINED FREEDOM JOAO BAENA SOARES'
p738
sS'INCIDENT LOCATION'
p739
S'EL SALVADOR SAN SALVADOR CITY ESCALON NEIGHBORHOOD'
p740
sS'PHYS TGT ID'
p741
S''
sS'PERP INCIDENT CATEGORY'
p742
S'TERRORIST ACT'
p743
sS'PERP ORGANIZATION ID'
p744
S'FARABUNDO MARTI NATIONAL LIBERATION FRONT FMLN'
p745
sS'HUM TGT TYPE'
p746
S'POLITICAL FIGURE DIPLOMAT JOAO BAENA SOARES'
p747
sS'HUM TGT TOTAL NUMBER'
p748
S''
sS'INCIDENT INSTRUMENT ID'
p749
S''
sS'INCIDENT INSTRUMENT TYPE'
p750
S''
sS'PHYS TGT FOREIGN NATION'
p751
S''
sS'HUM TGT NUMBER'
p752
S'1 JOAO BAENA SOARES'
p753
sS'PHYS TGT TYPE'
p754
S''
sS'HUM TGT NAME'
p755
S'JOAO BAENA SOARES'
p756
sS'INCIDENT TYPE'
p757
S'KIDNAPPING'
p758
sS'PHYS TGT NUMBER'
p759
S''
sS'PERP INDIVIDUAL ID'
p760
S'REBEL COMMANDERS'
p761
sS'INCIDENT STAGE OF EXECUTION'
p762
S'ACCOMPLISHED'
p763
sS'HUM TGT DESCRIPTION'
p764
S'OAS SECRETARY GENERAL JOAO BAENA SOARES'
p765
sS'ANOTHER ONE FROM CHILE MILI'
p766
S'TARY ADVISERS'
p767
sS'PHYS TGT EFFECT OF INCIDENT'
p768
S''
sS'HUM TGT FOREIGN NATION'
p769
S'UNITED STATES MILITARY ADVISERS'
p770
sS'INCIDENT DATE'
p771
S'21 NOV 89'
p772
sS'MESSAGE TEMPLATE'
p773
S'2 OPTIONAL'
p774
sS'PHYS TGT TOTAL NUMBER'
p775
S''
sS'ONE FROM GUATEMALA MILITARY'
p776
S'ADVISERS'
p777
ssS'TST3-MUC4-0063'
p778
(dp779
S'PERP ORGANIZATION CONFIDENCE'
p780
S''
sS'HUM TGT EFFECT OF INCIDENT'
p781
S''
sS'INCIDENT LOCATION'
p782
S''
sS'PHYS TGT ID'
p783
S''
sS'PERP INCIDENT CATEGORY'
p784
S''
sS'PERP ORGANIZATION ID'
p785
S''
sS'HUM TGT TYPE'
p786
S''
sS'HUM TGT TOTAL NUMBER'
p787
S''
sS'INCIDENT INSTRUMENT ID'
p788
S''
sS'INCIDENT INSTRUMENT TYPE'
p789
S''
sS'PHYS TGT FOREIGN NATION'
p790
S''
sS'HUM TGT NUMBER'
p791
S''
sS'PHYS TGT TYPE'
p792
S''
sS'HUM TGT NAME'
p793
S''
sS'INCIDENT TYPE'
p794
S''
sS'PHYS TGT NUMBER'
p795
S''
sS'PERP INDIVIDUAL ID'
p796
S''
sS'INCIDENT STAGE OF EXECUTION'
p797
S''
sS'HUM TGT DESCRIPTION'
p798
S''
sS'PHYS TGT EFFECT OF INCIDENT'
p799
S''
sS'HUM TGT FOREIGN NATION'
p800
S''
sS'INCIDENT DATE'
p801
S''
sS'MESSAGE TEMPLATE'
p802
S''
sS'PHYS TGT TOTAL NUMBER'
p803
S''
ssS'TST3-MUC4-0062'
p804
(dp805
S'PERP ORGANIZATION CONFIDENCE'
p806
S''
sS'HUM TGT EFFECT OF INCIDENT'
p807
S''
sS'INCIDENT LOCATION'
p808
S''
sS'PHYS TGT ID'
p809
S''
sS'PERP INCIDENT CATEGORY'
p810
S''
sS'PERP ORGANIZATION ID'
p811
S''
sS'HUM TGT TYPE'
p812
S''
sS'HUM TGT TOTAL NUMBER'
p813
S''
sS'INCIDENT INSTRUMENT ID'
p814
S''
sS'INCIDENT INSTRUMENT TYPE'
p815
S''
sS'PHYS TGT FOREIGN NATION'
p816
S''
sS'HUM TGT NUMBER'
p817
S''
sS'PHYS TGT TYPE'
p818
S''
sS'HUM TGT NAME'
p819
S''
sS'INCIDENT TYPE'
p820
S''
sS'PHYS TGT NUMBER'
p821
S''
sS'PERP INDIVIDUAL ID'
p822
S''
sS'INCIDENT STAGE OF EXECUTION'
p823
S''
sS'HUM TGT DESCRIPTION'
p824
S''
sS'PHYS TGT EFFECT OF INCIDENT'
p825
S''
sS'HUM TGT FOREIGN NATION'
p826
S''
sS'INCIDENT DATE'
p827
S''
sS'MESSAGE TEMPLATE'
p828
S''
sS'PHYS TGT TOTAL NUMBER'
p829
S''
ssS'TST3-MUC4-0061'
p830
(dp831
S'PERP ORGANIZATION CONFIDENCE'
p832
S''
sS'HUM TGT EFFECT OF INCIDENT'
p833
S'DEATH PEOPLE'
p834
sS'INCIDENT LOCATION'
p835
S'EL SALVADOR SAN SALVADOR CITY'
p836
sS'PHYS TGT ID'
p837
S'LEFTWING TRADE UNIONS HEADQUARTERS TRADE UNIONS HEADQUARTERS'
p838
sS'PERP INCIDENT CATEGORY'
p839
S'STATESPONSORED VIOLENCE'
p840
sS'PERP ORGANIZATION ID'
p841
S''
sS'HUM TGT TYPE'
p842
S'CIVILIAN PEOPLE'
p843
sS'HUM TGT TOTAL NUMBER'
p844
S''
sS'INCIDENT INSTRUMENT ID'
p845
S'ARTILLERY'
p846
sS'INCIDENT INSTRUMENT TYPE'
p847
S'GUN PROJECTILE EXPLOSIVE ARTILLERY'
p848
sS'PHYS TGT FOREIGN NATION'
p849
S''
sS'HUM TGT NUMBER'
p850
S'10 PEOPLE'
p851
sS'PHYS TGT TYPE'
p852
S'ORGANIZATION OFFICE LEFTWING TRADE UNIONS HEADQUARTERS TRADE UNIONS HEADQUARTERS'
p853
sS'HUM TGT NAME'
p854
S''
sS'INCIDENT TYPE'
p855
S'ATTACK BOMBING'
p856
sS'PHYS TGT NUMBER'
p857
S'1 LEFTWING TRADE UNIONS HEADQUARTERS TRADE UNIONS HEADQUARTERS'
p858
sS'PERP INDIVIDUAL ID'
p859
S''
sS'INCIDENT STAGE OF EXECUTION'
p860
S'ACCOMPLISHED'
p861
sS'HUM TGT DESCRIPTION'
p862
S'PEOPLE'
p863
sS'PHYS TGT EFFECT OF INCIDENT'
p864
S''
sS'HUM TGT FOREIGN NATION'
p865
S''
sS'INCIDENT DATE'
p866
S'14 NOV 89'
p867
sS'MESSAGE TEMPLATE'
p868
S'2'
sS'PHYS TGT TOTAL NUMBER'
p869
S''
ssS'TST3-MUC4-0060'
p870
(dp871
S'PERP ORGANIZATION CONFIDENCE'
p872
S'REPORTED AS FACT ALFREDO CRISTIANIS ADMINISTRATION CRISTIANIS GOVERNMENT GOVERNMENT'
p873
sS'HUM TGT EFFECT OF INCIDENT'
p874
S'DEATH IGNACIO ELLACURIA'
p875
sS'SEGUNDO MONTES'
p876
S''
sS'INCIDENT LOCATION'
p877
S'EL SALVADOR SAN SALVADOR CITY'
p878
sS'PHYS TGT ID'
p879
S''
sS'PERP INCIDENT CATEGORY'
p880
S'STATESPONSORED VIOLENCE'
p881
sS'ELVA RAMOS'
p882
S''
sS'PERP ORGANIZATION ID'
p883
S'ALFREDO CRISTIANIS ADMINISTRATION CRISTIANIS GOVERNMENT GOVERNMENT'
p884
sS'JUAN RAMON MORENO'
p885
S''
sS'HUM TGT TYPE'
p886
S'CIVILIAN IGNACIO ELLACURIA'
p887
sS'HUM TGT TOTAL NUMBER'
p888
S''
sS'INCIDENT INSTRUMENT ID'
p889
S''
sS'INCIDENT INSTRUMENT TYPE'
p890
S''
sS'PHYS TGT FOREIGN NATION'
p891
S''
sS'HUM TGT NUMBER'
p892
S'1 IGNACIO ELLACURIA'
p893
sS'PHYS TGT TYPE'
p894
S''
sS'HUM TGT NAME'
p895
S'IGNACIO ELLACURIA'
p896
sS'INCIDENT TYPE'
p897
S'ATTACK'
p898
sS'PHYS TGT NUMBER'
p899
S''
sS'IGNACIO MARTIN BARO'
p900
S''
sS'PERP INDIVIDUAL ID'
p901
S'SALVADORAN ARMED FORCES SOLDIERS ARMED FORCES SOLDIERS SOLDIERS HEAVILY ARMED SOLDIERS LARGE NUMBER OF HEAVILY ARMED SOLDIERS'
p902
sS'INCIDENT STAGE OF EXECUTION'
p903
S'ACCOMPLISHED'
p904
sS'JULIA RAMOS'
p905
S''
sS'HUM TGT DESCRIPTION'
p906
S'PRIEST DR PRIEST AND DR UCA DIRECTOR IGNACIO ELLACURIA'
p907
sS'AMANDO LOPEZ'
p908
S''
sS'PHYS TGT EFFECT OF INCIDENT'
p909
S''
sS'HUM TGT FOREIGN NATION'
p910
S'SPAIN IGNACIO ELLACURIA'
p911
sS'INCIDENT DATE'
p912
S'16 NOV 89'
p913
sS'MESSAGE TEMPLATE'
p914
S'1'
sS'JOAQUIN LOPEZ Y LOPEZ'
p915
S''
sS'PHYS TGT TOTAL NUMBER'
p916
S''
ssS'TST3-MUC4-0067'
p917
(dp918
S'PERP ORGANIZATION CONFIDENCE'
p919
S'REPORTED AS FACT TANDONA GROUP LA TANDONA'
p920
sS'HUM TGT EFFECT OF INCIDENT'
p921
S''
sS'INCIDENT LOCATION'
p922
S'EL SALVADOR ZACAMIL NEIGHBORHOOD EL SALVADOR SAN SALVADOR CITY ZACAMIL NEIGHBORHOOD'
p923
sS'PHYS TGT ID'
p924
S'HOMES'
p925
sS'PERP INCIDENT CATEGORY'
p926
S'STATESPONSORED VIOLENCE'
p927
sS'PERP ORGANIZATION ID'
p928
S'TANDONA GROUP LA TANDONA'
p929
sS'HUM TGT TYPE'
p930
S''
sS'HUM TGT TOTAL NUMBER'
p931
S''
sS'INCIDENT INSTRUMENT ID'
p932
S''
sS'INCIDENT INSTRUMENT TYPE'
p933
S'BOMB'
p934
sS'PHYS TGT FOREIGN NATION'
p935
S''
sS'HUM TGT NUMBER'
p936
S''
sS'PHYS TGT TYPE'
p937
S'CIVILIAN RESIDENCE HOMES'
p938
sS'HUM TGT NAME'
p939
S''
sS'INCIDENT TYPE'
p940
S'BOMBING'
p941
sS'PHYS TGT NUMBER'
p942
S'500 HOMES'
p943
sS'PERP INDIVIDUAL ID'
p944
S'HIGH COMMAND'
p945
sS'INCIDENT STAGE OF EXECUTION'
p946
S'ACCOMPLISHED'
p947
sS'HUM TGT DESCRIPTION'
p948
S''
sS'PHYS TGT EFFECT OF INCIDENT'
p949
S'DESTROYED HOMES'
p950
sS'HUM TGT FOREIGN NATION'
p951
S''
sS'INCIDENT DATE'
p952
S''
sS'MESSAGE TEMPLATE'
p953
S'1 OPTIONAL'
p954
sS'PHYS TGT TOTAL NUMBER'
p955
S''
ssS'TST3-MUC4-0066'
p956
(dp957
S'PERP ORGANIZATION CONFIDENCE'
p958
S''
sS'HUM TGT EFFECT OF INCIDENT'
p959
S'DEATH JESUIT PRIESTS PRIESTS'
p960
sS'INCIDENT LOCATION'
p961
S'EL SALVADOR CENTRAL AMERICAN UNIVERSITY UNIVERSITY'
p962
sS'PHYS TGT ID'
p963
S''
sS'PERP INCIDENT CATEGORY'
p964
S'TERRORIST ACT'
p965
sS'PERP ORGANIZATION ID'
p966
S''
sS'HUM TGT TYPE'
p967
S'CIVILIAN JESUIT PRIESTS PRIESTS'
p968
sS'HUM TGT TOTAL NUMBER'
p969
S''
sS'INCIDENT INSTRUMENT ID'
p970
S''
sS'INCIDENT INSTRUMENT TYPE'
p971
S''
sS'PHYS TGT FOREIGN NATION'
p972
S''
sS'HUM TGT NUMBER'
p973
S'6 JESUIT PRIESTS PRIESTS'
p974
sS'PHYS TGT TYPE'
p975
S''
sS'HUM TGT NAME'
p976
S''
sS'INCIDENT TYPE'
p977
S'ATTACK'
p978
sS'PHYS TGT NUMBER'
p979
S''
sS'PERP INDIVIDUAL ID'
p980
S'EXTREME RIGHT DEATH SQUADS DEATH SQUADS'
p981
sS'INCIDENT STAGE OF EXECUTION'
p982
S'ACCOMPLISHED'
p983
sS'HUM TGT DESCRIPTION'
p984
S'JESUIT PRIESTS PRIESTS'
p985
sS'PHYS TGT EFFECT OF INCIDENT'
p986
S''
sS'HUM TGT FOREIGN NATION'
p987
S''
sS'INCIDENT DATE'
p988
S'17 NOV 89 11 NOV 89 17 NOV 89'
p989
sS'MESSAGE TEMPLATE'
p990
S'1'
sS'PHYS TGT TOTAL NUMBER'
p991
S''
ssS'TST3-MUC4-0065'
p992
(dp993
S'PERP ORGANIZATION CONFIDENCE'
p994
S''
sS'HUM TGT EFFECT OF INCIDENT'
p995
S''
sS'INCIDENT LOCATION'
p996
S'EL SALVADOR'
p997
sS'PHYS TGT ID'
p998
S'UNION HEADQUARTERS'
p999
sS'PERP INCIDENT CATEGORY'
p1000
S''
sS'PERP ORGANIZATION ID'
p1001
S''
sS'HUM TGT TYPE'
p1002
S'CIVILIAN LEADERS'
p1003
sS'HUM TGT TOTAL NUMBER'
p1004
S''
sS'INCIDENT INSTRUMENT ID'
p1005
S''
sS'INCIDENT INSTRUMENT TYPE'
p1006
S''
sS'PHYS TGT FOREIGN NATION'
p1007
S''
sS'HUM TGT NUMBER'
p1008
S'PLURAL LEADERS'
p1009
sS'PHYS TGT TYPE'
p1010
S'ORGANIZATION OFFICE UNION HEADQUARTERS'
p1011
sS'HUM TGT NAME'
p1012
S''
sS'INCIDENT TYPE'
p1013
S'ATTACK'
p1014
sS'PHYS TGT NUMBER'
p1015
S'1 PLURAL UNION HEADQUARTERS'
p1016
sS'PERP INDIVIDUAL ID'
p1017
S''
sS'INCIDENT STAGE OF EXECUTION'
p1018
S'ACCOMPLISHED'
p1019
sS'HUM TGT DESCRIPTION'
p1020
S'LEADERS'
p1021
sS'PHYS TGT EFFECT OF INCIDENT'
p1022
S''
sS'HUM TGT FOREIGN NATION'
p1023
S''
sS'INCIDENT DATE'
p1024
S'19 NOV 89'
p1025
sS'MESSAGE TEMPLATE'
p1026
S'2 OPTIONAL'
p1027
sS'PHYS TGT TOTAL NUMBER'
p1028
S''
ssS'TST3-MUC4-0064'
p1029
(dp1030
S'PERP ORGANIZATION CONFIDENCE'
p1031
S''
sS'HUM TGT EFFECT OF INCIDENT'
p1032
S''
sS'INCIDENT LOCATION'
p1033
S''
sS'PHYS TGT ID'
p1034
S''
sS'PERP INCIDENT CATEGORY'
p1035
S''
sS'PERP ORGANIZATION ID'
p1036
S''
sS'HUM TGT TYPE'
p1037
S''
sS'HUM TGT TOTAL NUMBER'
p1038
S''
sS'INCIDENT INSTRUMENT ID'
p1039
S''
sS'INCIDENT INSTRUMENT TYPE'
p1040
S''
sS'PHYS TGT FOREIGN NATION'
p1041
S''
sS'HUM TGT NUMBER'
p1042
S''
sS'PHYS TGT TYPE'
p1043
S''
sS'HUM TGT NAME'
p1044
S''
sS'INCIDENT TYPE'
p1045
S''
sS'PHYS TGT NUMBER'
p1046
S''
sS'PERP INDIVIDUAL ID'
p1047
S''
sS'INCIDENT STAGE OF EXECUTION'
p1048
S''
sS'HUM TGT DESCRIPTION'
p1049
S''
sS'PHYS TGT EFFECT OF INCIDENT'
p1050
S''
sS'HUM TGT FOREIGN NATION'
p1051
S''
sS'INCIDENT DATE'
p1052
S''
sS'MESSAGE TEMPLATE'
p1053
S''
sS'PHYS TGT TOTAL NUMBER'
p1054
S''
ssS'TST3-MUC4-0096'
p1055
(dp1056
S'PERP ORGANIZATION CONFIDENCE'
p1057
S''
sS'HUM TGT EFFECT OF INCIDENT'
p1058
S'DEATH CARLOS PIZARRO LEONGOMEZ'
p1059
sS'INCIDENT LOCATION'
p1060
S'COLOMBIA'
p1061
sS'PHYS TGT ID'
p1062
S''
sS'PERP INCIDENT CATEGORY'
p1063
S''
sS'PERP ORGANIZATION ID'
p1064
S''
sS'HUM TGT TYPE'
p1065
S'POLITICAL FIGURE CARLOS PIZARRO LEONGOMEZ'
p1066
sS'HUM TGT TOTAL NUMBER'
p1067
S''
sS'INCIDENT INSTRUMENT ID'
p1068
S''
sS'INCIDENT INSTRUMENT TYPE'
p1069
S''
sS'PHYS TGT FOREIGN NATION'
p1070
S''
sS'HUM TGT NUMBER'
p1071
S'1 CARLOS PIZARRO LEONGOMEZ'
p1072
sS'PHYS TGT TYPE'
p1073
S''
sS'HUM TGT NAME'
p1074
S'CARLOS PIZARRO LEONGOMEZ'
p1075
sS'INCIDENT TYPE'
p1076
S'ATTACK'
p1077
sS'PHYS TGT NUMBER'
p1078
S''
sS'PERP INDIVIDUAL ID'
p1079
S''
sS'INCIDENT STAGE OF EXECUTION'
p1080
S'ACCOMPLISHED'
p1081
sS'HUM TGT DESCRIPTION'
p1082
S'PRESIDENTIAL CANDIDATE MR CARLOS PIZARRO LEONGOMEZ'
p1083
sS'PHYS TGT EFFECT OF INCIDENT'
p1084
S''
sS'HUM TGT FOREIGN NATION'
p1085
S''
sS'INCIDENT DATE'
p1086
S'26 APR 90'
p1087
sS'MESSAGE TEMPLATE'
p1088
S'1'
sS'PHYS TGT TOTAL NUMBER'
p1089
S''
ssS'TST3-MUC4-0097'
p1090
(dp1091
S'PERP ORGANIZATION CONFIDENCE'
p1092
S''
sS'HUM TGT EFFECT OF INCIDENT'
p1093
S''
sS'INCIDENT LOCATION'
p1094
S'EL SALVADOR'
p1095
sS'PHYS TGT ID'
p1096
S'ELECTRICAL SYSTEMS'
p1097
sS'PERP INCIDENT CATEGORY'
p1098
S''
sS'PERP ORGANIZATION ID'
p1099
S''
sS'HUM TGT TYPE'
p1100
S''
sS'HUM TGT TOTAL NUMBER'
p1101
S''
sS'INCIDENT INSTRUMENT ID'
p1102
S''
sS'INCIDENT INSTRUMENT TYPE'
p1103
S''
sS'PHYS TGT FOREIGN NATION'
p1104
S''
sS'HUM TGT NUMBER'
p1105
S''
sS'PHYS TGT TYPE'
p1106
S'ENERGY ELECTRICAL SYSTEMS'
p1107
sS'HUM TGT NAME'
p1108
S''
sS'INCIDENT TYPE'
p1109
S'ATTACK'
p1110
sS'PHYS TGT NUMBER'
p1111
S'PLURAL ELECTRICAL SYSTEMS'
p1112
sS'PERP INDIVIDUAL ID'
p1113
S''
sS'INCIDENT STAGE OF EXECUTION'
p1114
S'ACCOMPLISHED'
p1115
sS'HUM TGT DESCRIPTION'
p1116
S''
sS'PHYS TGT EFFECT OF INCIDENT'
p1117
S'SOME DAMAGE ELECTRICAL SYSTEMS'
p1118
sS'HUM TGT FOREIGN NATION'
p1119
S''
sS'INCIDENT DATE'
p1120
S'01 MAY 90 03 MAY 90'
p1121
sS'MESSAGE TEMPLATE'
p1122
S'2 OPTIONAL'
p1123
sS'PHYS TGT TOTAL NUMBER'
p1124
S''
ssS'TST3-MUC4-0094'
p1125
(dp1126
S'PERP ORGANIZATION CONFIDENCE'
p1127
S'CLAIMED OR ADMITTED FMLNFDR FARABUNDO MARTI NATIONAL LIBERATION FRONTREVOLUTIONARY DEMOCRATIC FRONT'
p1128
sS'HUM TGT EFFECT OF INCIDENT'
p1129
S'INJURY OTTO MILLA'
p1130
sS'INCIDENT LOCATION'
p1131
S'EL SALVADOR EL SALVADOR SAN SALVADOR CITY'
p1132
sS'PHYS TGT ID'
p1133
S''
sS'PERP INCIDENT CATEGORY'
p1134
S'TERRORIST ACT'
p1135
sS'PERP ORGANIZATION ID'
p1136
S'FMLNFDR FARABUNDO MARTI NATIONAL LIBERATION FRONTREVOLUTIONARY DEMOCRATIC FRONT'
p1137
sS'HUM TGT TYPE'
p1138
S'CIVILIAN OTTO MILLA'
p1139
sS'HUM TGT TOTAL NUMBER'
p1140
S''
sS'INCIDENT INSTRUMENT ID'
p1141
S''
sS'INCIDENT INSTRUMENT TYPE'
p1142
S''
sS'PHYS TGT FOREIGN NATION'
p1143
S''
sS'HUM TGT NUMBER'
p1144
S'1 OTTO MILLA'
p1145
sS'PHYS TGT TYPE'
p1146
S''
sS'HUM TGT NAME'
p1147
S'OTTO MILLA'
p1148
sS'INCIDENT TYPE'
p1149
S'ATTACK'
p1150
sS'PHYS TGT NUMBER'
p1151
S''
sS'PERP INDIVIDUAL ID'
p1152
S'URBAN COMMANDOS TERRORIST SQUADS'
p1153
sS'INCIDENT STAGE OF EXECUTION'
p1154
S'ACCOMPLISHED'
p1155
sS'HUM TGT DESCRIPTION'
p1156
S'GENERAL RAFAEL HUMBERTO LARIOSS SONINLAW PILOT OTTO MILLA'
p1157
sS'PHYS TGT EFFECT OF INCIDENT'
p1158
S''
sS'HUM TGT FOREIGN NATION'
p1159
S''
sS'INCIDENT DATE'
p1160
S'06 APR 90'
p1161
sS'MESSAGE TEMPLATE'
p1162
S'6 OPTIONAL'
p1163
sS'PHYS TGT TOTAL NUMBER'
p1164
S''
ssS'TST3-MUC4-0095'
p1165
(dp1166
S'PERP ORGANIZATION CONFIDENCE'
p1167
S''
sS'HUM TGT EFFECT OF INCIDENT'
p1168
S''
sS'INCIDENT LOCATION'
p1169
S''
sS'PHYS TGT ID'
p1170
S''
sS'PERP INCIDENT CATEGORY'
p1171
S''
sS'PERP ORGANIZATION ID'
p1172
S''
sS'HUM TGT TYPE'
p1173
S''
sS'HUM TGT TOTAL NUMBER'
p1174
S''
sS'INCIDENT INSTRUMENT ID'
p1175
S''
sS'INCIDENT INSTRUMENT TYPE'
p1176
S''
sS'PHYS TGT FOREIGN NATION'
p1177
S''
sS'HUM TGT NUMBER'
p1178
S''
sS'PHYS TGT TYPE'
p1179
S''
sS'HUM TGT NAME'
p1180
S''
sS'INCIDENT TYPE'
p1181
S''
sS'PHYS TGT NUMBER'
p1182
S''
sS'PERP INDIVIDUAL ID'
p1183
S''
sS'INCIDENT STAGE OF EXECUTION'
p1184
S''
sS'HUM TGT DESCRIPTION'
p1185
S''
sS'PHYS TGT EFFECT OF INCIDENT'
p1186
S''
sS'HUM TGT FOREIGN NATION'
p1187
S''
sS'INCIDENT DATE'
p1188
S''
sS'MESSAGE TEMPLATE'
p1189
S''
sS'PHYS TGT TOTAL NUMBER'
p1190
S''
ssS'TST3-MUC4-0092'
p1191
(dp1192
S'PERP ORGANIZATION CONFIDENCE'
p1193
S''
sS'HUM TGT EFFECT OF INCIDENT'
p1194
S''
sS'INCIDENT LOCATION'
p1195
S''
sS'PHYS TGT ID'
p1196
S''
sS'PERP INCIDENT CATEGORY'
p1197
S''
sS'PERP ORGANIZATION ID'
p1198
S''
sS'HUM TGT TYPE'
p1199
S''
sS'HUM TGT TOTAL NUMBER'
p1200
S''
sS'INCIDENT INSTRUMENT ID'
p1201
S''
sS'INCIDENT INSTRUMENT TYPE'
p1202
S''
sS'PHYS TGT FOREIGN NATION'
p1203
S''
sS'HUM TGT NUMBER'
p1204
S''
sS'PHYS TGT TYPE'
p1205
S''
sS'HUM TGT NAME'
p1206
S''
sS'INCIDENT TYPE'
p1207
S''
sS'PHYS TGT NUMBER'
p1208
S''
sS'PERP INDIVIDUAL ID'
p1209
S''
sS'INCIDENT STAGE OF EXECUTION'
p1210
S''
sS'HUM TGT DESCRIPTION'
p1211
S''
sS'PHYS TGT EFFECT OF INCIDENT'
p1212
S''
sS'HUM TGT FOREIGN NATION'
p1213
S''
sS'INCIDENT DATE'
p1214
S''
sS'MESSAGE TEMPLATE'
p1215
S''
sS'PHYS TGT TOTAL NUMBER'
p1216
S''
ssS'TST3-MUC4-0093'
p1217
(dp1218
S'PERP ORGANIZATION CONFIDENCE'
p1219
S''
sS'HUM TGT EFFECT OF INCIDENT'
p1220
S'DEATH BERNARDO JARAMILLO'
p1221
sS'INCIDENT LOCATION'
p1222
S'COLOMBIA'
p1223
sS'PHYS TGT ID'
p1224
S''
sS'PERP INCIDENT CATEGORY'
p1225
S''
sS'PERP ORGANIZATION ID'
p1226
S''
sS'HUM TGT TYPE'
p1227
S'POLITICAL FIGURE BERNARDO JARAMILLO'
p1228
sS'HUM TGT TOTAL NUMBER'
p1229
S''
sS'INCIDENT INSTRUMENT ID'
p1230
S''
sS'INCIDENT INSTRUMENT TYPE'
p1231
S''
sS'PHYS TGT FOREIGN NATION'
p1232
S''
sS'HUM TGT NUMBER'
p1233
S'1 BERNARDO JARAMILLO'
p1234
sS'PHYS TGT TYPE'
p1235
S''
sS'HUM TGT NAME'
p1236
S'BERNARDO JARAMILLO'
p1237
sS'INCIDENT TYPE'
p1238
S'ATTACK'
p1239
sS'PHYS TGT NUMBER'
p1240
S''
sS'PERP INDIVIDUAL ID'
p1241
S''
sS'INCIDENT STAGE OF EXECUTION'
p1242
S'ACCOMPLISHED'
p1243
sS'HUM TGT DESCRIPTION'
p1244
S'PRESIDENTIAL CANDIDATE DR BERNARDO JARAMILLO'
p1245
sS'PHYS TGT EFFECT OF INCIDENT'
p1246
S''
sS'HUM TGT FOREIGN NATION'
p1247
S''
sS'INCIDENT DATE'
p1248
S'23 MAR 90 09 MAR 90 23 MAR 90'
p1249
sS'MESSAGE TEMPLATE'
p1250
S'1'
sS'PHYS TGT TOTAL NUMBER'
p1251
S''
ssS'TST3-MUC4-0090'
p1252
(dp1253
S'PERP ORGANIZATION CONFIDENCE'
p1254
S''
sS'HUM TGT EFFECT OF INCIDENT'
p1255
S''
sS'INCIDENT LOCATION'
p1256
S''
sS'PHYS TGT ID'
p1257
S''
sS'PERP INCIDENT CATEGORY'
p1258
S''
sS'PERP ORGANIZATION ID'
p1259
S''
sS'HUM TGT TYPE'
p1260
S''
sS'HUM TGT TOTAL NUMBER'
p1261
S''
sS'INCIDENT INSTRUMENT ID'
p1262
S''
sS'INCIDENT INSTRUMENT TYPE'
p1263
S''
sS'PHYS TGT FOREIGN NATION'
p1264
S''
sS'HUM TGT NUMBER'
p1265
S''
sS'PHYS TGT TYPE'
p1266
S''
sS'HUM TGT NAME'
p1267
S''
sS'INCIDENT TYPE'
p1268
S''
sS'PHYS TGT NUMBER'
p1269
S''
sS'PERP INDIVIDUAL ID'
p1270
S''
sS'INCIDENT STAGE OF EXECUTION'
p1271
S''
sS'HUM TGT DESCRIPTION'
p1272
S''
sS'PHYS TGT EFFECT OF INCIDENT'
p1273
S''
sS'HUM TGT FOREIGN NATION'
p1274
S''
sS'INCIDENT DATE'
p1275
S''
sS'MESSAGE TEMPLATE'
p1276
S''
sS'PHYS TGT TOTAL NUMBER'
p1277
S''
ssS'TST3-MUC4-0091'
p1278
(dp1279
S'PERP ORGANIZATION CONFIDENCE'
p1280
S''
sS'HUM TGT EFFECT OF INCIDENT'
p1281
S'INJURY GUSTAVO LEIGH GUZMAN'
p1282
sS'INCIDENT LOCATION'
p1283
S'CHILE SANTIAGO CITY CHILE'
p1284
sS'PHYS TGT ID'
p1285
S''
sS'PERP INCIDENT CATEGORY'
p1286
S''
sS'PERP ORGANIZATION ID'
p1287
S''
sS'HUM TGT TYPE'
p1288
S'FORMER ACTIVE MILITARY GUSTAVO LEIGH GUZMAN'
p1289
sS'HUM TGT TOTAL NUMBER'
p1290
S''
sS'INCIDENT INSTRUMENT ID'
p1291
S'9 MM SEMIAUTOMATIC PISTOLS SEMIAUTOMATIC PISTOLS PISTOLS'
p1292
sS'INCIDENT INSTRUMENT TYPE'
p1293
S'HANDGUN 9 MM SEMIAUTOMATIC PISTOLS SEMIAUTOMATIC PISTOLS PISTOLS'
p1294
sS'PHYS TGT FOREIGN NATION'
p1295
S''
sS'HUM TGT NUMBER'
p1296
S'1 GUSTAVO LEIGH GUZMAN'
p1297
sS'PHYS TGT TYPE'
p1298
S''
sS'HUM TGT NAME'
p1299
S'GUSTAVO LEIGH GUZMAN'
p1300
sS'ENRIQUE RUIZ'
p1301
S''
sS'INCIDENT TYPE'
p1302
S'ATTACK'
p1303
sS'PHYS TGT NUMBER'
p1304
S''
sS'PERP INDIVIDUAL ID'
p1305
S'TWO 23 TO 25YEAROLD INDIVIDUALS TWO INDIVIDUALS INDIVIDUALS'
p1306
sS'INCIDENT STAGE OF EXECUTION'
p1307
S'ACCOMPLISHED'
p1308
sS'HUM TGT DESCRIPTION'
p1309
S'FORMER MILITARY REGIME GOVERNMENT JUNTA MEMBER FORMER COMMANDER IN CHIEF OF THE AIR FORCE FORMER COMMANDER IN CHIEF OF THE AIR FORCE AND MEMBER OF THE MILITARY REGIMES GOVERNMENT JUNTA GENERAL GEN GEN GUSTAVO LEIGH GUZMAN'
p1310
sS'PHYS TGT EFFECT OF INCIDENT'
p1311
S''
sS'HUM TGT FOREIGN NATION'
p1312
S''
sS'INCIDENT DATE'
p1313
S'21 MAR 90'
p1314
sS'MESSAGE TEMPLATE'
p1315
S'1'
sS'PHYS TGT TOTAL NUMBER'
p1316
S''
ssS'TST3-MUC4-0098'
p1317
(dp1318
S'PERP ORGANIZATION CONFIDENCE'
p1319
S''
sS'HUM TGT EFFECT OF INCIDENT'
p1320
S'DEATH JESUITS'
p1321
sS'INCIDENT LOCATION'
p1322
S'EL SALVADOR'
p1323
sS'PHYS TGT ID'
p1324
S''
sS'PERP INCIDENT CATEGORY'
p1325
S'STATESPONSORED VIOLENCE'
p1326
sS'PERP ORGANIZATION ID'
p1327
S''
sS'HUM TGT TYPE'
p1328
S'CIVILIAN JESUITS'
p1329
sS'HUM TGT TOTAL NUMBER'
p1330
S''
sS'INCIDENT INSTRUMENT ID'
p1331
S''
sS'INCIDENT INSTRUMENT TYPE'
p1332
S''
sS'PHYS TGT FOREIGN NATION'
p1333
S''
sS'HUM TGT NUMBER'
p1334
S'PLURAL JESUITS'
p1335
sS'PHYS TGT TYPE'
p1336
S''
sS'HUM TGT NAME'
p1337
S''
sS'INCIDENT TYPE'
p1338
S'ATTACK'
p1339
sS'PHYS TGT NUMBER'
p1340
S''
sS'PERP INDIVIDUAL ID'
p1341
S'GROUP OF SOLDIERS SOLDIERS'
p1342
sS'INCIDENT STAGE OF EXECUTION'
p1343
S'ACCOMPLISHED'
p1344
sS'HUM TGT DESCRIPTION'
p1345
S'JESUITS'
p1346
sS'PHYS TGT EFFECT OF INCIDENT'
p1347
S''
sS'HUM TGT FOREIGN NATION'
p1348
S''
sS'INCIDENT DATE'
p1349
S'07 MAY 90'
p1350
sS'MESSAGE TEMPLATE'
p1351
S'1'
sS'PHYS TGT TOTAL NUMBER'
p1352
S''
ssS'TST3-MUC4-0099'
p1353
(dp1354
S'PERP ORGANIZATION CONFIDENCE'
p1355
S'REPORTED AS FACT FARABUNDO MARTI NATIONAL LIBERATION FRONT FMLN'
p1356
sS'HUM TGT EFFECT OF INCIDENT'
p1357
S'NO INJURY OR DEATH NO DEATH'
p1358
sS'INCIDENT LOCATION'
p1359
S'EL SALVADOR SANTA ANA DEPARTMENT NATIVIDAD CANTON'
p1360
sS'PHYS TGT ID'
p1361
S'CEL SUBSTATION'
p1362
sS'PERP INCIDENT CATEGORY'
p1363
S'TERRORIST ACT'
p1364
sS'PERP ORGANIZATION ID'
p1365
S'FARABUNDO MARTI NATIONAL LIBERATION FRONT FMLN'
p1366
sS'HUM TGT TYPE'
p1367
S''
sS'HUM TGT TOTAL NUMBER'
p1368
S''
sS'INCIDENT INSTRUMENT ID'
p1369
S'MORTARS'
p1370
sS'INCIDENT INSTRUMENT TYPE'
p1371
S'MORTAR MORTARS'
p1372
sS'PHYS TGT FOREIGN NATION'
p1373
S''
sS'HUM TGT NUMBER'
p1374
S''
sS'PHYS TGT TYPE'
p1375
S'ENERGY CEL SUBSTATION'
p1376
sS'HUM TGT NAME'
p1377
S''
sS'INCIDENT TYPE'
p1378
S'ATTACK'
p1379
sS'PHYS TGT NUMBER'
p1380
S'1 CEL SUBSTATION'
p1381
sS'PERP INDIVIDUAL ID'
p1382
S'GUERRILLAS'
p1383
sS'INCIDENT STAGE OF EXECUTION'
p1384
S'ACCOMPLISHED'
p1385
sS'HUM TGT DESCRIPTION'
p1386
S''
sS'PHYS TGT EFFECT OF INCIDENT'
p1387
S'SOME DAMAGE CEL SUBSTATION'
p1388
sS'HUM TGT FOREIGN NATION'
p1389
S''
sS'INCIDENT DATE'
p1390
S'01 JUN 90'
p1391
sS'MESSAGE TEMPLATE'
p1392
S'2'
sS'PHYS TGT TOTAL NUMBER'
p1393
S''
ssS'TST3-MUC4-0018'
p1394
(dp1395
S'PERP ORGANIZATION CONFIDENCE'
p1396
S'REPORTED AS FACT FMLN'
p1397
sS'HUM TGT EFFECT OF INCIDENT'
p1398
S''
sS'INCIDENT LOCATION'
p1399
S'EL SALVADOR'
p1400
sS'PHYS TGT ID'
p1401
S'TRANSPORTATION'
p1402
sS'PERP INCIDENT CATEGORY'
p1403
S'TERRORIST ACT'
p1404
sS'PERP ORGANIZATION ID'
p1405
S'FMLN'
p1406
sS'HUM TGT TYPE'
p1407
S''
sS'HUM TGT TOTAL NUMBER'
p1408
S''
sS'INCIDENT INSTRUMENT ID'
p1409
S''
sS'INCIDENT INSTRUMENT TYPE'
p1410
S''
sS'PHYS TGT FOREIGN NATION'
p1411
S''
sS'HUM TGT NUMBER'
p1412
S''
sS'PHYS TGT TYPE'
p1413
S'TRANSPORT VEHICLE TRANSPORTATION FACILITY TRANSPORTATION'
p1414
sS'HUM TGT NAME'
p1415
S''
sS'INCIDENT TYPE'
p1416
S'FORCED WORK STOPPAGE'
p1417
sS'PHYS TGT NUMBER'
p1418
S'1 TRANSPORTATION'
p1419
sS'PERP INDIVIDUAL ID'
p1420
S''
sS'INCIDENT STAGE OF EXECUTION'
p1421
S'THREATENED'
p1422
sS'HUM TGT DESCRIPTION'
p1423
S''
sS'PHYS TGT EFFECT OF INCIDENT'
p1424
S''
sS'HUM TGT FOREIGN NATION'
p1425
S''
sS'INCIDENT DATE'
p1426
S'25 MAY 89 25 MAY 89'
p1427
sS'MESSAGE TEMPLATE'
p1428
S'2 OPTIONAL'
p1429
sS'PHYS TGT TOTAL NUMBER'
p1430
S''
ssS'TST3-MUC4-0019'
p1431
(dp1432
S'PERP ORGANIZATION CONFIDENCE'
p1433
S''
sS'HUM TGT EFFECT OF INCIDENT'
p1434
S''
sS'INCIDENT LOCATION'
p1435
S'COLOMBIA NORTE DE SANTANDER DEPARTMENT URUM MUNICIPALITY COLOMBIA NORTE DE SANTANDER DEPARTMENT URUM MUNICIPALITY CANO LIMON CITY COVENAS CITY'
p1436
sS'PHYS TGT ID'
p1437
S'CANO LIMONCOVENAS PIPELINE PIPELINE'
p1438
sS'PERP INCIDENT CATEGORY'
p1439
S''
sS'PERP ORGANIZATION ID'
p1440
S''
sS'HUM TGT TYPE'
p1441
S''
sS'HUM TGT TOTAL NUMBER'
p1442
S''
sS'INCIDENT INSTRUMENT ID'
p1443
S''
sS'INCIDENT INSTRUMENT TYPE'
p1444
S'EXPLOSIVE'
p1445
sS'PHYS TGT FOREIGN NATION'
p1446
S''
sS'HUM TGT NUMBER'
p1447
S''
sS'PHYS TGT TYPE'
p1448
S'ENERGY CANO LIMONCOVENAS PIPELINE PIPELINE'
p1449
sS'HUM TGT NAME'
p1450
S''
sS'INCIDENT TYPE'
p1451
S'BOMBING'
p1452
sS'PHYS TGT NUMBER'
p1453
S'1 CANO LIMONCOVENAS PIPELINE PIPELINE'
p1454
sS'PERP INDIVIDUAL ID'
p1455
S''
sS'INCIDENT STAGE OF EXECUTION'
p1456
S'ACCOMPLISHED'
p1457
sS'HUM TGT DESCRIPTION'
p1458
S''
sS'PHYS TGT EFFECT OF INCIDENT'
p1459
S'DESTROYED SOME DAMAGE CANO LIMONCOVENAS PIPELINE PIPELINE'
p1460
sS'HUM TGT FOREIGN NATION'
p1461
S''
sS'INCIDENT DATE'
p1462
S'28 MAY 89'
p1463
sS'MESSAGE TEMPLATE'
p1464
S'1'
sS'PHYS TGT TOTAL NUMBER'
p1465
S''
ssS'TST3-MUC4-0016'
p1466
(dp1467
S'PERP ORGANIZATION CONFIDENCE'
p1468
S''
sS'HUM TGT EFFECT OF INCIDENT'
p1469
S''
sS'INCIDENT LOCATION'
p1470
S''
sS'PHYS TGT ID'
p1471
S''
sS'PERP INCIDENT CATEGORY'
p1472
S''
sS'PERP ORGANIZATION ID'
p1473
S''
sS'HUM TGT TYPE'
p1474
S''
sS'HUM TGT TOTAL NUMBER'
p1475
S''
sS'INCIDENT INSTRUMENT ID'
p1476
S''
sS'INCIDENT INSTRUMENT TYPE'
p1477
S''
sS'PHYS TGT FOREIGN NATION'
p1478
S''
sS'HUM TGT NUMBER'
p1479
S''
sS'PHYS TGT TYPE'
p1480
S''
sS'HUM TGT NAME'
p1481
S''
sS'INCIDENT TYPE'
p1482
S''
sS'PHYS TGT NUMBER'
p1483
S''
sS'PERP INDIVIDUAL ID'
p1484
S''
sS'INCIDENT STAGE OF EXECUTION'
p1485
S''
sS'HUM TGT DESCRIPTION'
p1486
S''
sS'PHYS TGT EFFECT OF INCIDENT'
p1487
S''
sS'HUM TGT FOREIGN NATION'
p1488
S''
sS'INCIDENT DATE'
p1489
S''
sS'MESSAGE TEMPLATE'
p1490
S''
sS'PHYS TGT TOTAL NUMBER'
p1491
S''
ssS'TST3-MUC4-0017'
p1492
(dp1493
S'PERP ORGANIZATION CONFIDENCE'
p1494
S'SUSPECTED OR ACCUSED ARMED FORCES'
p1495
sS'HUM TGT EFFECT OF INCIDENT'
p1496
S''
sS'INCIDENT LOCATION'
p1497
S'EL SALVADOR MACHILIGUAS NEIGHBORHOOD'
p1498
sS'PHYS TGT ID'
p1499
S''
sS'PERP INCIDENT CATEGORY'
p1500
S'STATESPONSORED VIOLENCE'
p1501
sS'PERP ORGANIZATION ID'
p1502
S'ARMED FORCES'
p1503
sS'HUM TGT TYPE'
p1504
S'SECURITY GUARD GUARDS PROTECTING MERINOS RESIDENCE GUARDS'
p1505
sS'HUM TGT TOTAL NUMBER'
p1506
S''
sS'INCIDENT INSTRUMENT ID'
p1507
S''
sS'INCIDENT INSTRUMENT TYPE'
p1508
S'GUN'
p1509
sS'PHYS TGT FOREIGN NATION'
p1510
S''
sS'HUM TGT NUMBER'
p1511
S'PLURAL GUARDS PROTECTING MERINOS RESIDENCE GUARDS'
p1512
sS'PHYS TGT TYPE'
p1513
S''
sS'HUM TGT NAME'
p1514
S''
sS'INCIDENT TYPE'
p1515
S'ATTACK'
p1516
sS'PHYS TGT NUMBER'
p1517
S''
sS'PERP INDIVIDUAL ID'
p1518
S'UNIDENTIFIED INDIVIDUALS'
p1519
sS'INCIDENT STAGE OF EXECUTION'
p1520
S'ACCOMPLISHED'
p1521
sS'HUM TGT DESCRIPTION'
p1522
S'GUARDS PROTECTING MERINOS RESIDENCE GUARDS'
p1523
sS'PHYS TGT EFFECT OF INCIDENT'
p1524
S''
sS'HUM TGT FOREIGN NATION'
p1525
S''
sS'INCIDENT DATE'
p1526
S'14 APR 89'
p1527
sS'MESSAGE TEMPLATE'
p1528
S'4 OPTIONAL'
p1529
sS'PHYS TGT TOTAL NUMBER'
p1530
S''
ssS'TST3-MUC4-0014'
p1531
(dp1532
S'PERP ORGANIZATION CONFIDENCE'
p1533
S''
sS'HUM TGT EFFECT OF INCIDENT'
p1534
S''
sS'INCIDENT LOCATION'
p1535
S'PERU PERU AYACUCHO DEPARTMENT PERU AYACUCHO PROVINCE'
p1536
sS'PHYS TGT ID'
p1537
S''
sS'PERP INCIDENT CATEGORY'
p1538
S''
sS'PERP ORGANIZATION ID'
p1539
S''
sS'HUM TGT TYPE'
p1540
S'CIVILIAN LUIS MORALES'
p1541
sS'HUM TGT TOTAL NUMBER'
p1542
S''
sS'INCIDENT INSTRUMENT ID'
p1543
S''
sS'INCIDENT INSTRUMENT TYPE'
p1544
S''
sS'PHYS TGT FOREIGN NATION'
p1545
S''
sS'HUM TGT NUMBER'
p1546
S'1 LUIS MORALES'
p1547
sS'PHYS TGT TYPE'
p1548
S''
sS'HUM TGT NAME'
p1549
S'LUIS MORALES'
p1550
sS'INCIDENT TYPE'
p1551
S'KIDNAPPING'
p1552
sS'PHYS TGT NUMBER'
p1553
S''
sS'PERP INDIVIDUAL ID'
p1554
S'FIVE UNIDENTIFIED INDIVIDUALS UNIDENTIFIED INDIVIDUALS'
p1555
sS'INCIDENT STAGE OF EXECUTION'
p1556
S'ATTEMPTED'
p1557
sS'HUM TGT DESCRIPTION'
p1558
S'REPORTER LUIS MORALES'
p1559
sS'PHYS TGT EFFECT OF INCIDENT'
p1560
S''
sS'HUM TGT FOREIGN NATION'
p1561
S''
sS'INCIDENT DATE'
p1562
S'19 JAN 89'
p1563
sS'MESSAGE TEMPLATE'
p1564
S'5'
sS'PHYS TGT TOTAL NUMBER'
p1565
S''
ssS'TST3-MUC4-0015'
p1566
(dp1567
S'PERP ORGANIZATION CONFIDENCE'
p1568
S''
sS'HUM TGT EFFECT OF INCIDENT'
p1569
S'DEATH ROBERTO NAVAS'
p1570
sS'INCIDENT LOCATION'
p1571
S'EL SALVADOR'
p1572
sS'PHYS TGT ID'
p1573
S''
sS'PERP INCIDENT CATEGORY'
p1574
S''
sS'PERP ORGANIZATION ID'
p1575
S''
sS'HUM TGT TYPE'
p1576
S'CIVILIAN ROBERTO NAVAS'
p1577
sS'HUM TGT TOTAL NUMBER'
p1578
S''
sS'INCIDENT INSTRUMENT ID'
p1579
S''
sS'INCIDENT INSTRUMENT TYPE'
p1580
S''
sS'PHYS TGT FOREIGN NATION'
p1581
S''
sS'HUM TGT NUMBER'
p1582
S'1 ROBERTO NAVAS'
p1583
sS'PHYS TGT TYPE'
p1584
S''
sS'HUM TGT NAME'
p1585
S'ROBERTO NAVAS'
p1586
sS'INCIDENT TYPE'
p1587
S'ATTACK'
p1588
sS'PHYS TGT NUMBER'
p1589
S''
sS'PERP INDIVIDUAL ID'
p1590
S''
sS'INCIDENT STAGE OF EXECUTION'
p1591
S'ACCOMPLISHED'
p1592
sS'HUM TGT DESCRIPTION'
p1593
S'REPORTER FOR THE BRITISH AGENCY REUTER REPORTER ROBERTO NAVAS'
p1594
sS'PHYS TGT EFFECT OF INCIDENT'
p1595
S''
sS'HUM TGT FOREIGN NATION'
p1596
S''
sS'INCIDENT DATE'
p1597
S'18 MAR 89 19 MAR 89 18 MAR 89 19 MAR 89'
p1598
sS'MESSAGE TEMPLATE'
p1599
S'2'
sS'PHYS TGT TOTAL NUMBER'
p1600
S''
ssS'TST3-MUC4-0012'
p1601
(dp1602
S'PERP ORGANIZATION CONFIDENCE'
p1603
S''
sS'HUM TGT EFFECT OF INCIDENT'
p1604
S''
sS'INCIDENT LOCATION'
p1605
S''
sS'PHYS TGT ID'
p1606
S''
sS'PERP INCIDENT CATEGORY'
p1607
S''
sS'PERP ORGANIZATION ID'
p1608
S''
sS'HUM TGT TYPE'
p1609
S''
sS'HUM TGT TOTAL NUMBER'
p1610
S''
sS'INCIDENT INSTRUMENT ID'
p1611
S''
sS'INCIDENT INSTRUMENT TYPE'
p1612
S''
sS'PHYS TGT FOREIGN NATION'
p1613
S''
sS'HUM TGT NUMBER'
p1614
S''
sS'PHYS TGT TYPE'
p1615
S''
sS'HUM TGT NAME'
p1616
S''
sS'INCIDENT TYPE'
p1617
S''
sS'PHYS TGT NUMBER'
p1618
S''
sS'PERP INDIVIDUAL ID'
p1619
S''
sS'INCIDENT STAGE OF EXECUTION'
p1620
S''
sS'HUM TGT DESCRIPTION'
p1621
S''
sS'PHYS TGT EFFECT OF INCIDENT'
p1622
S''
sS'HUM TGT FOREIGN NATION'
p1623
S''
sS'INCIDENT DATE'
p1624
S''
sS'MESSAGE TEMPLATE'
p1625
S''
sS'PHYS TGT TOTAL NUMBER'
p1626
S''
ssS'TST3-MUC4-0013'
p1627
(dp1628
S'PERP ORGANIZATION CONFIDENCE'
p1629
S'REPORTED AS FACT GOVERNMENT'
p1630
sS'HUM TGT EFFECT OF INCIDENT'
p1631
S''
sS'INCIDENT LOCATION'
p1632
S'EL SALVADOR'
p1633
sS'PHYS TGT ID'
p1634
S'RESIDENCES OF LEADERS OF THE SOCIAL CHRISTIAN PEOPLES MOVEMENT'
p1635
sS'PERP INCIDENT CATEGORY'
p1636
S'STATESPONSORED VIOLENCE'
p1637
sS'PERP ORGANIZATION ID'
p1638
S'GOVERNMENT'
p1639
sS'HUM TGT TYPE'
p1640
S''
sS'HUM TGT TOTAL NUMBER'
p1641
S''
sS'INCIDENT INSTRUMENT ID'
p1642
S''
sS'INCIDENT INSTRUMENT TYPE'
p1643
S''
sS'PHYS TGT FOREIGN NATION'
p1644
S''
sS'HUM TGT NUMBER'
p1645
S''
sS'PHYS TGT TYPE'
p1646
S'GOVERNMENT OFFICE OR RESIDENCE RESIDENCES OF LEADERS OF THE SOCIAL CHRISTIAN PEOPLES MOVEMENT'
p1647
sS'HUM TGT NAME'
p1648
S''
sS'INCIDENT TYPE'
p1649
S'ATTACK'
p1650
sS'PHYS TGT NUMBER'
p1651
S'PLURAL RESIDENCES OF LEADERS OF THE SOCIAL CHRISTIAN PEOPLES MOVEMENT'
p1652
sS'PERP INDIVIDUAL ID'
p1653
S''
sS'INCIDENT STAGE OF EXECUTION'
p1654
S'ACCOMPLISHED'
p1655
sS'HUM TGT DESCRIPTION'
p1656
S''
sS'PHYS TGT EFFECT OF INCIDENT'
p1657
S''
sS'HUM TGT FOREIGN NATION'
p1658
S''
sS'INCIDENT DATE'
p1659
S'02 NOV 89'
p1660
sS'MESSAGE TEMPLATE'
p1661
S'3 OPTIONAL'
p1662
sS'PHYS TGT TOTAL NUMBER'
p1663
S''
ssS'TST3-MUC4-0010'
p1664
(dp1665
S'PERP ORGANIZATION CONFIDENCE'
p1666
S'REPORTED AS FACT FMLN'
p1667
sS'HUM TGT EFFECT OF INCIDENT'
p1668
S'DEATH CIVILIAN'
p1669
sS'INCIDENT LOCATION'
p1670
S'EL SALVADOR'
p1671
sS'PHYS TGT ID'
p1672
S'ARMED FORCES STAFF INSTALLATIONS'
p1673
sS'PERP INCIDENT CATEGORY'
p1674
S'TERRORIST ACT'
p1675
sS'PERP ORGANIZATION ID'
p1676
S'FMLN'
p1677
sS'HUM TGT TYPE'
p1678
S'CIVILIAN CIVILIAN'
p1679
sS'HUM TGT TOTAL NUMBER'
p1680
S''
sS'INCIDENT INSTRUMENT ID'
p1681
S''
sS'INCIDENT INSTRUMENT TYPE'
p1682
S''
sS'PHYS TGT FOREIGN NATION'
p1683
S''
sS'HUM TGT NUMBER'
p1684
S'1 CIVILIAN'
p1685
sS'PHYS TGT TYPE'
p1686
S'OTHER ARMED FORCES STAFF INSTALLATIONS'
p1687
sS'HUM TGT NAME'
p1688
S''
sS'INCIDENT TYPE'
p1689
S'ATTACK'
p1690
sS'PHYS TGT NUMBER'
p1691
S'PLURAL ARMED FORCES STAFF INSTALLATIONS'
p1692
sS'CIVILIAN OTHERS'
p1693
S''
sS'PERP INDIVIDUAL ID'
p1694
S'CRIMINAL GROUPS'
p1695
sS'INCIDENT STAGE OF EXECUTION'
p1696
S'ACCOMPLISHED'
p1697
sS'HUM TGT DESCRIPTION'
p1698
S'CIVILIAN'
p1699
sS'PHYS TGT EFFECT OF INCIDENT'
p1700
S''
sS'HUM TGT FOREIGN NATION'
p1701
S''
sS'INCIDENT DATE'
p1702
S'30 OCT 89'
p1703
sS'MESSAGE TEMPLATE'
p1704
S'2'
sS'PHYS TGT TOTAL NUMBER'
p1705
S''
ssS'TST3-MUC4-0011'
p1706
(dp1707
S'PERP ORGANIZATION CONFIDENCE'
p1708
S'CLAIMED OR ADMITTED ELN ARMY OF NATIONAL LIBERATION'
p1709
sS'HUM TGT EFFECT OF INCIDENT'
p1710
S''
sS'INCIDENT LOCATION'
p1711
S'COLOMBIA'
p1712
sS'PHYS TGT ID'
p1713
S''
sS'PERP INCIDENT CATEGORY'
p1714
S'TERRORIST ACT'
p1715
sS'PERP ORGANIZATION ID'
p1716
S'ELN ARMY OF NATIONAL LIBERATION'
p1717
sS'HUM TGT TYPE'
p1718
S'DIPLOMAT HONORARY CONSULS'
p1719
sS'HUM TGT TOTAL NUMBER'
p1720
S''
sS'INCIDENT INSTRUMENT ID'
p1721
S''
sS'INCIDENT INSTRUMENT TYPE'
p1722
S''
sS'PHYS TGT FOREIGN NATION'
p1723
S''
sS'HUM TGT NUMBER'
p1724
S'PLURAL HONORARY CONSULS'
p1725
sS'PHYS TGT TYPE'
p1726
S''
sS'HUM TGT NAME'
p1727
S''
sS'INCIDENT TYPE'
p1728
S'KIDNAPPING'
p1729
sS'PHYS TGT NUMBER'
p1730
S''
sS'PERP INDIVIDUAL ID'
p1731
S'MEMBERS OF THE MANUEL GUSTAVO CHACON SOVEREIGNTY OPERATION MANUEL GUSTAVO CHACON SOVEREIGNTY OPERATION'
p1732
sS'INCIDENT STAGE OF EXECUTION'
p1733
S'ACCOMPLISHED'
p1734
sS'HUM TGT DESCRIPTION'
p1735
S'HONORARY CONSULS'
p1736
sS'PHYS TGT EFFECT OF INCIDENT'
p1737
S''
sS'HUM TGT FOREIGN NATION'
p1738
S''
sS'INCIDENT DATE'
p1739
S'04 MAY 88'
p1740
sS'MESSAGE TEMPLATE'
p1741
S'1'
sS'PHYS TGT TOTAL NUMBER'
p1742
S''
ssS'TST3-MUC4-0085'
p1743
(dp1744
S'PERP ORGANIZATION CONFIDENCE'
p1745
S'SUSPECTED OR ACCUSED BY AUTHORITIES ARMY'
p1746
sS'HUM TGT EFFECT OF INCIDENT'
p1747
S'DEATH JESUITS JESUIT PRIESTS PRIESTS'
p1748
sS'INCIDENT LOCATION'
p1749
S'EL SALVADOR'
p1750
sS'PHYS TGT ID'
p1751
S''
sS'PERP INCIDENT CATEGORY'
p1752
S'STATESPONSORED VIOLENCE'
p1753
sS'PERP ORGANIZATION ID'
p1754
S'ARMY'
p1755
sS'HUM TGT TYPE'
p1756
S'CIVILIAN JESUITS JESUIT PRIESTS PRIESTS'
p1757
sS'HUM TGT TOTAL NUMBER'
p1758
S''
sS'INCIDENT INSTRUMENT ID'
p1759
S''
sS'INCIDENT INSTRUMENT TYPE'
p1760
S''
sS'PHYS TGT FOREIGN NATION'
p1761
S''
sS'HUM TGT NUMBER'
p1762
S'6 JESUITS JESUIT PRIESTS PRIESTS'
p1763
sS'PHYS TGT TYPE'
p1764
S''
sS'HUM TGT NAME'
p1765
S''
sS'INCIDENT TYPE'
p1766
S'ATTACK'
p1767
sS'PHYS TGT NUMBER'
p1768
S''
sS'PERP INDIVIDUAL ID'
p1769
S'EIGHT SOLDIERS SOLDIERS'
p1770
sS'INCIDENT STAGE OF EXECUTION'
p1771
S'ACCOMPLISHED'
p1772
sS'HUM TGT DESCRIPTION'
p1773
S'JESUITS JESUIT PRIESTS PRIESTS'
p1774
sS'PHYS TGT EFFECT OF INCIDENT'
p1775
S''
sS'HUM TGT FOREIGN NATION'
p1776
S''
sS'INCIDENT DATE'
p1777
S'10 FEB 90'
p1778
sS'MESSAGE TEMPLATE'
p1779
S'1'
sS'PHYS TGT TOTAL NUMBER'
p1780
S''
ssS'TST3-MUC4-0084'
p1781
(dp1782
S'PERP ORGANIZATION CONFIDENCE'
p1783
S'REPORTED AS FACT FARABUNDO MARTI NATIONAL LIBERATION FRONT FMLN'
p1784
sS'HUM TGT EFFECT OF INCIDENT'
p1785
S''
sS'INCIDENT LOCATION'
p1786
S'EL SALVADOR SAN SALVADOR CITY EL SALVADOR'
p1787
sS'PHYS TGT ID'
p1788
S'PUBLIC BUS BUS'
p1789
sS'PERP INCIDENT CATEGORY'
p1790
S'TERRORIST ACT'
p1791
sS'PERP ORGANIZATION ID'
p1792
S'FARABUNDO MARTI NATIONAL LIBERATION FRONT FMLN'
p1793
sS'HUM TGT TYPE'
p1794
S''
sS'HUM TGT TOTAL NUMBER'
p1795
S''
sS'INCIDENT INSTRUMENT ID'
p1796
S''
sS'INCIDENT INSTRUMENT TYPE'
p1797
S''
sS'PHYS TGT FOREIGN NATION'
p1798
S''
sS'HUM TGT NUMBER'
p1799
S''
sS'PHYS TGT TYPE'
p1800
S'TRANSPORT VEHICLE PUBLIC BUS BUS'
p1801
sS'HUM TGT NAME'
p1802
S''
sS'INCIDENT TYPE'
p1803
S'ARSON'
p1804
sS'PHYS TGT NUMBER'
p1805
S'1 PUBLIC BUS BUS'
p1806
sS'PERP INDIVIDUAL ID'
p1807
S'SALVADORAN REBELS REBELS'
p1808
sS'INCIDENT STAGE OF EXECUTION'
p1809
S'ACCOMPLISHED'
p1810
sS'HUM TGT DESCRIPTION'
p1811
S''
sS'PHYS TGT EFFECT OF INCIDENT'
p1812
S'SOME DAMAGE DESTROYED PUBLIC BUS BUS'
p1813
sS'HUM TGT FOREIGN NATION'
p1814
S''
sS'INCIDENT DATE'
p1815
S'02 FEB 90 01 FEB 90 02 FEB 90 02 FEB 90'
p1816
sS'MESSAGE TEMPLATE'
p1817
S'2'
sS'PHYS TGT TOTAL NUMBER'
p1818
S''
ssS'TST3-MUC4-0087'
p1819
(dp1820
S'PERP ORGANIZATION CONFIDENCE'
p1821
S''
sS'HUM TGT EFFECT OF INCIDENT'
p1822
S''
sS'INCIDENT LOCATION'
p1823
S''
sS'PHYS TGT ID'
p1824
S''
sS'PERP INCIDENT CATEGORY'
p1825
S''
sS'PERP ORGANIZATION ID'
p1826
S''
sS'HUM TGT TYPE'
p1827
S''
sS'HUM TGT TOTAL NUMBER'
p1828
S''
sS'INCIDENT INSTRUMENT ID'
p1829
S''
sS'INCIDENT INSTRUMENT TYPE'
p1830
S''
sS'PHYS TGT FOREIGN NATION'
p1831
S''
sS'HUM TGT NUMBER'
p1832
S''
sS'PHYS TGT TYPE'
p1833
S''
sS'HUM TGT NAME'
p1834
S''
sS'INCIDENT TYPE'
p1835
S''
sS'PHYS TGT NUMBER'
p1836
S''
sS'PERP INDIVIDUAL ID'
p1837
S''
sS'INCIDENT STAGE OF EXECUTION'
p1838
S''
sS'HUM TGT DESCRIPTION'
p1839
S''
sS'PHYS TGT EFFECT OF INCIDENT'
p1840
S''
sS'HUM TGT FOREIGN NATION'
p1841
S''
sS'INCIDENT DATE'
p1842
S''
sS'MESSAGE TEMPLATE'
p1843
S''
sS'PHYS TGT TOTAL NUMBER'
p1844
S''
ssS'TST3-MUC4-0086'
p1845
(dp1846
S'PERP ORGANIZATION CONFIDENCE'
p1847
S''
sS'HUM TGT EFFECT OF INCIDENT'
p1848
S''
sS'INCIDENT LOCATION'
p1849
S''
sS'PHYS TGT ID'
p1850
S''
sS'PERP INCIDENT CATEGORY'
p1851
S''
sS'PERP ORGANIZATION ID'
p1852
S''
sS'HUM TGT TYPE'
p1853
S''
sS'HUM TGT TOTAL NUMBER'
p1854
S''
sS'INCIDENT INSTRUMENT ID'
p1855
S''
sS'INCIDENT INSTRUMENT TYPE'
p1856
S''
sS'PHYS TGT FOREIGN NATION'
p1857
S''
sS'HUM TGT NUMBER'
p1858
S''
sS'PHYS TGT TYPE'
p1859
S''
sS'HUM TGT NAME'
p1860
S''
sS'INCIDENT TYPE'
p1861
S''
sS'PHYS TGT NUMBER'
p1862
S''
sS'PERP INDIVIDUAL ID'
p1863
S''
sS'INCIDENT STAGE OF EXECUTION'
p1864
S''
sS'HUM TGT DESCRIPTION'
p1865
S''
sS'PHYS TGT EFFECT OF INCIDENT'
p1866
S''
sS'HUM TGT FOREIGN NATION'
p1867
S''
sS'INCIDENT DATE'
p1868
S''
sS'MESSAGE TEMPLATE'
p1869
S''
sS'PHYS TGT TOTAL NUMBER'
p1870
S''
ssS'TST3-MUC4-0081'
p1871
(dp1872
S'PERP ORGANIZATION CONFIDENCE'
p1873
S''
sS'HUM TGT EFFECT OF INCIDENT'
p1874
S'PROPERTY TAKEN FROM TARGET LUIS SANDIGA CABRERA'
p1875
sS'INCIDENT LOCATION'
p1876
S'PANAMA'
p1877
sS'PHYS TGT ID'
p1878
S'HIS CAR CAR'
p1879
sS'PERP INCIDENT CATEGORY'
p1880
S''
sS'PERP ORGANIZATION ID'
p1881
S''
sS'HUM TGT TYPE'
p1882
S'DIPLOMAT LUIS SANDIGA CABRERA'
p1883
sS'HUM TGT TOTAL NUMBER'
p1884
S''
sS'INCIDENT INSTRUMENT ID'
p1885
S''
sS'INCIDENT INSTRUMENT TYPE'
p1886
S''
sS'PHYS TGT FOREIGN NATION'
p1887
S'PERU HIS CAR CAR'
p1888
sS'HUM TGT NUMBER'
p1889
S'1 LUIS SANDIGA CABRERA'
p1890
sS'PHYS TGT TYPE'
p1891
S'TRANSPORT VEHICLE HIS CAR CAR'
p1892
sS'HUM TGT NAME'
p1893
S'LUIS SANDIGA CABRERA'
p1894
sS'INCIDENT TYPE'
p1895
S'ROBBERY'
p1896
sS'PHYS TGT NUMBER'
p1897
S'1 HIS CAR CAR'
p1898
sS'MILITARY ATTACHE ONE OF THE'
p1899
S'EMBASSYS MILITARY ATTACHES'
p1900
sS'PERP INDIVIDUAL ID'
p1901
S''
sS'CAR BELONGING TO ONE OF THE EMB'
p1902
S'ASSYS MILITARY ATTACHES CAR'
p1903
sS'INCIDENT STAGE OF EXECUTION'
p1904
S'ACCOMPLISHED'
p1905
sS'HUM TGT DESCRIPTION'
p1906
S'CHARGE DAFFAIRES LUIS SANDIGA CABRERA'
p1907
sS'PHYS TGT EFFECT OF INCIDENT'
p1908
S'TARGET TAKEN HIS CAR CAR'
p1909
sS'HUM TGT FOREIGN NATION'
p1910
S'PERU LUIS SANDIGA CABRERA'
p1911
sS'INCIDENT DATE'
p1912
S''
sS'MESSAGE TEMPLATE'
p1913
S'1'
sS'PHYS TGT TOTAL NUMBER'
p1914
S''
ssS'TST3-MUC4-0080'
p1915
(dp1916
S'PERP ORGANIZATION CONFIDENCE'
p1917
S'REPORTED AS FACT FARABUNDO MARTI NATIONAL LIBERATION FRONT FMLN'
p1918
sS'HUM TGT EFFECT OF INCIDENT'
p1919
S''
sS'INCIDENT LOCATION'
p1920
S'EL SALVADOR'
p1921
sS'PHYS TGT ID'
p1922
S'ELECTRICAL POWER SYSTEM ENTIRE ELECTRICAL POWER SYSTEM'
p1923
sS'PERP INCIDENT CATEGORY'
p1924
S'TERRORIST ACT'
p1925
sS'PERP ORGANIZATION ID'
p1926
S'FARABUNDO MARTI NATIONAL LIBERATION FRONT FMLN'
p1927
sS'HUM TGT TYPE'
p1928
S''
sS'HUM TGT TOTAL NUMBER'
p1929
S''
sS'INCIDENT INSTRUMENT ID'
p1930
S''
sS'INCIDENT INSTRUMENT TYPE'
p1931
S''
sS'PHYS TGT FOREIGN NATION'
p1932
S''
sS'HUM TGT NUMBER'
p1933
S''
sS'PHYS TGT TYPE'
p1934
S'ENERGY ELECTRICAL POWER SYSTEM ENTIRE ELECTRICAL POWER SYSTEM'
p1935
sS'HUM TGT NAME'
p1936
S''
sS'INCIDENT TYPE'
p1937
S'ATTACK'
p1938
sS'PHYS TGT NUMBER'
p1939
S'1 ELECTRICAL POWER SYSTEM ENTIRE ELECTRICAL POWER SYSTEM'
p1940
sS'PERP INDIVIDUAL ID'
p1941
S'GUERRILLAS'
p1942
sS'INCIDENT STAGE OF EXECUTION'
p1943
S'ACCOMPLISHED'
p1944
sS'HUM TGT DESCRIPTION'
p1945
S''
sS'PHYS TGT EFFECT OF INCIDENT'
p1946
S''
sS'HUM TGT FOREIGN NATION'
p1947
S''
sS'INCIDENT DATE'
p1948
S'02 JAN 90'
p1949
sS'MESSAGE TEMPLATE'
p1950
S'4 OPTIONAL'
p1951
sS'PHYS TGT TOTAL NUMBER'
p1952
S''
ssS'TST3-MUC4-0083'
p1953
(dp1954
S'PERP ORGANIZATION CONFIDENCE'
p1955
S'SUSPECTED OR ACCUSED POSSIBLE CRISTIANIS GOVERNMENT GOVERNMENT'
p1956
sS'HUM TGT EFFECT OF INCIDENT'
p1957
S'DEATH HECTOR OQUELI'
p1958
sS'INCIDENT LOCATION'
p1959
S'EL SALVADOR'
p1960
sS'PHYS TGT ID'
p1961
S''
sS'PERP INCIDENT CATEGORY'
p1962
S'STATESPONSORED VIOLENCE'
p1963
sS'PERP ORGANIZATION ID'
p1964
S'CRISTIANIS GOVERNMENT GOVERNMENT'
p1965
sS'HUM TGT TYPE'
p1966
S'POLITICAL FIGURE HECTOR OQUELI'
p1967
sS'HUM TGT TOTAL NUMBER'
p1968
S''
sS'INCIDENT INSTRUMENT ID'
p1969
S''
sS'INCIDENT INSTRUMENT TYPE'
p1970
S''
sS'PHYS TGT FOREIGN NATION'
p1971
S''
sS'HUM TGT NUMBER'
p1972
S'1 HECTOR OQUELI'
p1973
sS'PHYS TGT TYPE'
p1974
S''
sS'HUM TGT NAME'
p1975
S'HECTOR OQUELI'
p1976
sS'INCIDENT TYPE'
p1977
S'ATTACK'
p1978
sS'PHYS TGT NUMBER'
p1979
S''
sS'PERP INDIVIDUAL ID'
p1980
S''
sS'INCIDENT STAGE OF EXECUTION'
p1981
S'ACCOMPLISHED'
p1982
sS'HUM TGT DESCRIPTION'
p1983
S'SOCIAL DEMOCRATIC LEADER HECTOR OQUELI'
p1984
sS'PHYS TGT EFFECT OF INCIDENT'
p1985
S''
sS'HUM TGT FOREIGN NATION'
p1986
S''
sS'INCIDENT DATE'
p1987
S'31 JAN 90'
p1988
sS'MESSAGE TEMPLATE'
p1989
S'1 OPTIONAL'
p1990
sS'PHYS TGT TOTAL NUMBER'
p1991
S''
ssS'TST3-MUC4-0082'
p1992
(dp1993
S'PERP ORGANIZATION CONFIDENCE'
p1994
S''
sS'HUM TGT EFFECT OF INCIDENT'
p1995
S'DEATH VLADIMIR ESCOBAR'
p1996
sS'INCIDENT LOCATION'
p1997
S'COLOMBIA SOACHA MUNICIPALITY COLOMBIA'
p1998
sS'PHYS TGT ID'
p1999
S''
sS'PERP INCIDENT CATEGORY'
p2000
S''
sS'PERP ORGANIZATION ID'
p2001
S''
sS'HUM TGT TYPE'
p2002
S'GOVERNMENT OFFICIAL VLADIMIR ESCOBAR'
p2003
sS'HUM TGT TOTAL NUMBER'
p2004
S''
sS'INCIDENT INSTRUMENT ID'
p2005
S''
sS'INCIDENT INSTRUMENT TYPE'
p2006
S'GUN'
p2007
sS'PHYS TGT FOREIGN NATION'
p2008
S''
sS'HUM TGT NUMBER'
p2009
S'1 VLADIMIR ESCOBAR'
p2010
sS'PHYS TGT TYPE'
p2011
S''
sS'HUM TGT NAME'
p2012
S'VLADIMIR ESCOBAR'
p2013
sS'INCIDENT TYPE'
p2014
S'ATTACK'
p2015
sS'PHYS TGT NUMBER'
p2016
S''
sS'PERP INDIVIDUAL ID'
p2017
S''
sS'INCIDENT STAGE OF EXECUTION'
p2018
S'ACCOMPLISHED'
p2019
sS'HUM TGT DESCRIPTION'
p2020
S'SOACHA MUNICIPAL OFFICIAL MUNICIPAL OFFICIAL VLADIMIR ESCOBAR'
p2021
sS'PHYS TGT EFFECT OF INCIDENT'
p2022
S''
sS'HUM TGT FOREIGN NATION'
p2023
S''
sS'INCIDENT DATE'
p2024
S'24 JAN 90'
p2025
sS'MESSAGE TEMPLATE'
p2026
S'1'
sS'PHYS TGT TOTAL NUMBER'
p2027
S''
ssS'TST3-MUC4-0089'
p2028
(dp2029
S'PERP ORGANIZATION CONFIDENCE'
p2030
S''
sS'HUM TGT EFFECT OF INCIDENT'
p2031
S''
sS'INCIDENT LOCATION'
p2032
S''
sS'PHYS TGT ID'
p2033
S''
sS'PERP INCIDENT CATEGORY'
p2034
S''
sS'PERP ORGANIZATION ID'
p2035
S''
sS'HUM TGT TYPE'
p2036
S''
sS'HUM TGT TOTAL NUMBER'
p2037
S''
sS'INCIDENT INSTRUMENT ID'
p2038
S''
sS'INCIDENT INSTRUMENT TYPE'
p2039
S''
sS'PHYS TGT FOREIGN NATION'
p2040
S''
sS'HUM TGT NUMBER'
p2041
S''
sS'PHYS TGT TYPE'
p2042
S''
sS'HUM TGT NAME'
p2043
S''
sS'INCIDENT TYPE'
p2044
S''
sS'PHYS TGT NUMBER'
p2045
S''
sS'PERP INDIVIDUAL ID'
p2046
S''
sS'INCIDENT STAGE OF EXECUTION'
p2047
S''
sS'HUM TGT DESCRIPTION'
p2048
S''
sS'PHYS TGT EFFECT OF INCIDENT'
p2049
S''
sS'HUM TGT FOREIGN NATION'
p2050
S''
sS'INCIDENT DATE'
p2051
S''
sS'MESSAGE TEMPLATE'
p2052
S''
sS'PHYS TGT TOTAL NUMBER'
p2053
S''
ssS'TST3-MUC4-0088'
p2054
(dp2055
S'PERP ORGANIZATION CONFIDENCE'
p2056
S'REPORTED AS FACT POSSIBLE ELN POPULAR LIBERATION ARMY'
p2057
sS'HUM TGT EFFECT OF INCIDENT'
p2058
S'REGAINED FREEDOM JORGE SERRANO GONZALEZ'
p2059
sS'INCIDENT LOCATION'
p2060
S'COLOMBIA'
p2061
sS'PHYS TGT ID'
p2062
S''
sS'PERP INCIDENT CATEGORY'
p2063
S'TERRORIST ACT'
p2064
sS'PERP ORGANIZATION ID'
p2065
S'ELN POPULAR LIBERATION ARMY'
p2066
sS'HUM TGT TYPE'
p2067
S'GOVERNMENT OFFICIAL JORGE SERRANO GONZALEZ'
p2068
sS'HUM TGT TOTAL NUMBER'
p2069
S''
sS'INCIDENT INSTRUMENT ID'
p2070
S''
sS'INCIDENT INSTRUMENT TYPE'
p2071
S''
sS'PHYS TGT FOREIGN NATION'
p2072
S''
sS'HUM TGT NUMBER'
p2073
S'1 JORGE SERRANO GONZALEZ'
p2074
sS'PHYS TGT TYPE'
p2075
S''
sS'HUM TGT NAME'
p2076
S'JORGE SERRANO GONZALEZ'
p2077
sS'INCIDENT TYPE'
p2078
S'KIDNAPPING'
p2079
sS'PHYS TGT NUMBER'
p2080
S''
sS'PERP INDIVIDUAL ID'
p2081
S'GUERRILLAS'
p2082
sS'INCIDENT STAGE OF EXECUTION'
p2083
S'ACCOMPLISHED'
p2084
sS'HUM TGT DESCRIPTION'
p2085
S'SANTANDER DEPARTMENT SENATOR SENATOR JORGE SERRANO GONZALEZ'
p2086
sS'PHYS TGT EFFECT OF INCIDENT'
p2087
S''
sS'HUM TGT FOREIGN NATION'
p2088
S''
sS'INCIDENT DATE'
p2089
S'24 FEB 90'
p2090
sS'MESSAGE TEMPLATE'
p2091
S'3'
sS'PHYS TGT TOTAL NUMBER'
p2092
S''
ssS'TST3-MUC4-0009'
p2093
(dp2094
S'PERP ORGANIZATION CONFIDENCE'
p2095
S''
sS'HUM TGT EFFECT OF INCIDENT'
p2096
S''
sS'INCIDENT LOCATION'
p2097
S''
sS'PHYS TGT ID'
p2098
S''
sS'PERP INCIDENT CATEGORY'
p2099
S''
sS'PERP ORGANIZATION ID'
p2100
S''
sS'HUM TGT TYPE'
p2101
S''
sS'HUM TGT TOTAL NUMBER'
p2102
S''
sS'INCIDENT INSTRUMENT ID'
p2103
S''
sS'INCIDENT INSTRUMENT TYPE'
p2104
S''
sS'PHYS TGT FOREIGN NATION'
p2105
S''
sS'HUM TGT NUMBER'
p2106
S''
sS'PHYS TGT TYPE'
p2107
S''
sS'HUM TGT NAME'
p2108
S''
sS'INCIDENT TYPE'
p2109
S''
sS'PHYS TGT NUMBER'
p2110
S''
sS'PERP INDIVIDUAL ID'
p2111
S''
sS'INCIDENT STAGE OF EXECUTION'
p2112
S''
sS'HUM TGT DESCRIPTION'
p2113
S''
sS'PHYS TGT EFFECT OF INCIDENT'
p2114
S''
sS'HUM TGT FOREIGN NATION'
p2115
S''
sS'INCIDENT DATE'
p2116
S''
sS'MESSAGE TEMPLATE'
p2117
S''
sS'PHYS TGT TOTAL NUMBER'
p2118
S''
ssS'TST3-MUC4-0008'
p2119
(dp2120
S'PERP ORGANIZATION CONFIDENCE'
p2121
S''
sS'HUM TGT EFFECT OF INCIDENT'
p2122
S''
sS'INCIDENT LOCATION'
p2123
S''
sS'PHYS TGT ID'
p2124
S''
sS'PERP INCIDENT CATEGORY'
p2125
S''
sS'PERP ORGANIZATION ID'
p2126
S''
sS'HUM TGT TYPE'
p2127
S''
sS'HUM TGT TOTAL NUMBER'
p2128
S''
sS'INCIDENT INSTRUMENT ID'
p2129
S''
sS'INCIDENT INSTRUMENT TYPE'
p2130
S''
sS'PHYS TGT FOREIGN NATION'
p2131
S''
sS'HUM TGT NUMBER'
p2132
S''
sS'PHYS TGT TYPE'
p2133
S''
sS'HUM TGT NAME'
p2134
S''
sS'INCIDENT TYPE'
p2135
S''
sS'PHYS TGT NUMBER'
p2136
S''
sS'PERP INDIVIDUAL ID'
p2137
S''
sS'INCIDENT STAGE OF EXECUTION'
p2138
S''
sS'HUM TGT DESCRIPTION'
p2139
S''
sS'PHYS TGT EFFECT OF INCIDENT'
p2140
S''
sS'HUM TGT FOREIGN NATION'
p2141
S''
sS'INCIDENT DATE'
p2142
S''
sS'MESSAGE TEMPLATE'
p2143
S''
sS'PHYS TGT TOTAL NUMBER'
p2144
S''
ssS'TST3-MUC4-0005'
p2145
(dp2146
S'PERP ORGANIZATION CONFIDENCE'
p2147
S''
sS'HUM TGT EFFECT OF INCIDENT'
p2148
S''
sS'INCIDENT LOCATION'
p2149
S'GUATEMALA GUATEMALA CITY CITY'
p2150
sS'PHYS TGT ID'
p2151
S''
sS'PERP INCIDENT CATEGORY'
p2152
S''
sS'PERP ORGANIZATION ID'
p2153
S''
sS'HUM TGT TYPE'
p2154
S'POLITICAL FIGURE HECTOR OQUELI COLINDRES'
p2155
sS'HUM TGT TOTAL NUMBER'
p2156
S''
sS'INCIDENT INSTRUMENT ID'
p2157
S''
sS'INCIDENT INSTRUMENT TYPE'
p2158
S''
sS'PHYS TGT FOREIGN NATION'
p2159
S''
sS'GILDA FLORES'
p2160
S''
sS'HUM TGT NUMBER'
p2161
S'1 HECTOR OQUELI COLINDRES'
p2162
sS'PHYS TGT TYPE'
p2163
S''
sS'HUM TGT NAME'
p2164
S'HECTOR OQUELI COLINDRES'
p2165
sS'INCIDENT TYPE'
p2166
S'KIDNAPPING'
p2167
sS'PHYS TGT NUMBER'
p2168
S''
sS'PERP INDIVIDUAL ID'
p2169
S'HEAVILY ARMED MEN'
p2170
sS'INCIDENT STAGE OF EXECUTION'
p2171
S'ACCOMPLISHED'
p2172
sS'HUM TGT DESCRIPTION'
p2173
S'SOCIAL DEMOCRATIC POLITICIAN SECRETARY OF THE NATIONAL REVOLUTIONARY MOVEMENT MNR SECRETARY OF THE NATIONAL REVOLUTIONARY MOVEMENT SOCIALIST INTERNATIONAL SECRETARY FOR LATIN AMERICA HECTOR OQUELI COLINDRES'
p2174
sS'PHYS TGT EFFECT OF INCIDENT'
p2175
S''
sS'HUM TGT FOREIGN NATION'
p2176
S'EL SALVADOR HECTOR OQUELI COLINDRES'
p2177
sS'INCIDENT DATE'
p2178
S'12 JAN 90'
p2179
sS'MESSAGE TEMPLATE'
p2180
S'1'
sS'PHYS TGT TOTAL NUMBER'
p2181
S''
ssS'TST3-MUC4-0004'
p2182
(dp2183
S'PERP ORGANIZATION CONFIDENCE'
p2184
S''
sS'HUM TGT EFFECT OF INCIDENT'
p2185
S''
sS'INCIDENT LOCATION'
p2186
S''
sS'PHYS TGT ID'
p2187
S''
sS'PERP INCIDENT CATEGORY'
p2188
S''
sS'PERP ORGANIZATION ID'
p2189
S''
sS'HUM TGT TYPE'
p2190
S''
sS'HUM TGT TOTAL NUMBER'
p2191
S''
sS'INCIDENT INSTRUMENT ID'
p2192
S''
sS'INCIDENT INSTRUMENT TYPE'
p2193
S''
sS'PHYS TGT FOREIGN NATION'
p2194
S''
sS'HUM TGT NUMBER'
p2195
S''
sS'PHYS TGT TYPE'
p2196
S''
sS'HUM TGT NAME'
p2197
S''
sS'INCIDENT TYPE'
p2198
S''
sS'PHYS TGT NUMBER'
p2199
S''
sS'PERP INDIVIDUAL ID'
p2200
S''
sS'INCIDENT STAGE OF EXECUTION'
p2201
S''
sS'HUM TGT DESCRIPTION'
p2202
S''
sS'PHYS TGT EFFECT OF INCIDENT'
p2203
S''
sS'HUM TGT FOREIGN NATION'
p2204
S''
sS'INCIDENT DATE'
p2205
S''
sS'MESSAGE TEMPLATE'
p2206
S''
sS'PHYS TGT TOTAL NUMBER'
p2207
S''
ssS'TST3-MUC4-0007'
p2208
(dp2209
S'PERP ORGANIZATION CONFIDENCE'
p2210
S'SUSPECTED OR ACCUSED NICARAGUAN EMBASSY'
p2211
sS'HUM TGT EFFECT OF INCIDENT'
p2212
S'DEATH MANUEL ANTONIO RUGAMA'
p2213
sS'INCIDENT LOCATION'
p2214
S'HONDURAS TEGUCIGALPA CITY HONDURAS'
p2215
sS'PHYS TGT ID'
p2216
S''
sS'PERP INCIDENT CATEGORY'
p2217
S'STATESPONSORED VIOLENCE'
p2218
sS'PERP ORGANIZATION ID'
p2219
S'NICARAGUAN EMBASSY'
p2220
sS'HUM TGT TYPE'
p2221
S'POLITICAL FIGURE MANUEL ANTONIO RUGAMA'
p2222
sS'HUM TGT TOTAL NUMBER'
p2223
S''
sS'INCIDENT INSTRUMENT ID'
p2224
S''
sS'INCIDENT INSTRUMENT TYPE'
p2225
S'GUN'
p2226
sS'PHYS TGT FOREIGN NATION'
p2227
S''
sS'HUM TGT NUMBER'
p2228
S'1 MANUEL ANTONIO RUGAMA'
p2229
sS'PHYS TGT TYPE'
p2230
S''
sS'HUM TGT NAME'
p2231
S'MANUEL ANTONIO RUGAMA'
p2232
sS'INCIDENT TYPE'
p2233
S'ATTACK'
p2234
sS'PHYS TGT NUMBER'
p2235
S''
sS'PERP INDIVIDUAL ID'
p2236
S'JOSE JESUS PENA JOSE JESUS PENAALLEGED CHIEF OF SECURITY FOR THE NICARAGUAN EMBASSY IN TEGUCIGALPA'
p2237
sS'INCIDENT STAGE OF EXECUTION'
p2238
S'ACCOMPLISHED'
p2239
sS'HUM TGT DESCRIPTION'
p2240
S'CONTRA COMMANDER MANUEL ANTONIO RUGAMA'
p2241
sS'PHYS TGT EFFECT OF INCIDENT'
p2242
S''
sS'HUM TGT FOREIGN NATION'
p2243
S'NICARAGUA MANUEL ANTONIO RUGAMA'
p2244
sS'INCIDENT DATE'
p2245
S'07 JAN 89'
p2246
sS'MESSAGE TEMPLATE'
p2247
S'2'
sS'PHYS TGT TOTAL NUMBER'
p2248
S''
ssS'TST3-MUC4-0006'
p2249
(dp2250
S'PERP ORGANIZATION CONFIDENCE'
p2251
S''
sS'HUM TGT EFFECT OF INCIDENT'
p2252
S''
sS'INCIDENT LOCATION'
p2253
S'EL SALVADOR'
p2254
sS'PHYS TGT ID'
p2255
S''
sS'PERP INCIDENT CATEGORY'
p2256
S'STATESPONSORED VIOLENCE'
p2257
sS'PERP ORGANIZATION ID'
p2258
S''
sS'HUM TGT TYPE'
p2259
S'POLITICAL FIGURE HECTOR OQUELI'
p2260
sS'HUM TGT TOTAL NUMBER'
p2261
S''
sS'INCIDENT INSTRUMENT ID'
p2262
S''
sS'INCIDENT INSTRUMENT TYPE'
p2263
S''
sS'PHYS TGT FOREIGN NATION'
p2264
S''
sS'HUM TGT NUMBER'
p2265
S'1 HECTOR OQUELI'
p2266
sS'PHYS TGT TYPE'
p2267
S''
sS'HUM TGT NAME'
p2268
S'HECTOR OQUELI'
p2269
sS'INCIDENT TYPE'
p2270
S'ATTACK'
p2271
sS'PHYS TGT NUMBER'
p2272
S''
sS'PERP INDIVIDUAL ID'
p2273
S'SEVERAL PEOPLE PEOPLE SEVERAL PEOPLE WHO THROUGH A GOVERNMENT RADIO NETWORK HAD ACCUSED HIM OF BEING AN ACCOMPLICE OF THE REBELS PEOPLE WHO THROUGH A GOVERNMENT RADIO NETWORK HAD ACCUSED HIM OF BEING AN ACCOMPLICE OF THE REBELS'
p2274
sS'INCIDENT STAGE OF EXECUTION'
p2275
S'THREATENED'
p2276
sS'HUM TGT DESCRIPTION'
p2277
S'UNDERSECRETARY OF THE NATIONAL REVOLUTIONARY MOVEMENT MNR OF EL SALVADOR UNDERSECRETARY OF THE NATIONAL REVOLUTIONARY MOVEMENT MNR UNDERSECRETARY OF THE NATIONAL REVOLUTIONARY MOVEMENT HECTOR OQUELI'
p2278
sS'PHYS TGT EFFECT OF INCIDENT'
p2279
S''
sS'HUM TGT FOREIGN NATION'
p2280
S''
sS'INCIDENT DATE'
p2281
S'13 NOV 89'
p2282
sS'MESSAGE TEMPLATE'
p2283
S'2 OPTIONAL'
p2284
sS'PHYS TGT TOTAL NUMBER'
p2285
S''
ssS'TST3-MUC4-0001'
p2286
(dp2287
S'PERP ORGANIZATION CONFIDENCE'
p2288
S''
sS'HUM TGT EFFECT OF INCIDENT'
p2289
S'DEATH JESUIT PRIESTS'
p2290
sS'INCIDENT LOCATION'
p2291
S'EL SALVADOR'
p2292
sS'PHYS TGT ID'
p2293
S''
sS'PERP INCIDENT CATEGORY'
p2294
S''
sS'PERP ORGANIZATION ID'
p2295
S''
sS'HUM TGT TYPE'
p2296
S'CIVILIAN JESUIT PRIESTS'
p2297
sS'HUM TGT TOTAL NUMBER'
p2298
S''
sS'INCIDENT INSTRUMENT ID'
p2299
S''
sS'INCIDENT INSTRUMENT TYPE'
p2300
S''
sS'PHYS TGT FOREIGN NATION'
p2301
S''
sS'HUM TGT NUMBER'
p2302
S'PLURAL JESUIT PRIESTS'
p2303
sS'PHYS TGT TYPE'
p2304
S''
sS'HUM TGT NAME'
p2305
S''
sS'INCIDENT TYPE'
p2306
S'ATTACK'
p2307
sS'PHYS TGT NUMBER'
p2308
S''
sS'PERP INDIVIDUAL ID'
p2309
S''
sS'INCIDENT STAGE OF EXECUTION'
p2310
S'ACCOMPLISHED'
p2311
sS'HUM TGT DESCRIPTION'
p2312
S'JESUIT PRIESTS'
p2313
sS'PHYS TGT EFFECT OF INCIDENT'
p2314
S''
sS'HUM TGT FOREIGN NATION'
p2315
S''
sS'INCIDENT DATE'
p2316
S''
sS'MESSAGE TEMPLATE'
p2317
S'1'
sS'PHYS TGT TOTAL NUMBER'
p2318
S''
ssS'TST3-MUC4-0003'
p2319
(dp2320
S'PERP ORGANIZATION CONFIDENCE'
p2321
S'SUSPECTED OR ACCUSED SHINING PATH'
p2322
sS'HUM TGT EFFECT OF INCIDENT'
p2323
S'DEATH ENRIQUE LOPEZ ALBUJAR TRINT'
p2324
sS'INCIDENT LOCATION'
p2325
S'PERU LIMA CITY SAN ISIDRO NEIGHBORHOOD'
p2326
sS'PHYS TGT ID'
p2327
S''
sS'PERP INCIDENT CATEGORY'
p2328
S'TERRORIST ACT'
p2329
sS'PERP ORGANIZATION ID'
p2330
S'SHINING PATH'
p2331
sS'HUM TGT TYPE'
p2332
S'FORMER GOVERNMENT OFFICIAL FORMER ACTIVE MILITARY ENRIQUE LOPEZ ALBUJAR TRINT'
p2333
sS'HUM TGT TOTAL NUMBER'
p2334
S''
sS'INCIDENT INSTRUMENT ID'
p2335
S''
sS'INCIDENT INSTRUMENT TYPE'
p2336
S'GUN'
p2337
sS'PHYS TGT FOREIGN NATION'
p2338
S''
sS'HUM TGT NUMBER'
p2339
S'1 ENRIQUE LOPEZ ALBUJAR TRINT'
p2340
sS'PHYS TGT TYPE'
p2341
S''
sS'HUM TGT NAME'
p2342
S'ENRIQUE LOPEZ ALBUJAR TRINT'
p2343
sS'INCIDENT TYPE'
p2344
S'ATTACK'
p2345
sS'PHYS TGT NUMBER'
p2346
S''
sS'PERP INDIVIDUAL ID'
p2347
S'MEMBERS OF THE MAOIST TERRORIST ORGANIZATION SHINING PATH CRIMINALS'
p2348
sS'INCIDENT STAGE OF EXECUTION'
p2349
S'ACCOMPLISHED'
p2350
sS'HUM TGT DESCRIPTION'
p2351
S'FORMER DEFENSE MINISTER ENRIQUE LOPEZ ALBUJAR TRINT'
p2352
sS'PHYS TGT EFFECT OF INCIDENT'
p2353
S''
sS'HUM TGT FOREIGN NATION'
p2354
S''
sS'INCIDENT DATE'
p2355
S'09 JAN 90'
p2356
sS'MESSAGE TEMPLATE'
p2357
S'1'
sS'PHYS TGT TOTAL NUMBER'
p2358
S''
ssS'TST3-MUC4-0002'
p2359
(dp2360
S'PERP ORGANIZATION CONFIDENCE'
p2361
S'SUSPECTED OR ACCUSED BY AUTHORITIES ARMED FORCES'
p2362
sS'HUM TGT EFFECT OF INCIDENT'
p2363
S'DEATH JESUITS'
p2364
sS'INCIDENT LOCATION'
p2365
S'EL SALVADOR'
p2366
sS'PHYS TGT ID'
p2367
S''
sS'PERP INCIDENT CATEGORY'
p2368
S'STATESPONSORED VIOLENCE'
p2369
sS'PERP ORGANIZATION ID'
p2370
S'ARMED FORCES'
p2371
sS'HUM TGT TYPE'
p2372
S'CIVILIAN JESUITS'
p2373
sS'HUM TGT TOTAL NUMBER'
p2374
S''
sS'INCIDENT INSTRUMENT ID'
p2375
S''
sS'INCIDENT INSTRUMENT TYPE'
p2376
S''
sS'PHYS TGT FOREIGN NATION'
p2377
S''
sS'HUM TGT NUMBER'
p2378
S'6 JESUITS'
p2379
sS'PHYS TGT TYPE'
p2380
S''
sS'HUM TGT NAME'
p2381
S''
sS'INCIDENT TYPE'
p2382
S'ATTACK'
p2383
sS'PHYS TGT NUMBER'
p2384
S''
sS'MAIDS'
p2385
S''
sS'PERP INDIVIDUAL ID'
p2386
S'MILITARY MILITARY SUSPECTS SOME MILITARY ARMED FORCES MEMBERS'
p2387
sS'INCIDENT STAGE OF EXECUTION'
p2388
S'ACCOMPLISHED'
p2389
sS'HUM TGT DESCRIPTION'
p2390
S'JESUITS'
p2391
sS'PHYS TGT EFFECT OF INCIDENT'
p2392
S''
sS'HUM TGT FOREIGN NATION'
p2393
S''
sS'INCIDENT DATE'
p2394
S'16 NOV 89'
p2395
sS'MESSAGE TEMPLATE'
p2396
S'1'
sS'PHYS TGT TOTAL NUMBER'
p2397
S''
ssS'TST3-MUC4-0038'
p2398
(dp2399
S'PERP ORGANIZATION CONFIDENCE'
p2400
S''
sS'HUM TGT EFFECT OF INCIDENT'
p2401
S'DEATH LUIS CARLOS GALAN'
p2402
sS'INCIDENT LOCATION'
p2403
S'COLOMBIA'
p2404
sS'PHYS TGT ID'
p2405
S''
sS'PERP INCIDENT CATEGORY'
p2406
S''
sS'PERP ORGANIZATION ID'
p2407
S''
sS'HUM TGT TYPE'
p2408
S'CIVILIAN LUIS CARLOS GALAN'
p2409
sS'HUM TGT TOTAL NUMBER'
p2410
S''
sS'INCIDENT INSTRUMENT ID'
p2411
S''
sS'INCIDENT INSTRUMENT TYPE'
p2412
S''
sS'PHYS TGT FOREIGN NATION'
p2413
S''
sS'HUM TGT NUMBER'
p2414
S'1 LUIS CARLOS GALAN'
p2415
sS'PHYS TGT TYPE'
p2416
S''
sS'HUM TGT NAME'
p2417
S'LUIS CARLOS GALAN'
p2418
sS'INCIDENT TYPE'
p2419
S'ATTACK'
p2420
sS'PHYS TGT NUMBER'
p2421
S''
sS'PERP INDIVIDUAL ID'
p2422
S''
sS'INCIDENT STAGE OF EXECUTION'
p2423
S'ACCOMPLISHED'
p2424
sS'HUM TGT DESCRIPTION'
p2425
S''
sS'PHYS TGT EFFECT OF INCIDENT'
p2426
S''
sS'HUM TGT FOREIGN NATION'
p2427
S''
sS'INCIDENT DATE'
p2428
S'13 SEP 89'
p2429
sS'MESSAGE TEMPLATE'
p2430
S'3'
sS'PHYS TGT TOTAL NUMBER'
p2431
S''
ssS'TST3-MUC4-0039'
p2432
(dp2433
S'PERP ORGANIZATION CONFIDENCE'
p2434
S''
sS'HUM TGT EFFECT OF INCIDENT'
p2435
S''
sS'INCIDENT LOCATION'
p2436
S''
sS'PHYS TGT ID'
p2437
S''
sS'PERP INCIDENT CATEGORY'
p2438
S''
sS'PERP ORGANIZATION ID'
p2439
S''
sS'HUM TGT TYPE'
p2440
S''
sS'HUM TGT TOTAL NUMBER'
p2441
S''
sS'INCIDENT INSTRUMENT ID'
p2442
S''
sS'INCIDENT INSTRUMENT TYPE'
p2443
S''
sS'PHYS TGT FOREIGN NATION'
p2444
S''
sS'HUM TGT NUMBER'
p2445
S''
sS'PHYS TGT TYPE'
p2446
S''
sS'HUM TGT NAME'
p2447
S''
sS'INCIDENT TYPE'
p2448
S''
sS'PHYS TGT NUMBER'
p2449
S''
sS'PERP INDIVIDUAL ID'
p2450
S''
sS'INCIDENT STAGE OF EXECUTION'
p2451
S''
sS'HUM TGT DESCRIPTION'
p2452
S''
sS'PHYS TGT EFFECT OF INCIDENT'
p2453
S''
sS'HUM TGT FOREIGN NATION'
p2454
S''
sS'INCIDENT DATE'
p2455
S''
sS'MESSAGE TEMPLATE'
p2456
S''
sS'PHYS TGT TOTAL NUMBER'
p2457
S''
ssS'TST3-MUC4-0030'
p2458
(dp2459
S'PERP ORGANIZATION CONFIDENCE'
p2460
S''
sS'HUM TGT EFFECT OF INCIDENT'
p2461
S'DEATH GOVERNOR OF ANTIOQUIA GOVERNOR'
p2462
sS'INCIDENT LOCATION'
p2463
S'COLOMBIA MEDELLIN CITY COLOMBIA'
p2464
sS'PHYS TGT ID'
p2465
S''
sS'PERP INCIDENT CATEGORY'
p2466
S''
sS'PERP ORGANIZATION ID'
p2467
S''
sS'HUM TGT TYPE'
p2468
S'GOVERNMENT OFFICIAL GOVERNOR OF ANTIOQUIA GOVERNOR'
p2469
sS'HUM TGT TOTAL NUMBER'
p2470
S''
sS'INCIDENT INSTRUMENT ID'
p2471
S''
sS'INCIDENT INSTRUMENT TYPE'
p2472
S''
sS'PHYS TGT FOREIGN NATION'
p2473
S''
sS'HUM TGT NUMBER'
p2474
S'1 GOVERNOR OF ANTIOQUIA GOVERNOR'
p2475
sS'PHYS TGT TYPE'
p2476
S''
sS'HUM TGT NAME'
p2477
S''
sS'INCIDENT TYPE'
p2478
S'ATTACK'
p2479
sS'PHYS TGT NUMBER'
p2480
S''
sS'PERP INDIVIDUAL ID'
p2481
S''
sS'INCIDENT STAGE OF EXECUTION'
p2482
S'ACCOMPLISHED'
p2483
sS'HUM TGT DESCRIPTION'
p2484
S'GOVERNOR OF ANTIOQUIA GOVERNOR'
p2485
sS'PHYS TGT EFFECT OF INCIDENT'
p2486
S''
sS'HUM TGT FOREIGN NATION'
p2487
S''
sS'INCIDENT DATE'
p2488
S'16 AUG 89'
p2489
sS'MESSAGE TEMPLATE'
p2490
S'6'
sS'PHYS TGT TOTAL NUMBER'
p2491
S''
ssS'TST3-MUC4-0031'
p2492
(dp2493
S'PERP ORGANIZATION CONFIDENCE'
p2494
S''
sS'HUM TGT EFFECT OF INCIDENT'
p2495
S'DEATH CARLOS VALENCIA'
p2496
sS'INCIDENT LOCATION'
p2497
S'COLOMBIA BOGOTA CITY COLOMBIA'
p2498
sS'PHYS TGT ID'
p2499
S''
sS'PERP INCIDENT CATEGORY'
p2500
S'TERRORIST ACT'
p2501
sS'PERP ORGANIZATION ID'
p2502
S''
sS'HUM TGT TYPE'
p2503
S'LEGAL OR JUDICIAL CARLOS VALENCIA'
p2504
sS'HUM TGT TOTAL NUMBER'
p2505
S''
sS'INCIDENT INSTRUMENT ID'
p2506
S''
sS'INCIDENT INSTRUMENT TYPE'
p2507
S''
sS'PHYS TGT FOREIGN NATION'
p2508
S''
sS'HUM TGT NUMBER'
p2509
S'1 CARLOS VALENCIA'
p2510
sS'PHYS TGT TYPE'
p2511
S''
sS'HUM TGT NAME'
p2512
S'CARLOS VALENCIA'
p2513
sS'INCIDENT TYPE'
p2514
S'ATTACK'
p2515
sS'PHYS TGT NUMBER'
p2516
S''
sS'PERP INDIVIDUAL ID'
p2517
S'DRUG TRAFFICKERS COLOMBIAN DRUG MAFIA DRUG MAFIA'
p2518
sS'INCIDENT STAGE OF EXECUTION'
p2519
S'ACCOMPLISHED'
p2520
sS'HUM TGT DESCRIPTION'
p2521
S'JUDGE CARLOS VALENCIA'
p2522
sS'PHYS TGT EFFECT OF INCIDENT'
p2523
S''
sS'HUM TGT FOREIGN NATION'
p2524
S''
sS'INCIDENT DATE'
p2525
S'18 AUG 89'
p2526
sS'MESSAGE TEMPLATE'
p2527
S'1'
sS'PHYS TGT TOTAL NUMBER'
p2528
S''
ssS'TST3-MUC4-0032'
p2529
(dp2530
S'PERP ORGANIZATION CONFIDENCE'
p2531
S'SUSPECTED OR ACCUSED SUSPECTED OR ACCUSED BY AUTHORITIES MEDELLIN CARTEL'
p2532
sS'HUM TGT EFFECT OF INCIDENT'
p2533
S'DEATH LUIS CARLOS GALAN'
p2534
sS'INCIDENT LOCATION'
p2535
S'COLOMBIA'
p2536
sS'PHYS TGT ID'
p2537
S''
sS'PERP INCIDENT CATEGORY'
p2538
S'TERRORIST ACT'
p2539
sS'PERP ORGANIZATION ID'
p2540
S'MEDELLIN CARTEL'
p2541
sS'HUM TGT TYPE'
p2542
S'GOVERNMENT OFFICIAL POLITICAL FIGURE LUIS CARLOS GALAN'
p2543
sS'HUM TGT TOTAL NUMBER'
p2544
S''
sS'INCIDENT INSTRUMENT ID'
p2545
S''
sS'INCIDENT INSTRUMENT TYPE'
p2546
S''
sS'PHYS TGT FOREIGN NATION'
p2547
S''
sS'HUM TGT NUMBER'
p2548
S'1 LUIS CARLOS GALAN'
p2549
sS'PHYS TGT TYPE'
p2550
S''
sS'HUM TGT NAME'
p2551
S'LUIS CARLOS GALAN'
p2552
sS'INCIDENT TYPE'
p2553
S'ATTACK'
p2554
sS'PHYS TGT NUMBER'
p2555
S''
sS'PERP INDIVIDUAL ID'
p2556
S'JUBIZ HAZVUMB'
p2557
sS'INCIDENT STAGE OF EXECUTION'
p2558
S'ACCOMPLISHED'
p2559
sS'HUM TGT DESCRIPTION'
p2560
S'SENATOR AND PRESIDENTIAL CANDIDATE SENATOR PRESIDENTIAL CANDIDATE LUIS CARLOS GALAN'
p2561
sS'PHYS TGT EFFECT OF INCIDENT'
p2562
S''
sS'HUM TGT FOREIGN NATION'
p2563
S''
sS'INCIDENT DATE'
p2564
S'22 AUG 89'
p2565
sS'JUDGE'
p2566
S''
sS'MESSAGE TEMPLATE'
p2567
S'1'
sS'PHYS TGT TOTAL NUMBER'
p2568
S''
ssS'TST3-MUC4-0033'
p2569
(dp2570
S'PERP ORGANIZATION CONFIDENCE'
p2571
S'REPORTED AS FACT FMLN'
p2572
sS'HUM TGT EFFECT OF INCIDENT'
p2573
S''
sS'INCIDENT LOCATION'
p2574
S'EL SALVADOR CHALATENANGO DEPARTMENT NUEVA CONCEPCION CITY EL SALVADOR NUEVA CONCEPCION CITY'
p2575
sS'PHYS TGT ID'
p2576
S'POWER LINES'
p2577
sS'PERP INCIDENT CATEGORY'
p2578
S'TERRORIST ACT'
p2579
sS'PERP ORGANIZATION ID'
p2580
S'FMLN'
p2581
sS'HUM TGT TYPE'
p2582
S''
sS'HUM TGT TOTAL NUMBER'
p2583
S''
sS'INCIDENT INSTRUMENT ID'
p2584
S''
sS'INCIDENT INSTRUMENT TYPE'
p2585
S''
sS'PHYS TGT FOREIGN NATION'
p2586
S''
sS'HUM TGT NUMBER'
p2587
S''
sS'PHYS TGT TYPE'
p2588
S'ENERGY POWER LINES'
p2589
sS'HUM TGT NAME'
p2590
S''
sS'INCIDENT TYPE'
p2591
S'ATTACK'
p2592
sS'PHYS TGT NUMBER'
p2593
S'PLURAL POWER LINES'
p2594
sS'PERP INDIVIDUAL ID'
p2595
S'FMLN MILITIAS MILITIAS'
p2596
sS'INCIDENT STAGE OF EXECUTION'
p2597
S'ACCOMPLISHED'
p2598
sS'HUM TGT DESCRIPTION'
p2599
S''
sS'PHYS TGT EFFECT OF INCIDENT'
p2600
S''
sS'HUM TGT FOREIGN NATION'
p2601
S''
sS'INCIDENT DATE'
p2602
S'12 AUG 00'
p2603
sS'MESSAGE TEMPLATE'
p2604
S'1'
sS'PHYS TGT TOTAL NUMBER'
p2605
S''
ssS'TST3-MUC4-0034'
p2606
(dp2607
S'PERP ORGANIZATION CONFIDENCE'
p2608
S''
sS'HUM TGT EFFECT OF INCIDENT'
p2609
S'DEATH LUIS CARLOS GALAN'
p2610
sS'INCIDENT LOCATION'
p2611
S'COLOMBIA BOGOTA CITY'
p2612
sS'PHYS TGT ID'
p2613
S''
sS'PERP INCIDENT CATEGORY'
p2614
S''
sS'PERP ORGANIZATION ID'
p2615
S''
sS'HUM TGT TYPE'
p2616
S'GOVERNMENT OFFICIAL POLITICAL FIGURE LUIS CARLOS GALAN'
p2617
sS'HUM TGT TOTAL NUMBER'
p2618
S''
sS'INCIDENT INSTRUMENT ID'
p2619
S''
sS'INCIDENT INSTRUMENT TYPE'
p2620
S''
sS'PHYS TGT FOREIGN NATION'
p2621
S''
sS'HUM TGT NUMBER'
p2622
S'1 LUIS CARLOS GALAN'
p2623
sS'PHYS TGT TYPE'
p2624
S''
sS'HUM TGT NAME'
p2625
S'LUIS CARLOS GALAN'
p2626
sS'INCIDENT TYPE'
p2627
S'ATTACK'
p2628
sS'PHYS TGT NUMBER'
p2629
S''
sS'PERP INDIVIDUAL ID'
p2630
S'PERSON OF ARAB ORIGIN'
p2631
sS'INCIDENT STAGE OF EXECUTION'
p2632
S'ACCOMPLISHED'
p2633
sS'HUM TGT DESCRIPTION'
p2634
S'SENATOR AND LIBERAL PARTY PRESIDENTIAL CANDIDATE SENATOR LIBERAL PARTY PRESIDENTIAL CANDIDATE LUIS CARLOS GALAN'
p2635
sS'PHYS TGT EFFECT OF INCIDENT'
p2636
S''
sS'HUM TGT FOREIGN NATION'
p2637
S''
sS'INCIDENT DATE'
p2638
S'18 AUG 89'
p2639
sS'MESSAGE TEMPLATE'
p2640
S'1'
sS'PHYS TGT TOTAL NUMBER'
p2641
S''
ssS'TST3-MUC4-0035'
p2642
(dp2643
S'PERP ORGANIZATION CONFIDENCE'
p2644
S''
sS'HUM TGT EFFECT OF INCIDENT'
p2645
S''
sS'INCIDENT LOCATION'
p2646
S''
sS'PHYS TGT ID'
p2647
S''
sS'PERP INCIDENT CATEGORY'
p2648
S''
sS'PERP ORGANIZATION ID'
p2649
S''
sS'HUM TGT TYPE'
p2650
S''
sS'HUM TGT TOTAL NUMBER'
p2651
S''
sS'INCIDENT INSTRUMENT ID'
p2652
S''
sS'INCIDENT INSTRUMENT TYPE'
p2653
S''
sS'PHYS TGT FOREIGN NATION'
p2654
S''
sS'HUM TGT NUMBER'
p2655
S''
sS'PHYS TGT TYPE'
p2656
S''
sS'HUM TGT NAME'
p2657
S''
sS'INCIDENT TYPE'
p2658
S''
sS'PHYS TGT NUMBER'
p2659
S''
sS'PERP INDIVIDUAL ID'
p2660
S''
sS'INCIDENT STAGE OF EXECUTION'
p2661
S''
sS'HUM TGT DESCRIPTION'
p2662
S''
sS'PHYS TGT EFFECT OF INCIDENT'
p2663
S''
sS'HUM TGT FOREIGN NATION'
p2664
S''
sS'INCIDENT DATE'
p2665
S''
sS'MESSAGE TEMPLATE'
p2666
S''
sS'PHYS TGT TOTAL NUMBER'
p2667
S''
ssS'TST3-MUC4-0036'
p2668
(dp2669
S'PERP ORGANIZATION CONFIDENCE'
p2670
S''
sS'HUM TGT EFFECT OF INCIDENT'
p2671
S'DEATH PERSONS'
p2672
sS'INCIDENT LOCATION'
p2673
S'COLOMBIA ANTIOQUIA DEPARTMENT RIO NEGRO TOWN JOSE MARIA CORDOBA AIRPORT COLOMBIA ANTIOQUIA DEPARTMENT SAN NICOLAS VALLEY RIO NEGRO TOWN JOSE MARIA CORDOBA AIRPORT AIRPORT COLOMBIA ANTIOQUIA DEPARTMENT RIO NEGRO TOWN SAN NICOLAS VALLEY JOSE MARIA CORDOBA AIRPORT AIRPORT'
p2674
sS'PHYS TGT ID'
p2675
S'INSTALLATIONS OF THE JOSE MARIA CORDOBA AIRPORT AIRPORT INSTALLATIONS'
p2676
sS'PERP INCIDENT CATEGORY'
p2677
S''
sS'PERP ORGANIZATION ID'
p2678
S''
sS'HUM TGT TYPE'
p2679
S'CIVILIAN PERSONS'
p2680
sS'HUM TGT TOTAL NUMBER'
p2681
S'3'
sS'INCIDENT INSTRUMENT ID'
p2682
S''
sS'INCIDENT INSTRUMENT TYPE'
p2683
S'GUN'
p2684
sS'PHYS TGT FOREIGN NATION'
p2685
S''
sS'HUM TGT NUMBER'
p2686
S'3 PERSONS'
p2687
sS'PHYS TGT TYPE'
p2688
S'TRANSPORTATION FACILITY INSTALLATIONS OF THE JOSE MARIA CORDOBA AIRPORT AIRPORT INSTALLATIONS'
p2689
sS'HUM TGT NAME'
p2690
S''
sS'INCIDENT TYPE'
p2691
S'ATTACK'
p2692
sS'PHYS TGT NUMBER'
p2693
S'PLURAL INSTALLATIONS OF THE JOSE MARIA CORDOBA AIRPORT AIRPORT INSTALLATIONS'
p2694
sS'ONE OF THOSE KILLED ONE OF'
p2695
S'THE PERSONS KILLED ONE OF THE PERSONS'
p2696
sS'PERP INDIVIDUAL ID'
p2697
S''
sS'INCIDENT STAGE OF EXECUTION'
p2698
S'ACCOMPLISHED'
p2699
sS'HUM TGT DESCRIPTION'
p2700
S'PERSONS'
p2701
sS'PHYS TGT EFFECT OF INCIDENT'
p2702
S''
sS'HUM TGT FOREIGN NATION'
p2703
S''
sS'INCIDENT DATE'
p2704
S'04 SEP 89'
p2705
sS'MESSAGE TEMPLATE'
p2706
S'1'
sS'PHYS TGT TOTAL NUMBER'
p2707
S''
ssS'TST3-MUC4-0037'
p2708
(dp2709
S'PERP ORGANIZATION CONFIDENCE'
p2710
S''
sS'HUM TGT EFFECT OF INCIDENT'
p2711
S'INJURY PERSON'
p2712
sS'INCIDENT LOCATION'
p2713
S'COLOMBIA MEDELLIN CITY ARANJUEZ SECTOR'
p2714
sS'PHYS TGT ID'
p2715
S'AGRARIAN BOARD BRANCH AGRARIAN BOARD'
p2716
sS'PERP INCIDENT CATEGORY'
p2717
S'TERRORIST ACT'
p2718
sS'PERP ORGANIZATION ID'
p2719
S''
sS'HUM TGT TYPE'
p2720
S'CIVILIAN PERSON'
p2721
sS'HUM TGT TOTAL NUMBER'
p2722
S''
sS'INCIDENT INSTRUMENT ID'
p2723
S'BOMB'
p2724
sS'INCIDENT INSTRUMENT TYPE'
p2725
S'BOMB BOMB'
p2726
sS'PHYS TGT FOREIGN NATION'
p2727
S''
sS'HUM TGT NUMBER'
p2728
S'1 PERSON'
p2729
sS'PHYS TGT TYPE'
p2730
S'FINANCIAL AGRARIAN BOARD BRANCH AGRARIAN BOARD'
p2731
sS'HUM TGT NAME'
p2732
S''
sS'INCIDENT TYPE'
p2733
S'BOMBING'
p2734
sS'PHYS TGT NUMBER'
p2735
S'1 AGRARIAN BOARD BRANCH AGRARIAN BOARD'
p2736
sS'PERP INDIVIDUAL ID'
p2737
S'DRUG TRAFFICKERS'
p2738
sS'INCIDENT STAGE OF EXECUTION'
p2739
S'ACCOMPLISHED'
p2740
sS'HUM TGT DESCRIPTION'
p2741
S'PERSON'
p2742
sS'PHYS TGT EFFECT OF INCIDENT'
p2743
S'SOME DAMAGE AGRARIAN BOARD BRANCH AGRARIAN BOARD'
p2744
sS'HUM TGT FOREIGN NATION'
p2745
S''
sS'INCIDENT DATE'
p2746
S'04 SEP 89'
p2747
sS'MESSAGE TEMPLATE'
p2748
S'2'
sS'PHYS TGT TOTAL NUMBER'
p2749
S''
ssS'TST3-MUC4-0027'
p2750
(dp2751
S'PERP ORGANIZATION CONFIDENCE'
p2752
S''
sS'HUM TGT EFFECT OF INCIDENT'
p2753
S'DEATH DANILO BARILLAS'
p2754
sS'INCIDENT LOCATION'
p2755
S'GUATEMALA GUATEMALA CITY CITY'
p2756
sS'PHYS TGT ID'
p2757
S''
sS'PERP INCIDENT CATEGORY'
p2758
S''
sS'PERP ORGANIZATION ID'
p2759
S''
sS'HUM TGT TYPE'
p2760
S'POLITICAL FIGURE GOVERNMENT OFFICIAL DANILO BARILLAS'
p2761
sS'HUM TGT TOTAL NUMBER'
p2762
S''
sS'INCIDENT INSTRUMENT ID'
p2763
S'MACHINEGUN'
p2764
sS'INCIDENT INSTRUMENT TYPE'
p2765
S'MACHINE GUN MACHINEGUN'
p2766
sS'PHYS TGT FOREIGN NATION'
p2767
S''
sS'HUM TGT NUMBER'
p2768
S'1 DANILO BARILLAS'
p2769
sS'PHYS TGT TYPE'
p2770
S''
sS'HUM TGT NAME'
p2771
S'DANILO BARILLAS'
p2772
sS'INCIDENT TYPE'
p2773
S'ATTACK'
p2774
sS'PHYS TGT NUMBER'
p2775
S''
sS'PERP INDIVIDUAL ID'
p2776
S'GROUP OF UNIDENTIFIED INDIVIDUALS UNIDENTIFIED INDIVIDUALS'
p2777
sS'INCIDENT STAGE OF EXECUTION'
p2778
S'ACCOMPLISHED'
p2779
sS'HUM TGT DESCRIPTION'
p2780
S'FORMER GUATEMALAN AMBASSADOR TO SPAIN AND LEADER OF THE RULING CHRISTIAN DEMOCRATIC PARTY PDC FORMER GUATEMALAN AMBASSADOR TO SPAIN LEADER OF THE RULING CHRISTIAN DEMOCRATIC PARTY PDC LEADER OF THE RULING CHRISTIAN DEMOCRATIC PARTY DANILO BARILLAS'
p2781
sS'PHYS TGT EFFECT OF INCIDENT'
p2782
S''
sS'HUM TGT FOREIGN NATION'
p2783
S''
sS'INCIDENT DATE'
p2784
S'01 AUG 89'
p2785
sS'MESSAGE TEMPLATE'
p2786
S'1'
sS'PHYS TGT TOTAL NUMBER'
p2787
S''
ssS'TST3-MUC4-0026'
p2788
(dp2789
S'PERP ORGANIZATION CONFIDENCE'
p2790
S''
sS'HUM TGT EFFECT OF INCIDENT'
p2791
S''
sS'INCIDENT LOCATION'
p2792
S''
sS'PHYS TGT ID'
p2793
S''
sS'PERP INCIDENT CATEGORY'
p2794
S''
sS'PERP ORGANIZATION ID'
p2795
S''
sS'HUM TGT TYPE'
p2796
S''
sS'HUM TGT TOTAL NUMBER'
p2797
S''
sS'INCIDENT INSTRUMENT ID'
p2798
S''
sS'INCIDENT INSTRUMENT TYPE'
p2799
S''
sS'PHYS TGT FOREIGN NATION'
p2800
S''
sS'HUM TGT NUMBER'
p2801
S''
sS'PHYS TGT TYPE'
p2802
S''
sS'HUM TGT NAME'
p2803
S''
sS'INCIDENT TYPE'
p2804
S''
sS'PHYS TGT NUMBER'
p2805
S''
sS'PERP INDIVIDUAL ID'
p2806
S''
sS'INCIDENT STAGE OF EXECUTION'
p2807
S''
sS'HUM TGT DESCRIPTION'
p2808
S''
sS'PHYS TGT EFFECT OF INCIDENT'
p2809
S''
sS'HUM TGT FOREIGN NATION'
p2810
S''
sS'INCIDENT DATE'
p2811
S''
sS'MESSAGE TEMPLATE'
p2812
S''
sS'PHYS TGT TOTAL NUMBER'
p2813
S''
ssS'TST3-MUC4-0025'
p2814
(dp2815
S'PERP ORGANIZATION CONFIDENCE'
p2816
S''
sS'HUM TGT EFFECT OF INCIDENT'
p2817
S''
sS'INCIDENT LOCATION'
p2818
S''
sS'PHYS TGT ID'
p2819
S''
sS'PERP INCIDENT CATEGORY'
p2820
S''
sS'PERP ORGANIZATION ID'
p2821
S''
sS'HUM TGT TYPE'
p2822
S''
sS'HUM TGT TOTAL NUMBER'
p2823
S''
sS'INCIDENT INSTRUMENT ID'
p2824
S''
sS'INCIDENT INSTRUMENT TYPE'
p2825
S''
sS'PHYS TGT FOREIGN NATION'
p2826
S''
sS'HUM TGT NUMBER'
p2827
S''
sS'PHYS TGT TYPE'
p2828
S''
sS'HUM TGT NAME'
p2829
S''
sS'INCIDENT TYPE'
p2830
S''
sS'PHYS TGT NUMBER'
p2831
S''
sS'PERP INDIVIDUAL ID'
p2832
S''
sS'INCIDENT STAGE OF EXECUTION'
p2833
S''
sS'HUM TGT DESCRIPTION'
p2834
S''
sS'PHYS TGT EFFECT OF INCIDENT'
p2835
S''
sS'HUM TGT FOREIGN NATION'
p2836
S''
sS'INCIDENT DATE'
p2837
S''
sS'MESSAGE TEMPLATE'
p2838
S''
sS'PHYS TGT TOTAL NUMBER'
p2839
S''
ssS'TST3-MUC4-0024'
p2840
(dp2841
S'PERP ORGANIZATION CONFIDENCE'
p2842
S''
sS'HUM TGT EFFECT OF INCIDENT'
p2843
S''
sS'INCIDENT LOCATION'
p2844
S'COLOMBIA ARAUQUITA JURISDICTION CANO LIMON CITY COVENAS CITY'
p2845
sS'PHYS TGT ID'
p2846
S'CANO LIMONCOVENAS OIL PIPELINE OIL PIPELINE PIPELINE'
p2847
sS'PERP INCIDENT CATEGORY'
p2848
S'TERRORIST ACT'
p2849
sS'PERP ORGANIZATION ID'
p2850
S''
sS'HUM TGT TYPE'
p2851
S''
sS'HUM TGT TOTAL NUMBER'
p2852
S''
sS'INCIDENT INSTRUMENT ID'
p2853
S''
sS'INCIDENT INSTRUMENT TYPE'
p2854
S'DYNAMITE'
p2855
sS'PHYS TGT FOREIGN NATION'
p2856
S''
sS'HUM TGT NUMBER'
p2857
S''
sS'PHYS TGT TYPE'
p2858
S'ENERGY CANO LIMONCOVENAS OIL PIPELINE OIL PIPELINE PIPELINE'
p2859
sS'HUM TGT NAME'
p2860
S''
sS'INCIDENT TYPE'
p2861
S'BOMBING'
p2862
sS'PHYS TGT NUMBER'
p2863
S'1 CANO LIMONCOVENAS OIL PIPELINE OIL PIPELINE PIPELINE'
p2864
sS'PERP INDIVIDUAL ID'
p2865
S''
sS'INCIDENT STAGE OF EXECUTION'
p2866
S'ACCOMPLISHED'
p2867
sS'HUM TGT DESCRIPTION'
p2868
S''
sS'PHYS TGT EFFECT OF INCIDENT'
p2869
S'SOME DAMAGE CANO LIMONCOVENAS OIL PIPELINE OIL PIPELINE PIPELINE'
p2870
sS'HUM TGT FOREIGN NATION'
p2871
S''
sS'INCIDENT DATE'
p2872
S'12 JUL 89'
p2873
sS'MESSAGE TEMPLATE'
p2874
S'4'
sS'PHYS TGT TOTAL NUMBER'
p2875
S''
ssS'TST3-MUC4-0023'
p2876
(dp2877
S'PERP ORGANIZATION CONFIDENCE'
p2878
S''
sS'HUM TGT EFFECT OF INCIDENT'
p2879
S'DEATH ANTONIO ROLDAN BETANCUR'
p2880
sS'INCIDENT LOCATION'
p2881
S'COLOMBIA'
p2882
sS'PHYS TGT ID'
p2883
S''
sS'PERP INCIDENT CATEGORY'
p2884
S'TERRORIST ACT'
p2885
sS'PERP ORGANIZATION ID'
p2886
S''
sS'HUM TGT TYPE'
p2887
S'GOVERNMENT OFFICIAL ANTONIO ROLDAN BETANCUR'
p2888
sS'HUM TGT TOTAL NUMBER'
p2889
S''
sS'INCIDENT INSTRUMENT ID'
p2890
S''
sS'INCIDENT INSTRUMENT TYPE'
p2891
S''
sS'PHYS TGT FOREIGN NATION'
p2892
S''
sS'HUM TGT NUMBER'
p2893
S'1 ANTONIO ROLDAN BETANCUR'
p2894
sS'PHYS TGT TYPE'
p2895
S''
sS'HUM TGT NAME'
p2896
S'ANTONIO ROLDAN BETANCUR'
p2897
sS'INCIDENT TYPE'
p2898
S'ATTACK'
p2899
sS'PHYS TGT NUMBER'
p2900
S''
sS'PERP INDIVIDUAL ID'
p2901
S'NARCOTICS MAFIA'
p2902
sS'INCIDENT STAGE OF EXECUTION'
p2903
S'ACCOMPLISHED'
p2904
sS'HUM TGT DESCRIPTION'
p2905
S'GOVERNOR OF THE DEPARTMENT OF ANTIOQUIA GOVERNOR ANTONIO ROLDAN BETANCUR'
p2906
sS'PHYS TGT EFFECT OF INCIDENT'
p2907
S''
sS'HUM TGT FOREIGN NATION'
p2908
S''
sS'INCIDENT DATE'
p2909
S'12 JUL 89'
p2910
sS'MESSAGE TEMPLATE'
p2911
S'1'
sS'PHYS TGT TOTAL NUMBER'
p2912
S''
ssS'TST3-MUC4-0022'
p2913
(dp2914
S'PERP ORGANIZATION CONFIDENCE'
p2915
S'SUSPECTED OR ACCUSED SHINING PATH'
p2916
sS'HUM TGT EFFECT OF INCIDENT'
p2917
S'DEATH DOLORES HINOSTROZA'
p2918
sS'INCIDENT LOCATION'
p2919
S'PERU MULQUI DISTRICT PERU HUANCAYO CITY PERU'
p2920
sS'PHYS TGT ID'
p2921
S''
sS'PERP INCIDENT CATEGORY'
p2922
S'TERRORIST ACT'
p2923
sS'PERP ORGANIZATION ID'
p2924
S'SHINING PATH'
p2925
sS'HUM TGT TYPE'
p2926
S'GOVERNMENT OFFICIAL DOLORES HINOSTROZA'
p2927
sS'HUM TGT TOTAL NUMBER'
p2928
S''
sS'INCIDENT INSTRUMENT ID'
p2929
S''
sS'INCIDENT INSTRUMENT TYPE'
p2930
S'GUN'
p2931
sS'PHYS TGT FOREIGN NATION'
p2932
S''
sS'HUM TGT NUMBER'
p2933
S'1 DOLORES HINOSTROZA'
p2934
sS'PHYS TGT TYPE'
p2935
S''
sS'HUM TGT NAME'
p2936
S'DOLORES HINOSTROZA'
p2937
sS'INCIDENT TYPE'
p2938
S'ATTACK'
p2939
sS'PHYS TGT NUMBER'
p2940
S''
sS'PERP INDIVIDUAL ID'
p2941
S'FOUR HOODED INDIVIDUALS HOODED INDIVIDUALS'
p2942
sS'INCIDENT STAGE OF EXECUTION'
p2943
S'ACCOMPLISHED'
p2944
sS'HUM TGT DESCRIPTION'
p2945
S'MAYOR OF MULQUI DISTRICT MAYOR WOMAN MAYOR DOLORES HINOSTROZA'
p2946
sS'PHYS TGT EFFECT OF INCIDENT'
p2947
S''
sS'HUM TGT FOREIGN NATION'
p2948
S''
sS'INCIDENT DATE'
p2949
S'30 JUN 89'
p2950
sS'MESSAGE TEMPLATE'
p2951
S'1'
sS'PHYS TGT TOTAL NUMBER'
p2952
S''
ssS'TST3-MUC4-0021'
p2953
(dp2954
S'PERP ORGANIZATION CONFIDENCE'
p2955
S''
sS'HUM TGT EFFECT OF INCIDENT'
p2956
S''
sS'INCIDENT LOCATION'
p2957
S''
sS'PHYS TGT ID'
p2958
S''
sS'PERP INCIDENT CATEGORY'
p2959
S''
sS'PERP ORGANIZATION ID'
p2960
S''
sS'HUM TGT TYPE'
p2961
S''
sS'HUM TGT TOTAL NUMBER'
p2962
S''
sS'INCIDENT INSTRUMENT ID'
p2963
S''
sS'INCIDENT INSTRUMENT TYPE'
p2964
S''
sS'PHYS TGT FOREIGN NATION'
p2965
S''
sS'HUM TGT NUMBER'
p2966
S''
sS'PHYS TGT TYPE'
p2967
S''
sS'HUM TGT NAME'
p2968
S''
sS'INCIDENT TYPE'
p2969
S''
sS'PHYS TGT NUMBER'
p2970
S''
sS'PERP INDIVIDUAL ID'
p2971
S''
sS'INCIDENT STAGE OF EXECUTION'
p2972
S''
sS'HUM TGT DESCRIPTION'
p2973
S''
sS'PHYS TGT EFFECT OF INCIDENT'
p2974
S''
sS'HUM TGT FOREIGN NATION'
p2975
S''
sS'INCIDENT DATE'
p2976
S''
sS'MESSAGE TEMPLATE'
p2977
S''
sS'PHYS TGT TOTAL NUMBER'
p2978
S''
ssS'TST3-MUC4-0020'
p2979
(dp2980
S'PERP ORGANIZATION CONFIDENCE'
p2981
S''
sS'HUM TGT EFFECT OF INCIDENT'
p2982
S'DEATH YOUNG US CITIZENS US CITIZENS CITIZENS'
p2983
sS'INCIDENT LOCATION'
p2984
S'BOLIVIA LA PAZ DEPARTMENT'
p2985
sS'PHYS TGT ID'
p2986
S''
sS'PERP INCIDENT CATEGORY'
p2987
S''
sS'PERP ORGANIZATION ID'
p2988
S''
sS'HUM TGT TYPE'
p2989
S'CIVILIAN YOUNG US CITIZENS US CITIZENS CITIZENS'
p2990
sS'HUM TGT TOTAL NUMBER'
p2991
S''
sS'INCIDENT INSTRUMENT ID'
p2992
S''
sS'INCIDENT INSTRUMENT TYPE'
p2993
S''
sS'PHYS TGT FOREIGN NATION'
p2994
S''
sS'HUM TGT NUMBER'
p2995
S'2 YOUNG US CITIZENS US CITIZENS CITIZENS'
p2996
sS'PHYS TGT TYPE'
p2997
S''
sS'HUM TGT NAME'
p2998
S''
sS'INCIDENT TYPE'
p2999
S'ATTACK'
p3000
sS'PHYS TGT NUMBER'
p3001
S''
sS'PERP INDIVIDUAL ID'
p3002
S'FOUR PERUVIANS SUSPECTS PERUVIANS SUSPECTS FOUR PERUVIANS PERUVIANS'
p3003
sS'INCIDENT STAGE OF EXECUTION'
p3004
S'ACCOMPLISHED'
p3005
sS'HUM TGT DESCRIPTION'
p3006
S'YOUNG US CITIZENS US CITIZENS CITIZENS'
p3007
sS'PHYS TGT EFFECT OF INCIDENT'
p3008
S''
sS'HUM TGT FOREIGN NATION'
p3009
S'UNITED STATES YOUNG US CITIZENS US CITIZENS CITIZENS'
p3010
sS'INCIDENT DATE'
p3011
S'30 MAY 89'
p3012
sS'MESSAGE TEMPLATE'
p3013
S'1'
sS'PHYS TGT TOTAL NUMBER'
p3014
S''
ssS'TST3-MUC4-0029'
p3015
(dp3016
S'PERP ORGANIZATION CONFIDENCE'
p3017
S''
sS'HUM TGT EFFECT OF INCIDENT'
p3018
S''
sS'INCIDENT LOCATION'
p3019
S''
sS'PHYS TGT ID'
p3020
S''
sS'PERP INCIDENT CATEGORY'
p3021
S''
sS'PERP ORGANIZATION ID'
p3022
S''
sS'HUM TGT TYPE'
p3023
S''
sS'HUM TGT TOTAL NUMBER'
p3024
S''
sS'INCIDENT INSTRUMENT ID'
p3025
S''
sS'INCIDENT INSTRUMENT TYPE'
p3026
S''
sS'PHYS TGT FOREIGN NATION'
p3027
S''
sS'HUM TGT NUMBER'
p3028
S''
sS'PHYS TGT TYPE'
p3029
S''
sS'HUM TGT NAME'
p3030
S''
sS'INCIDENT TYPE'
p3031
S''
sS'PHYS TGT NUMBER'
p3032
S''
sS'PERP INDIVIDUAL ID'
p3033
S''
sS'INCIDENT STAGE OF EXECUTION'
p3034
S''
sS'HUM TGT DESCRIPTION'
p3035
S''
sS'PHYS TGT EFFECT OF INCIDENT'
p3036
S''
sS'HUM TGT FOREIGN NATION'
p3037
S''
sS'INCIDENT DATE'
p3038
S''
sS'MESSAGE TEMPLATE'
p3039
S''
sS'PHYS TGT TOTAL NUMBER'
p3040
S''
ssS'TST3-MUC4-0028'
p3041
(dp3042
S'PERP ORGANIZATION CONFIDENCE'
p3043
S''
sS'HUM TGT EFFECT OF INCIDENT'
p3044
S''
sS'INCIDENT LOCATION'
p3045
S''
sS'PHYS TGT ID'
p3046
S''
sS'PERP INCIDENT CATEGORY'
p3047
S''
sS'PERP ORGANIZATION ID'
p3048
S''
sS'HUM TGT TYPE'
p3049
S''
sS'HUM TGT TOTAL NUMBER'
p3050
S''
sS'INCIDENT INSTRUMENT ID'
p3051
S''
sS'INCIDENT INSTRUMENT TYPE'
p3052
S''
sS'PHYS TGT FOREIGN NATION'
p3053
S''
sS'HUM TGT NUMBER'
p3054
S''
sS'PHYS TGT TYPE'
p3055
S''
sS'HUM TGT NAME'
p3056
S''
sS'INCIDENT TYPE'
p3057
S''
sS'PHYS TGT NUMBER'
p3058
S''
sS'PERP INDIVIDUAL ID'
p3059
S''
sS'INCIDENT STAGE OF EXECUTION'
p3060
S''
sS'HUM TGT DESCRIPTION'
p3061
S''
sS'PHYS TGT EFFECT OF INCIDENT'
p3062
S''
sS'HUM TGT FOREIGN NATION'
p3063
S''
sS'INCIDENT DATE'
p3064
S''
sS'MESSAGE TEMPLATE'
p3065
S''
sS'PHYS TGT TOTAL NUMBER'
p3066
S''
ssS'TST3-MUC4-0100'
p3067
(dp3068
S'PERP ORGANIZATION CONFIDENCE'
p3069
S'POSSIBLE SUSPECTED OR ACCUSED GOVERNMENT'
p3070
sS'HUM TGT EFFECT OF INCIDENT'
p3071
S'DEATH JESUIT PRIESTS PRIESTS'
p3072
sS'INCIDENT LOCATION'
p3073
S'EL SALVADOR SAN SALVADOR CITY EL SALVADOR SAN SALVADOR DEPARTMENT'
p3074
sS'PHYS TGT ID'
p3075
S''
sS'PERP INCIDENT CATEGORY'
p3076
S'STATESPONSORED VIOLENCE'
p3077
sS'PERP ORGANIZATION ID'
p3078
S'GOVERNMENT'
p3079
sS'HUM TGT TYPE'
p3080
S'CIVILIAN JESUIT PRIESTS PRIESTS'
p3081
sS'HUM TGT TOTAL NUMBER'
p3082
S''
sS'INCIDENT INSTRUMENT ID'
p3083
S''
sS'INCIDENT INSTRUMENT TYPE'
p3084
S''
sS'PHYS TGT FOREIGN NATION'
p3085
S''
sS'HUM TGT NUMBER'
p3086
S'6 JESUIT PRIESTS PRIESTS'
p3087
sS'PHYS TGT TYPE'
p3088
S''
sS'HUM TGT NAME'
p3089
S''
sS'INCIDENT TYPE'
p3090
S'ATTACK'
p3091
sS'PHYS TGT NUMBER'
p3092
S''
sS'PERP INDIVIDUAL ID'
p3093
S'SALVADORAN PRESIDENT ALFREDO CRISTIANI PRESIDENT ALFREDO CRISTIANI'
p3094
sS'INCIDENT STAGE OF EXECUTION'
p3095
S'ACCOMPLISHED'
p3096
sS'HUM TGT DESCRIPTION'
p3097
S'JESUIT PRIESTS PRIESTS'
p3098
sS'PHYS TGT EFFECT OF INCIDENT'
p3099
S''
sS'HUM TGT FOREIGN NATION'
p3100
S''
sS'INCIDENT DATE'
p3101
S'16 NOV 89'
p3102
sS'MESSAGE TEMPLATE'
p3103
S'1'
sS'PHYS TGT TOTAL NUMBER'
p3104
S''
ssS'TST3-MUC4-0052'
p3105
(dp3106
S'PERP ORGANIZATION CONFIDENCE'
p3107
S''
sS'HUM TGT EFFECT OF INCIDENT'
p3108
S''
sS'INCIDENT LOCATION'
p3109
S''
sS'PHYS TGT ID'
p3110
S''
sS'PERP INCIDENT CATEGORY'
p3111
S''
sS'PERP ORGANIZATION ID'
p3112
S''
sS'HUM TGT TYPE'
p3113
S''
sS'HUM TGT TOTAL NUMBER'
p3114
S''
sS'INCIDENT INSTRUMENT ID'
p3115
S''
sS'INCIDENT INSTRUMENT TYPE'
p3116
S''
sS'PHYS TGT FOREIGN NATION'
p3117
S''
sS'HUM TGT NUMBER'
p3118
S''
sS'PHYS TGT TYPE'
p3119
S''
sS'HUM TGT NAME'
p3120
S''
sS'INCIDENT TYPE'
p3121
S''
sS'PHYS TGT NUMBER'
p3122
S''
sS'PERP INDIVIDUAL ID'
p3123
S''
sS'INCIDENT STAGE OF EXECUTION'
p3124
S''
sS'HUM TGT DESCRIPTION'
p3125
S''
sS'PHYS TGT EFFECT OF INCIDENT'
p3126
S''
sS'HUM TGT FOREIGN NATION'
p3127
S''
sS'INCIDENT DATE'
p3128
S''
sS'MESSAGE TEMPLATE'
p3129
S''
sS'PHYS TGT TOTAL NUMBER'
p3130
S''
ssS'TST3-MUC4-0053'
p3131
(dp3132
S'PERP ORGANIZATION CONFIDENCE'
p3133
S''
sS'HUM TGT EFFECT OF INCIDENT'
p3134
S''
sS'INCIDENT LOCATION'
p3135
S'EL SALVADOR'
p3136
sS'PHYS TGT ID'
p3137
S'FENASTRAS'
p3138
sS'PERP INCIDENT CATEGORY'
p3139
S'STATESPONSORED VIOLENCE'
p3140
sS'PERP ORGANIZATION ID'
p3141
S''
sS'HUM TGT TYPE'
p3142
S'CIVILIAN FENASTRAS'
p3143
sS'HUM TGT TOTAL NUMBER'
p3144
S''
sS'INCIDENT INSTRUMENT ID'
p3145
S''
sS'INCIDENT INSTRUMENT TYPE'
p3146
S''
sS'PHYS TGT FOREIGN NATION'
p3147
S''
sS'HUM TGT NUMBER'
p3148
S'1 PLURAL FENASTRAS'
p3149
sS'PHYS TGT TYPE'
p3150
S'OTHER FENASTRAS'
p3151
sS'HUM TGT NAME'
p3152
S'FENASTRAS'
p3153
sS'INCIDENT TYPE'
p3154
S'ATTACK'
p3155
sS'PHYS TGT NUMBER'
p3156
S'1 PLURAL FENASTRAS'
p3157
sS'PERP INDIVIDUAL ID'
p3158
S'COL PONCE'
p3159
sS'INCIDENT STAGE OF EXECUTION'
p3160
S'ACCOMPLISHED'
p3161
sS'HUM TGT DESCRIPTION'
p3162
S'FENASTRAS'
p3163
sS'PHYS TGT EFFECT OF INCIDENT'
p3164
S''
sS'HUM TGT FOREIGN NATION'
p3165
S''
sS'INCIDENT DATE'
p3166
S''
sS'MESSAGE TEMPLATE'
p3167
S'1'
sS'PHYS TGT TOTAL NUMBER'
p3168
S''
ssS'TST3-MUC4-0050'
p3169
(dp3170
S'PERP ORGANIZATION CONFIDENCE'
p3171
S'REPORTED AS FACT FMLN'
p3172
sS'HUM TGT EFFECT OF INCIDENT'
p3173
S''
sS'INCIDENT LOCATION'
p3174
S'EL SALVADOR CABANAS DEPARTMENT MATASANO CANTON LOS HERNANDEZ TOWN'
p3175
sS'PHYS TGT ID'
p3176
S'PYLONS'
p3177
sS'PERP INCIDENT CATEGORY'
p3178
S'TERRORIST ACT'
p3179
sS'PERP ORGANIZATION ID'
p3180
S'FMLN'
p3181
sS'HUM TGT TYPE'
p3182
S''
sS'HUM TGT TOTAL NUMBER'
p3183
S''
sS'INCIDENT INSTRUMENT ID'
p3184
S''
sS'INCIDENT INSTRUMENT TYPE'
p3185
S'EXPLOSIVE'
p3186
sS'PHYS TGT FOREIGN NATION'
p3187
S''
sS'HUM TGT NUMBER'
p3188
S''
sS'PHYS TGT TYPE'
p3189
S'ENERGY PYLONS'
p3190
sS'HUM TGT NAME'
p3191
S''
sS'INCIDENT TYPE'
p3192
S'BOMBING'
p3193
sS'PHYS TGT NUMBER'
p3194
S'4 PYLONS'
p3195
sS'PERP INDIVIDUAL ID'
p3196
S'FMLN UNIT UNIT'
p3197
sS'INCIDENT STAGE OF EXECUTION'
p3198
S'ACCOMPLISHED'
p3199
sS'HUM TGT DESCRIPTION'
p3200
S''
sS'PHYS TGT EFFECT OF INCIDENT'
p3201
S'DESTROYED PYLONS'
p3202
sS'HUM TGT FOREIGN NATION'
p3203
S''
sS'INCIDENT DATE'
p3204
S'04 NOV 89'
p3205
sS'MESSAGE TEMPLATE'
p3206
S'2'
sS'PHYS TGT TOTAL NUMBER'
p3207
S''
ssS'TST3-MUC4-0051'
p3208
(dp3209
S'PERP ORGANIZATION CONFIDENCE'
p3210
S''
sS'HUM TGT EFFECT OF INCIDENT'
p3211
S'DEATH MEDELLIN JUDGE JUDGE'
p3212
sS'INCIDENT LOCATION'
p3213
S'COLOMBIA VALLE DEL CAUCA DEPARTMENT'
p3214
sS'JUSTICE MINISTRY EMPLOYEES'
p3215
S''
sS'PERP INCIDENT CATEGORY'
p3216
S''
sS'PERP ORGANIZATION ID'
p3217
S''
sS'HUM TGT TYPE'
p3218
S'LEGAL OR JUDICIAL MEDELLIN JUDGE JUDGE'
p3219
sS'HUM TGT TOTAL NUMBER'
p3220
S''
sS'INCIDENT INSTRUMENT ID'
p3221
S''
sS'INCIDENT INSTRUMENT TYPE'
p3222
S''
sS'PHYS TGT FOREIGN NATION'
p3223
S''
sS'HUM TGT NUMBER'
p3224
S'1 MEDELLIN JUDGE JUDGE'
p3225
sS'PHYS TGT TYPE'
p3226
S''
sS'HUM TGT NAME'
p3227
S''
sS'INCIDENT TYPE'
p3228
S'ATTACK'
p3229
sS'PHYS TGT NUMBER'
p3230
S''
sS'PHYS TGT ID'
p3231
S''
sS'PERP INDIVIDUAL ID'
p3232
S''
sS'INCIDENT STAGE OF EXECUTION'
p3233
S'ACCOMPLISHED'
p3234
sS'HUM TGT DESCRIPTION'
p3235
S'MEDELLIN JUDGE JUDGE'
p3236
sS'PHYS TGT EFFECT OF INCIDENT'
p3237
S''
sS'HUM TGT FOREIGN NATION'
p3238
S''
sS'INCIDENT DATE'
p3239
S'06 NOV 89'
p3240
sS'MESSAGE TEMPLATE'
p3241
S'1'
sS'PHYS TGT TOTAL NUMBER'
p3242
S''
ssS'TST3-MUC4-0056'
p3243
(dp3244
S'PERP ORGANIZATION CONFIDENCE'
p3245
S'REPORTED AS FACT ARMED FORCES'
p3246
sS'HUM TGT EFFECT OF INCIDENT'
p3247
S'INJURY CIVILIANS'
p3248
sS'INCIDENT LOCATION'
p3249
S'EL SALVADOR SAN SALVADOR CITY MEJICANOS NEIGHBORHOOD'
p3250
sS'PHYS TGT ID'
p3251
S''
sS'PERP INCIDENT CATEGORY'
p3252
S'STATESPONSORED VIOLENCE'
p3253
sS'PERP ORGANIZATION ID'
p3254
S'ARMED FORCES'
p3255
sS'HUM TGT TYPE'
p3256
S'CIVILIAN CIVILIANS'
p3257
sS'HUM TGT TOTAL NUMBER'
p3258
S''
sS'INCIDENT INSTRUMENT ID'
p3259
S''
sS'INCIDENT INSTRUMENT TYPE'
p3260
S'GUN'
p3261
sS'PHYS TGT FOREIGN NATION'
p3262
S''
sS'HUM TGT NUMBER'
p3263
S'PLURAL CIVILIANS'
p3264
sS'PHYS TGT TYPE'
p3265
S''
sS'HUM TGT NAME'
p3266
S''
sS'INCIDENT TYPE'
p3267
S'ATTACK BOMBING'
p3268
sS'PHYS TGT NUMBER'
p3269
S''
sS'PERP INDIVIDUAL ID'
p3270
S''
sS'INCIDENT STAGE OF EXECUTION'
p3271
S'ACCOMPLISHED'
p3272
sS'HUM TGT DESCRIPTION'
p3273
S'CIVILIANS'
p3274
sS'PHYS TGT EFFECT OF INCIDENT'
p3275
S''
sS'HUM TGT FOREIGN NATION'
p3276
S''
sS'INCIDENT DATE'
p3277
S'13 NOV 89'
p3278
sS'MESSAGE TEMPLATE'
p3279
S'1'
sS'PHYS TGT TOTAL NUMBER'
p3280
S''
ssS'TST3-MUC4-0057'
p3281
(dp3282
S'PERP ORGANIZATION CONFIDENCE'
p3283
S'REPORTED AS FACT FARABUNDO MARTI NATIONAL LIBERATION FRONT FMLN'
p3284
sS'HUM TGT EFFECT OF INCIDENT'
p3285
S'DEATH SOLDIERS'
p3286
sS'INCIDENT LOCATION'
p3287
S'EL SALVADOR'
p3288
sS'PHYS TGT ID'
p3289
S''
sS'PERP INCIDENT CATEGORY'
p3290
S'TERRORIST ACT'
p3291
sS'PERP ORGANIZATION ID'
p3292
S'FARABUNDO MARTI NATIONAL LIBERATION FRONT FMLN'
p3293
sS'HUM TGT TYPE'
p3294
S'ACTIVE MILITARY SOLDIERS'
p3295
sS'HUM TGT TOTAL NUMBER'
p3296
S''
sS'INCIDENT INSTRUMENT ID'
p3297
S''
sS'INCIDENT INSTRUMENT TYPE'
p3298
S''
sS'PHYS TGT FOREIGN NATION'
p3299
S''
sS'HUM TGT NUMBER'
p3300
S'139 313 PLURAL SOLDIERS'
p3301
sS'PHYS TGT TYPE'
p3302
S''
sS'HUM TGT NAME'
p3303
S''
sS'INCIDENT TYPE'
p3304
S'ATTACK'
p3305
sS'PHYS TGT NUMBER'
p3306
S''
sS'PERP INDIVIDUAL ID'
p3307
S'SALVADORAN REBELS REBELS'
p3308
sS'INCIDENT STAGE OF EXECUTION'
p3309
S'ACCOMPLISHED'
p3310
sS'HUM TGT DESCRIPTION'
p3311
S'SOLDIERS'
p3312
sS'PHYS TGT EFFECT OF INCIDENT'
p3313
S''
sS'HUM TGT FOREIGN NATION'
p3314
S''
sS'INCIDENT DATE'
p3315
S'11 NOV 89 13 NOV 89'
p3316
sS'MESSAGE TEMPLATE'
p3317
S'1 OPTIONAL'
p3318
sS'PHYS TGT TOTAL NUMBER'
p3319
S''
ssS'TST3-MUC4-0054'
p3320
(dp3321
S'PERP ORGANIZATION CONFIDENCE'
p3322
S'REPORTED AS FACT FMLN FARABUNDO MARTI NATIONAL LIBERATION FRONT'
p3323
sS'HUM TGT EFFECT OF INCIDENT'
p3324
S'INJURY MINOR'
p3325
sS'INCIDENT LOCATION'
p3326
S'EL SALVADOR USULUTAN CITY'
p3327
sS'PHYS TGT ID'
p3328
S'6TH INFANTRY BRIGADE'
p3329
sS'PERP INCIDENT CATEGORY'
p3330
S'TERRORIST ACT'
p3331
sS'PERP ORGANIZATION ID'
p3332
S'FMLN FARABUNDO MARTI NATIONAL LIBERATION FRONT'
p3333
sS'HUM TGT TYPE'
p3334
S'CIVILIAN MINOR'
p3335
sS'HUM TGT TOTAL NUMBER'
p3336
S''
sS'INCIDENT INSTRUMENT ID'
p3337
S''
sS'INCIDENT INSTRUMENT TYPE'
p3338
S''
sS'PHYS TGT FOREIGN NATION'
p3339
S''
sS'HUM TGT NUMBER'
p3340
S'1 MINOR'
p3341
sS'PHYS TGT TYPE'
p3342
S'OTHER 6TH INFANTRY BRIGADE'
p3343
sS'HUM TGT NAME'
p3344
S'6TH INFANTRY BRIGADE'
p3345
sS'INCIDENT TYPE'
p3346
S'ATTACK'
p3347
sS'PHYS TGT NUMBER'
p3348
S'1 6TH INFANTRY BRIGADE'
p3349
sS'PERP INDIVIDUAL ID'
p3350
S'FMLN FARABUNDO MARTI NATIONAL LIBERATION FRONT TERRORISTS TERRORISTS'
p3351
sS'INCIDENT STAGE OF EXECUTION'
p3352
S'ACCOMPLISHED'
p3353
sS'HUM TGT DESCRIPTION'
p3354
S'MINOR'
p3355
sS'PHYS TGT EFFECT OF INCIDENT'
p3356
S''
sS'HUM TGT FOREIGN NATION'
p3357
S''
sS'INCIDENT DATE'
p3358
S'11 NOV 89'
p3359
sS'MESSAGE TEMPLATE'
p3360
S'2'
sS'PHYS TGT TOTAL NUMBER'
p3361
S''
ssS'TST3-MUC4-0055'
p3362
(dp3363
S'PERP ORGANIZATION CONFIDENCE'
p3364
S'REPORTED AS FACT FMLN FARABUNDO MARTI NATIONAL LIBERATION FRONT'
p3365
sS'HUM TGT EFFECT OF INCIDENT'
p3366
S'DEATH CIVILIANS'
p3367
sS'INCIDENT LOCATION'
p3368
S'EL SALVADOR ZACAMIL NEIGHBORHOOD'
p3369
sS'PHYS TGT ID'
p3370
S''
sS'PERP INCIDENT CATEGORY'
p3371
S'STATESPONSORED VIOLENCE TERRORIST ACT'
p3372
sS'PERP ORGANIZATION ID'
p3373
S'FMLN FARABUNDO MARTI NATIONAL LIBERATION FRONT'
p3374
sS'HUM TGT TYPE'
p3375
S'CIVILIAN CIVILIANS'
p3376
sS'HUM TGT TOTAL NUMBER'
p3377
S''
sS'INCIDENT INSTRUMENT ID'
p3378
S''
sS'INCIDENT INSTRUMENT TYPE'
p3379
S'BOMB'
p3380
sS'PHYS TGT FOREIGN NATION'
p3381
S''
sS'HUM TGT NUMBER'
p3382
S'2 CIVILIANS'
p3383
sS'PHYS TGT TYPE'
p3384
S''
sS'HUM TGT NAME'
p3385
S''
sS'INCIDENT TYPE'
p3386
S'ATTACK BOMBING'
p3387
sS'PHYS TGT NUMBER'
p3388
S''
sS'CIVILIANS MORE'
p3389
S''
sS'PERP INDIVIDUAL ID'
p3390
S'REBELS'
p3391
sS'CHILDREN'
p3392
S''
sS'INCIDENT STAGE OF EXECUTION'
p3393
S'ACCOMPLISHED'
p3394
sS'HUM TGT DESCRIPTION'
p3395
S'CIVILIANS'
p3396
sS'PHYS TGT EFFECT OF INCIDENT'
p3397
S''
sS'HUM TGT FOREIGN NATION'
p3398
S''
sS'INCIDENT DATE'
p3399
S'11 NOV 89 12 NOV 89'
p3400
sS'MESSAGE TEMPLATE'
p3401
S'3'
sS'PHYS TGT TOTAL NUMBER'
p3402
S''
ssS'TST3-MUC4-0058'
p3403
(dp3404
S'PERP ORGANIZATION CONFIDENCE'
p3405
S''
sS'HUM TGT EFFECT OF INCIDENT'
p3406
S''
sS'INCIDENT LOCATION'
p3407
S''
sS'PHYS TGT ID'
p3408
S''
sS'PERP INCIDENT CATEGORY'
p3409
S''
sS'PERP ORGANIZATION ID'
p3410
S''
sS'HUM TGT TYPE'
p3411
S''
sS'HUM TGT TOTAL NUMBER'
p3412
S''
sS'INCIDENT INSTRUMENT ID'
p3413
S''
sS'INCIDENT INSTRUMENT TYPE'
p3414
S''
sS'PHYS TGT FOREIGN NATION'
p3415
S''
sS'HUM TGT NUMBER'
p3416
S''
sS'PHYS TGT TYPE'
p3417
S''
sS'HUM TGT NAME'
p3418
S''
sS'INCIDENT TYPE'
p3419
S''
sS'PHYS TGT NUMBER'
p3420
S''
sS'PERP INDIVIDUAL ID'
p3421
S''
sS'INCIDENT STAGE OF EXECUTION'
p3422
S''
sS'HUM TGT DESCRIPTION'
p3423
S''
sS'PHYS TGT EFFECT OF INCIDENT'
p3424
S''
sS'HUM TGT FOREIGN NATION'
p3425
S''
sS'INCIDENT DATE'
p3426
S''
sS'MESSAGE TEMPLATE'
p3427
S''
sS'PHYS TGT TOTAL NUMBER'
p3428
S''
ssS'TST3-MUC4-0059'
p3429
(dp3430
S'PERP ORGANIZATION CONFIDENCE'
p3431
S''
sS'HUM TGT EFFECT OF INCIDENT'
p3432
S''
sS'INCIDENT LOCATION'
p3433
S''
sS'PHYS TGT ID'
p3434
S''
sS'PERP INCIDENT CATEGORY'
p3435
S''
sS'PERP ORGANIZATION ID'
p3436
S''
sS'HUM TGT TYPE'
p3437
S''
sS'HUM TGT TOTAL NUMBER'
p3438
S''
sS'INCIDENT INSTRUMENT ID'
p3439
S''
sS'INCIDENT INSTRUMENT TYPE'
p3440
S''
sS'PHYS TGT FOREIGN NATION'
p3441
S''
sS'HUM TGT NUMBER'
p3442
S''
sS'PHYS TGT TYPE'
p3443
S''
sS'HUM TGT NAME'
p3444
S''
sS'INCIDENT TYPE'
p3445
S''
sS'PHYS TGT NUMBER'
p3446
S''
sS'PERP INDIVIDUAL ID'
p3447
S''
sS'INCIDENT STAGE OF EXECUTION'
p3448
S''
sS'HUM TGT DESCRIPTION'
p3449
S''
sS'PHYS TGT EFFECT OF INCIDENT'
p3450
S''
sS'HUM TGT FOREIGN NATION'
p3451
S''
sS'INCIDENT DATE'
p3452
S''
sS'MESSAGE TEMPLATE'
p3453
S''
sS'PHYS TGT TOTAL NUMBER'
p3454
S''
ss.