(dp1
S'TST3MUC40038'
p2
(dp3
S'PERP ORGANIZATION CONFIDENCE'
p4
S''
sS'HUM TGT EFFECT OF INCIDENT'
p5
S'DEATH LUIS CARLOS GALAN'
p6
sS'INCIDENT LOCATION'
p7
S'COLOMBIA'
p8
sS'PHYS TGT ID'
p9
S''
sS'PERP INCIDENT CATEGORY'
p10
S''
sS'PERP ORGANIZATION ID'
p11
S''
sS'HUM TGT TYPE'
p12
S'CIVILIAN LUIS CARLOS GALAN'
p13
sS'HUM TGT TOTAL NUMBER'
p14
S''
sS'INCIDENT INSTRUMENT ID'
p15
S''
sS'INCIDENT INSTRUMENT TYPE'
p16
S''
sS'PHYS TGT FOREIGN NATION'
p17
S''
sS'HUM TGT NUMBER'
p18
S'1 LUIS CARLOS GALAN'
p19
sS'PHYS TGT TYPE'
p20
S''
sS'HUM TGT NAME'
p21
S'LUIS CARLOS GALAN'
p22
sS'INCIDENT TYPE'
p23
S'ATTACK'
p24
sS'PHYS TGT NUMBER'
p25
S''
sS'PERP INDIVIDUAL ID'
p26
S''
sS'INCIDENT STAGE OF EXECUTION'
p27
S'ACCOMPLISHED'
p28
sS'HUM TGT DESCRIPTION'
p29
S''
sS'PHYS TGT EFFECT OF INCIDENT'
p30
S''
sS'HUM TGT FOREIGN NATION'
p31
S''
sS'INCIDENT DATE'
p32
S'13 SEP 89'
p33
sS'MESSAGE TEMPLATE'
p34
S'3'
sS'PHYS TGT TOTAL NUMBER'
p35
S''
ssS'TST3MUC40039'
p36
(dp37
S'PERP ORGANIZATION CONFIDENCE'
p38
S''
sS'HUM TGT EFFECT OF INCIDENT'
p39
S''
sS'INCIDENT LOCATION'
p40
S''
sS'PHYS TGT ID'
p41
S''
sS'PERP INCIDENT CATEGORY'
p42
S''
sS'PERP ORGANIZATION ID'
p43
S''
sS'HUM TGT TYPE'
p44
S''
sS'HUM TGT TOTAL NUMBER'
p45
S''
sS'INCIDENT INSTRUMENT ID'
p46
S''
sS'INCIDENT INSTRUMENT TYPE'
p47
S''
sS'PHYS TGT FOREIGN NATION'
p48
S''
sS'HUM TGT NUMBER'
p49
S''
sS'PHYS TGT TYPE'
p50
S''
sS'HUM TGT NAME'
p51
S''
sS'INCIDENT TYPE'
p52
S''
sS'PHYS TGT NUMBER'
p53
S''
sS'PERP INDIVIDUAL ID'
p54
S''
sS'INCIDENT STAGE OF EXECUTION'
p55
S''
sS'HUM TGT DESCRIPTION'
p56
S''
sS'PHYS TGT EFFECT OF INCIDENT'
p57
S''
sS'HUM TGT FOREIGN NATION'
p58
S''
sS'INCIDENT DATE'
p59
S''
sS'MESSAGE TEMPLATE'
p60
S''
sS'PHYS TGT TOTAL NUMBER'
p61
S''
ssS'TST3MUC40032'
p62
(dp63
S'PERP ORGANIZATION CONFIDENCE'
p64
S'SUSPECTED OR ACCUSED SUSPECTED OR ACCUSED BY AUTHORITIES MEDELLIN CARTEL'
p65
sS'HUM TGT EFFECT OF INCIDENT'
p66
S'DEATH LUIS CARLOS GALAN'
p67
sS'INCIDENT LOCATION'
p68
S'COLOMBIA'
p69
sS'PHYS TGT ID'
p70
S''
sS'PERP INCIDENT CATEGORY'
p71
S'TERRORIST ACT'
p72
sS'PERP ORGANIZATION ID'
p73
S'MEDELLIN CARTEL'
p74
sS'HUM TGT TYPE'
p75
S'GOVERNMENT OFFICIAL POLITICAL FIGURE LUIS CARLOS GALAN'
p76
sS'HUM TGT TOTAL NUMBER'
p77
S''
sS'INCIDENT INSTRUMENT ID'
p78
S''
sS'INCIDENT INSTRUMENT TYPE'
p79
S''
sS'PHYS TGT FOREIGN NATION'
p80
S''
sS'HUM TGT NUMBER'
p81
S'1 LUIS CARLOS GALAN'
p82
sS'PHYS TGT TYPE'
p83
S''
sS'HUM TGT NAME'
p84
S'LUIS CARLOS GALAN'
p85
sS'INCIDENT TYPE'
p86
S'ATTACK'
p87
sS'PHYS TGT NUMBER'
p88
S''
sS'PERP INDIVIDUAL ID'
p89
S'JUBIZ HAZVUMB'
p90
sS'INCIDENT STAGE OF EXECUTION'
p91
S'ACCOMPLISHED'
p92
sS'HUM TGT DESCRIPTION'
p93
S'SENATOR AND PRESIDENTIAL CANDIDATE SENATOR PRESIDENTIAL CANDIDATE LUIS CARLOS GALAN'
p94
sS'PHYS TGT EFFECT OF INCIDENT'
p95
S''
sS'HUM TGT FOREIGN NATION'
p96
S''
sS'INCIDENT DATE'
p97
S'22 AUG 89'
p98
sS'JUDGE'
p99
S''
sS'MESSAGE TEMPLATE'
p100
S'1'
sS'PHYS TGT TOTAL NUMBER'
p101
S''
ssS'TST3MUC40033'
p102
(dp103
S'PERP ORGANIZATION CONFIDENCE'
p104
S'REPORTED AS FACT FMLN'
p105
sS'HUM TGT EFFECT OF INCIDENT'
p106
S''
sS'INCIDENT LOCATION'
p107
S'EL SALVADOR CHALATENANGO DEPARTMENT NUEVA CONCEPCION CITY EL SALVADOR NUEVA CONCEPCION CITY'
p108
sS'PHYS TGT ID'
p109
S'POWER LINES'
p110
sS'PERP INCIDENT CATEGORY'
p111
S'TERRORIST ACT'
p112
sS'PERP ORGANIZATION ID'
p113
S'FMLN'
p114
sS'HUM TGT TYPE'
p115
S''
sS'HUM TGT TOTAL NUMBER'
p116
S''
sS'INCIDENT INSTRUMENT ID'
p117
S''
sS'INCIDENT INSTRUMENT TYPE'
p118
S''
sS'PHYS TGT FOREIGN NATION'
p119
S''
sS'HUM TGT NUMBER'
p120
S''
sS'PHYS TGT TYPE'
p121
S'ENERGY POWER LINES'
p122
sS'HUM TGT NAME'
p123
S''
sS'INCIDENT TYPE'
p124
S'ATTACK'
p125
sS'PHYS TGT NUMBER'
p126
S'PLURAL POWER LINES'
p127
sS'PERP INDIVIDUAL ID'
p128
S'FMLN MILITIAS MILITIAS'
p129
sS'INCIDENT STAGE OF EXECUTION'
p130
S'ACCOMPLISHED'
p131
sS'HUM TGT DESCRIPTION'
p132
S''
sS'PHYS TGT EFFECT OF INCIDENT'
p133
S''
sS'HUM TGT FOREIGN NATION'
p134
S''
sS'INCIDENT DATE'
p135
S'12 AUG 00'
p136
sS'MESSAGE TEMPLATE'
p137
S'1'
sS'PHYS TGT TOTAL NUMBER'
p138
S''
ssS'TST3MUC40030'
p139
(dp140
S'PERP ORGANIZATION CONFIDENCE'
p141
S''
sS'HUM TGT EFFECT OF INCIDENT'
p142
S'DEATH GOVERNOR OF ANTIOQUIA GOVERNOR'
p143
sS'INCIDENT LOCATION'
p144
S'COLOMBIA MEDELLIN CITY COLOMBIA'
p145
sS'PHYS TGT ID'
p146
S''
sS'PERP INCIDENT CATEGORY'
p147
S''
sS'PERP ORGANIZATION ID'
p148
S''
sS'HUM TGT TYPE'
p149
S'GOVERNMENT OFFICIAL GOVERNOR OF ANTIOQUIA GOVERNOR'
p150
sS'HUM TGT TOTAL NUMBER'
p151
S''
sS'INCIDENT INSTRUMENT ID'
p152
S''
sS'INCIDENT INSTRUMENT TYPE'
p153
S''
sS'PHYS TGT FOREIGN NATION'
p154
S''
sS'HUM TGT NUMBER'
p155
S'1 GOVERNOR OF ANTIOQUIA GOVERNOR'
p156
sS'PHYS TGT TYPE'
p157
S''
sS'HUM TGT NAME'
p158
S''
sS'INCIDENT TYPE'
p159
S'ATTACK'
p160
sS'PHYS TGT NUMBER'
p161
S''
sS'PERP INDIVIDUAL ID'
p162
S''
sS'INCIDENT STAGE OF EXECUTION'
p163
S'ACCOMPLISHED'
p164
sS'HUM TGT DESCRIPTION'
p165
S'GOVERNOR OF ANTIOQUIA GOVERNOR'
p166
sS'PHYS TGT EFFECT OF INCIDENT'
p167
S''
sS'HUM TGT FOREIGN NATION'
p168
S''
sS'INCIDENT DATE'
p169
S'16 AUG 89'
p170
sS'MESSAGE TEMPLATE'
p171
S'6'
sS'PHYS TGT TOTAL NUMBER'
p172
S''
ssS'TST3MUC40031'
p173
(dp174
S'PERP ORGANIZATION CONFIDENCE'
p175
S''
sS'HUM TGT EFFECT OF INCIDENT'
p176
S'DEATH CARLOS VALENCIA'
p177
sS'INCIDENT LOCATION'
p178
S'COLOMBIA BOGOTA CITY COLOMBIA'
p179
sS'PHYS TGT ID'
p180
S''
sS'PERP INCIDENT CATEGORY'
p181
S'TERRORIST ACT'
p182
sS'PERP ORGANIZATION ID'
p183
S''
sS'HUM TGT TYPE'
p184
S'LEGAL OR JUDICIAL CARLOS VALENCIA'
p185
sS'HUM TGT TOTAL NUMBER'
p186
S''
sS'INCIDENT INSTRUMENT ID'
p187
S''
sS'INCIDENT INSTRUMENT TYPE'
p188
S''
sS'PHYS TGT FOREIGN NATION'
p189
S''
sS'HUM TGT NUMBER'
p190
S'1 CARLOS VALENCIA'
p191
sS'PHYS TGT TYPE'
p192
S''
sS'HUM TGT NAME'
p193
S'CARLOS VALENCIA'
p194
sS'INCIDENT TYPE'
p195
S'ATTACK'
p196
sS'PHYS TGT NUMBER'
p197
S''
sS'PERP INDIVIDUAL ID'
p198
S'DRUG TRAFFICKERS COLOMBIAN DRUG MAFIA DRUG MAFIA'
p199
sS'INCIDENT STAGE OF EXECUTION'
p200
S'ACCOMPLISHED'
p201
sS'HUM TGT DESCRIPTION'
p202
S'JUDGE CARLOS VALENCIA'
p203
sS'PHYS TGT EFFECT OF INCIDENT'
p204
S''
sS'HUM TGT FOREIGN NATION'
p205
S''
sS'INCIDENT DATE'
p206
S'18 AUG 89'
p207
sS'MESSAGE TEMPLATE'
p208
S'1'
sS'PHYS TGT TOTAL NUMBER'
p209
S''
ssS'TST3MUC40036'
p210
(dp211
S'PERP ORGANIZATION CONFIDENCE'
p212
S''
sS'HUM TGT EFFECT OF INCIDENT'
p213
S'DEATH PERSONS'
p214
sS'INCIDENT LOCATION'
p215
S'COLOMBIA ANTIOQUIA DEPARTMENT RIO NEGRO TOWN JOSE MARIA CORDOBA AIRPORT COLOMBIA ANTIOQUIA DEPARTMENT SAN NICOLAS VALLEY RIO NEGRO TOWN JOSE MARIA CORDOBA AIRPORT AIRPORT COLOMBIA ANTIOQUIA DEPARTMENT RIO NEGRO TOWN SAN NICOLAS VALLEY JOSE MARIA CORDOBA AIRPORT AIRPORT'
p216
sS'PHYS TGT ID'
p217
S'INSTALLATIONS OF THE JOSE MARIA CORDOBA AIRPORT AIRPORT INSTALLATIONS'
p218
sS'PERP INCIDENT CATEGORY'
p219
S''
sS'PERP ORGANIZATION ID'
p220
S''
sS'HUM TGT TYPE'
p221
S'CIVILIAN PERSONS'
p222
sS'HUM TGT TOTAL NUMBER'
p223
S'3'
sS'INCIDENT INSTRUMENT ID'
p224
S''
sS'INCIDENT INSTRUMENT TYPE'
p225
S'GUN'
p226
sS'PHYS TGT FOREIGN NATION'
p227
S''
sS'HUM TGT NUMBER'
p228
S'3 PERSONS'
p229
sS'PHYS TGT TYPE'
p230
S'TRANSPORTATION FACILITY INSTALLATIONS OF THE JOSE MARIA CORDOBA AIRPORT AIRPORT INSTALLATIONS'
p231
sS'HUM TGT NAME'
p232
S''
sS'INCIDENT TYPE'
p233
S'ATTACK'
p234
sS'PHYS TGT NUMBER'
p235
S'PLURAL INSTALLATIONS OF THE JOSE MARIA CORDOBA AIRPORT AIRPORT INSTALLATIONS'
p236
sS'ONE OF THOSE KILLED ONE OF'
p237
S'THE PERSONS KILLED ONE OF THE PERSONS'
p238
sS'PERP INDIVIDUAL ID'
p239
S''
sS'INCIDENT STAGE OF EXECUTION'
p240
S'ACCOMPLISHED'
p241
sS'HUM TGT DESCRIPTION'
p242
S'PERSONS'
p243
sS'PHYS TGT EFFECT OF INCIDENT'
p244
S''
sS'HUM TGT FOREIGN NATION'
p245
S''
sS'INCIDENT DATE'
p246
S'04 SEP 89'
p247
sS'MESSAGE TEMPLATE'
p248
S'1'
sS'PHYS TGT TOTAL NUMBER'
p249
S''
ssS'TST3MUC40037'
p250
(dp251
S'PERP ORGANIZATION CONFIDENCE'
p252
S''
sS'HUM TGT EFFECT OF INCIDENT'
p253
S'INJURY PERSON'
p254
sS'INCIDENT LOCATION'
p255
S'COLOMBIA MEDELLIN CITY ARANJUEZ SECTOR'
p256
sS'PHYS TGT ID'
p257
S'AGRARIAN BOARD BRANCH AGRARIAN BOARD'
p258
sS'PERP INCIDENT CATEGORY'
p259
S'TERRORIST ACT'
p260
sS'PERP ORGANIZATION ID'
p261
S''
sS'HUM TGT TYPE'
p262
S'CIVILIAN PERSON'
p263
sS'HUM TGT TOTAL NUMBER'
p264
S''
sS'INCIDENT INSTRUMENT ID'
p265
S'BOMB'
p266
sS'INCIDENT INSTRUMENT TYPE'
p267
S'BOMB BOMB'
p268
sS'PHYS TGT FOREIGN NATION'
p269
S''
sS'HUM TGT NUMBER'
p270
S'1 PERSON'
p271
sS'PHYS TGT TYPE'
p272
S'FINANCIAL AGRARIAN BOARD BRANCH AGRARIAN BOARD'
p273
sS'HUM TGT NAME'
p274
S''
sS'INCIDENT TYPE'
p275
S'BOMBING'
p276
sS'PHYS TGT NUMBER'
p277
S'1 AGRARIAN BOARD BRANCH AGRARIAN BOARD'
p278
sS'PERP INDIVIDUAL ID'
p279
S'DRUG TRAFFICKERS'
p280
sS'INCIDENT STAGE OF EXECUTION'
p281
S'ACCOMPLISHED'
p282
sS'HUM TGT DESCRIPTION'
p283
S'PERSON'
p284
sS'PHYS TGT EFFECT OF INCIDENT'
p285
S'SOME DAMAGE AGRARIAN BOARD BRANCH AGRARIAN BOARD'
p286
sS'HUM TGT FOREIGN NATION'
p287
S''
sS'INCIDENT DATE'
p288
S'04 SEP 89'
p289
sS'MESSAGE TEMPLATE'
p290
S'2'
sS'PHYS TGT TOTAL NUMBER'
p291
S''
ssS'TST3MUC40034'
p292
(dp293
S'PERP ORGANIZATION CONFIDENCE'
p294
S''
sS'HUM TGT EFFECT OF INCIDENT'
p295
S'DEATH LUIS CARLOS GALAN'
p296
sS'INCIDENT LOCATION'
p297
S'COLOMBIA BOGOTA CITY'
p298
sS'PHYS TGT ID'
p299
S''
sS'PERP INCIDENT CATEGORY'
p300
S''
sS'PERP ORGANIZATION ID'
p301
S''
sS'HUM TGT TYPE'
p302
S'GOVERNMENT OFFICIAL POLITICAL FIGURE LUIS CARLOS GALAN'
p303
sS'HUM TGT TOTAL NUMBER'
p304
S''
sS'INCIDENT INSTRUMENT ID'
p305
S''
sS'INCIDENT INSTRUMENT TYPE'
p306
S''
sS'PHYS TGT FOREIGN NATION'
p307
S''
sS'HUM TGT NUMBER'
p308
S'1 LUIS CARLOS GALAN'
p309
sS'PHYS TGT TYPE'
p310
S''
sS'HUM TGT NAME'
p311
S'LUIS CARLOS GALAN'
p312
sS'INCIDENT TYPE'
p313
S'ATTACK'
p314
sS'PHYS TGT NUMBER'
p315
S''
sS'PERP INDIVIDUAL ID'
p316
S'PERSON OF ARAB ORIGIN'
p317
sS'INCIDENT STAGE OF EXECUTION'
p318
S'ACCOMPLISHED'
p319
sS'HUM TGT DESCRIPTION'
p320
S'SENATOR AND LIBERAL PARTY PRESIDENTIAL CANDIDATE SENATOR LIBERAL PARTY PRESIDENTIAL CANDIDATE LUIS CARLOS GALAN'
p321
sS'PHYS TGT EFFECT OF INCIDENT'
p322
S''
sS'HUM TGT FOREIGN NATION'
p323
S''
sS'INCIDENT DATE'
p324
S'18 AUG 89'
p325
sS'MESSAGE TEMPLATE'
p326
S'1'
sS'PHYS TGT TOTAL NUMBER'
p327
S''
ssS'TST3MUC40035'
p328
(dp329
S'PERP ORGANIZATION CONFIDENCE'
p330
S''
sS'HUM TGT EFFECT OF INCIDENT'
p331
S''
sS'INCIDENT LOCATION'
p332
S''
sS'PHYS TGT ID'
p333
S''
sS'PERP INCIDENT CATEGORY'
p334
S''
sS'PERP ORGANIZATION ID'
p335
S''
sS'HUM TGT TYPE'
p336
S''
sS'HUM TGT TOTAL NUMBER'
p337
S''
sS'INCIDENT INSTRUMENT ID'
p338
S''
sS'INCIDENT INSTRUMENT TYPE'
p339
S''
sS'PHYS TGT FOREIGN NATION'
p340
S''
sS'HUM TGT NUMBER'
p341
S''
sS'PHYS TGT TYPE'
p342
S''
sS'HUM TGT NAME'
p343
S''
sS'INCIDENT TYPE'
p344
S''
sS'PHYS TGT NUMBER'
p345
S''
sS'PERP INDIVIDUAL ID'
p346
S''
sS'INCIDENT STAGE OF EXECUTION'
p347
S''
sS'HUM TGT DESCRIPTION'
p348
S''
sS'PHYS TGT EFFECT OF INCIDENT'
p349
S''
sS'HUM TGT FOREIGN NATION'
p350
S''
sS'INCIDENT DATE'
p351
S''
sS'MESSAGE TEMPLATE'
p352
S''
sS'PHYS TGT TOTAL NUMBER'
p353
S''
ssS'TST3MUC40087'
p354
(dp355
S'PERP ORGANIZATION CONFIDENCE'
p356
S''
sS'HUM TGT EFFECT OF INCIDENT'
p357
S''
sS'INCIDENT LOCATION'
p358
S''
sS'PHYS TGT ID'
p359
S''
sS'PERP INCIDENT CATEGORY'
p360
S''
sS'PERP ORGANIZATION ID'
p361
S''
sS'HUM TGT TYPE'
p362
S''
sS'HUM TGT TOTAL NUMBER'
p363
S''
sS'INCIDENT INSTRUMENT ID'
p364
S''
sS'INCIDENT INSTRUMENT TYPE'
p365
S''
sS'PHYS TGT FOREIGN NATION'
p366
S''
sS'HUM TGT NUMBER'
p367
S''
sS'PHYS TGT TYPE'
p368
S''
sS'HUM TGT NAME'
p369
S''
sS'INCIDENT TYPE'
p370
S''
sS'PHYS TGT NUMBER'
p371
S''
sS'PERP INDIVIDUAL ID'
p372
S''
sS'INCIDENT STAGE OF EXECUTION'
p373
S''
sS'HUM TGT DESCRIPTION'
p374
S''
sS'PHYS TGT EFFECT OF INCIDENT'
p375
S''
sS'HUM TGT FOREIGN NATION'
p376
S''
sS'INCIDENT DATE'
p377
S''
sS'MESSAGE TEMPLATE'
p378
S''
sS'PHYS TGT TOTAL NUMBER'
p379
S''
ssS'TST3MUC40086'
p380
(dp381
S'PERP ORGANIZATION CONFIDENCE'
p382
S''
sS'HUM TGT EFFECT OF INCIDENT'
p383
S''
sS'INCIDENT LOCATION'
p384
S''
sS'PHYS TGT ID'
p385
S''
sS'PERP INCIDENT CATEGORY'
p386
S''
sS'PERP ORGANIZATION ID'
p387
S''
sS'HUM TGT TYPE'
p388
S''
sS'HUM TGT TOTAL NUMBER'
p389
S''
sS'INCIDENT INSTRUMENT ID'
p390
S''
sS'INCIDENT INSTRUMENT TYPE'
p391
S''
sS'PHYS TGT FOREIGN NATION'
p392
S''
sS'HUM TGT NUMBER'
p393
S''
sS'PHYS TGT TYPE'
p394
S''
sS'HUM TGT NAME'
p395
S''
sS'INCIDENT TYPE'
p396
S''
sS'PHYS TGT NUMBER'
p397
S''
sS'PERP INDIVIDUAL ID'
p398
S''
sS'INCIDENT STAGE OF EXECUTION'
p399
S''
sS'HUM TGT DESCRIPTION'
p400
S''
sS'PHYS TGT EFFECT OF INCIDENT'
p401
S''
sS'HUM TGT FOREIGN NATION'
p402
S''
sS'INCIDENT DATE'
p403
S''
sS'MESSAGE TEMPLATE'
p404
S''
sS'PHYS TGT TOTAL NUMBER'
p405
S''
ssS'TST3MUC40085'
p406
(dp407
S'PERP ORGANIZATION CONFIDENCE'
p408
S'SUSPECTED OR ACCUSED BY AUTHORITIES ARMY'
p409
sS'HUM TGT EFFECT OF INCIDENT'
p410
S'DEATH JESUITS JESUIT PRIESTS PRIESTS'
p411
sS'INCIDENT LOCATION'
p412
S'EL SALVADOR'
p413
sS'PHYS TGT ID'
p414
S''
sS'PERP INCIDENT CATEGORY'
p415
S'STATESPONSORED VIOLENCE'
p416
sS'PERP ORGANIZATION ID'
p417
S'ARMY'
p418
sS'HUM TGT TYPE'
p419
S'CIVILIAN JESUITS JESUIT PRIESTS PRIESTS'
p420
sS'HUM TGT TOTAL NUMBER'
p421
S''
sS'INCIDENT INSTRUMENT ID'
p422
S''
sS'INCIDENT INSTRUMENT TYPE'
p423
S''
sS'PHYS TGT FOREIGN NATION'
p424
S''
sS'HUM TGT NUMBER'
p425
S'6 JESUITS JESUIT PRIESTS PRIESTS'
p426
sS'PHYS TGT TYPE'
p427
S''
sS'HUM TGT NAME'
p428
S''
sS'INCIDENT TYPE'
p429
S'ATTACK'
p430
sS'PHYS TGT NUMBER'
p431
S''
sS'PERP INDIVIDUAL ID'
p432
S'EIGHT SOLDIERS SOLDIERS'
p433
sS'INCIDENT STAGE OF EXECUTION'
p434
S'ACCOMPLISHED'
p435
sS'HUM TGT DESCRIPTION'
p436
S'JESUITS JESUIT PRIESTS PRIESTS'
p437
sS'PHYS TGT EFFECT OF INCIDENT'
p438
S''
sS'HUM TGT FOREIGN NATION'
p439
S''
sS'INCIDENT DATE'
p440
S'10 FEB 90'
p441
sS'MESSAGE TEMPLATE'
p442
S'1'
sS'PHYS TGT TOTAL NUMBER'
p443
S''
ssS'TST3MUC40084'
p444
(dp445
S'PERP ORGANIZATION CONFIDENCE'
p446
S'REPORTED AS FACT FARABUNDO MARTI NATIONAL LIBERATION FRONT FMLN'
p447
sS'HUM TGT EFFECT OF INCIDENT'
p448
S''
sS'INCIDENT LOCATION'
p449
S'EL SALVADOR SAN SALVADOR CITY EL SALVADOR'
p450
sS'PHYS TGT ID'
p451
S'PUBLIC BUS BUS'
p452
sS'PERP INCIDENT CATEGORY'
p453
S'TERRORIST ACT'
p454
sS'PERP ORGANIZATION ID'
p455
S'FARABUNDO MARTI NATIONAL LIBERATION FRONT FMLN'
p456
sS'HUM TGT TYPE'
p457
S''
sS'HUM TGT TOTAL NUMBER'
p458
S''
sS'INCIDENT INSTRUMENT ID'
p459
S''
sS'INCIDENT INSTRUMENT TYPE'
p460
S''
sS'PHYS TGT FOREIGN NATION'
p461
S''
sS'HUM TGT NUMBER'
p462
S''
sS'PHYS TGT TYPE'
p463
S'TRANSPORT VEHICLE PUBLIC BUS BUS'
p464
sS'HUM TGT NAME'
p465
S''
sS'INCIDENT TYPE'
p466
S'ARSON'
p467
sS'PHYS TGT NUMBER'
p468
S'1 PUBLIC BUS BUS'
p469
sS'PERP INDIVIDUAL ID'
p470
S'SALVADORAN REBELS REBELS'
p471
sS'INCIDENT STAGE OF EXECUTION'
p472
S'ACCOMPLISHED'
p473
sS'HUM TGT DESCRIPTION'
p474
S''
sS'PHYS TGT EFFECT OF INCIDENT'
p475
S'SOME DAMAGE DESTROYED PUBLIC BUS BUS'
p476
sS'HUM TGT FOREIGN NATION'
p477
S''
sS'INCIDENT DATE'
p478
S'02 FEB 90 01 FEB 90 02 FEB 90 02 FEB 90'
p479
sS'MESSAGE TEMPLATE'
p480
S'2'
sS'PHYS TGT TOTAL NUMBER'
p481
S''
ssS'TST3MUC40083'
p482
(dp483
S'PERP ORGANIZATION CONFIDENCE'
p484
S'SUSPECTED OR ACCUSED POSSIBLE CRISTIANIS GOVERNMENT GOVERNMENT'
p485
sS'HUM TGT EFFECT OF INCIDENT'
p486
S'DEATH HECTOR OQUELI'
p487
sS'INCIDENT LOCATION'
p488
S'EL SALVADOR'
p489
sS'PHYS TGT ID'
p490
S''
sS'PERP INCIDENT CATEGORY'
p491
S'STATESPONSORED VIOLENCE'
p492
sS'PERP ORGANIZATION ID'
p493
S'CRISTIANIS GOVERNMENT GOVERNMENT'
p494
sS'HUM TGT TYPE'
p495
S'POLITICAL FIGURE HECTOR OQUELI'
p496
sS'HUM TGT TOTAL NUMBER'
p497
S''
sS'INCIDENT INSTRUMENT ID'
p498
S''
sS'INCIDENT INSTRUMENT TYPE'
p499
S''
sS'PHYS TGT FOREIGN NATION'
p500
S''
sS'HUM TGT NUMBER'
p501
S'1 HECTOR OQUELI'
p502
sS'PHYS TGT TYPE'
p503
S''
sS'HUM TGT NAME'
p504
S'HECTOR OQUELI'
p505
sS'INCIDENT TYPE'
p506
S'ATTACK'
p507
sS'PHYS TGT NUMBER'
p508
S''
sS'PERP INDIVIDUAL ID'
p509
S''
sS'INCIDENT STAGE OF EXECUTION'
p510
S'ACCOMPLISHED'
p511
sS'HUM TGT DESCRIPTION'
p512
S'SOCIAL DEMOCRATIC LEADER HECTOR OQUELI'
p513
sS'PHYS TGT EFFECT OF INCIDENT'
p514
S''
sS'HUM TGT FOREIGN NATION'
p515
S''
sS'INCIDENT DATE'
p516
S'31 JAN 90'
p517
sS'MESSAGE TEMPLATE'
p518
S'1 OPTIONAL'
p519
sS'PHYS TGT TOTAL NUMBER'
p520
S''
ssS'TST3MUC40082'
p521
(dp522
S'PERP ORGANIZATION CONFIDENCE'
p523
S''
sS'HUM TGT EFFECT OF INCIDENT'
p524
S'DEATH VLADIMIR ESCOBAR'
p525
sS'INCIDENT LOCATION'
p526
S'COLOMBIA SOACHA MUNICIPALITY COLOMBIA'
p527
sS'PHYS TGT ID'
p528
S''
sS'PERP INCIDENT CATEGORY'
p529
S''
sS'PERP ORGANIZATION ID'
p530
S''
sS'HUM TGT TYPE'
p531
S'GOVERNMENT OFFICIAL VLADIMIR ESCOBAR'
p532
sS'HUM TGT TOTAL NUMBER'
p533
S''
sS'INCIDENT INSTRUMENT ID'
p534
S''
sS'INCIDENT INSTRUMENT TYPE'
p535
S'GUN'
p536
sS'PHYS TGT FOREIGN NATION'
p537
S''
sS'HUM TGT NUMBER'
p538
S'1 VLADIMIR ESCOBAR'
p539
sS'PHYS TGT TYPE'
p540
S''
sS'HUM TGT NAME'
p541
S'VLADIMIR ESCOBAR'
p542
sS'INCIDENT TYPE'
p543
S'ATTACK'
p544
sS'PHYS TGT NUMBER'
p545
S''
sS'PERP INDIVIDUAL ID'
p546
S''
sS'INCIDENT STAGE OF EXECUTION'
p547
S'ACCOMPLISHED'
p548
sS'HUM TGT DESCRIPTION'
p549
S'SOACHA MUNICIPAL OFFICIAL MUNICIPAL OFFICIAL VLADIMIR ESCOBAR'
p550
sS'PHYS TGT EFFECT OF INCIDENT'
p551
S''
sS'HUM TGT FOREIGN NATION'
p552
S''
sS'INCIDENT DATE'
p553
S'24 JAN 90'
p554
sS'MESSAGE TEMPLATE'
p555
S'1'
sS'PHYS TGT TOTAL NUMBER'
p556
S''
ssS'TST3MUC40081'
p557
(dp558
S'PERP ORGANIZATION CONFIDENCE'
p559
S''
sS'HUM TGT EFFECT OF INCIDENT'
p560
S'PROPERTY TAKEN FROM TARGET LUIS SANDIGA CABRERA'
p561
sS'INCIDENT LOCATION'
p562
S'PANAMA'
p563
sS'PHYS TGT ID'
p564
S'HIS CAR CAR'
p565
sS'PERP INCIDENT CATEGORY'
p566
S''
sS'PERP ORGANIZATION ID'
p567
S''
sS'HUM TGT TYPE'
p568
S'DIPLOMAT LUIS SANDIGA CABRERA'
p569
sS'HUM TGT TOTAL NUMBER'
p570
S''
sS'INCIDENT INSTRUMENT ID'
p571
S''
sS'INCIDENT INSTRUMENT TYPE'
p572
S''
sS'PHYS TGT FOREIGN NATION'
p573
S'PERU HIS CAR CAR'
p574
sS'HUM TGT NUMBER'
p575
S'1 LUIS SANDIGA CABRERA'
p576
sS'PHYS TGT TYPE'
p577
S'TRANSPORT VEHICLE HIS CAR CAR'
p578
sS'HUM TGT NAME'
p579
S'LUIS SANDIGA CABRERA'
p580
sS'INCIDENT TYPE'
p581
S'ROBBERY'
p582
sS'PHYS TGT NUMBER'
p583
S'1 HIS CAR CAR'
p584
sS'MILITARY ATTACHE ONE OF THE'
p585
S'EMBASSYS MILITARY ATTACHES'
p586
sS'PERP INDIVIDUAL ID'
p587
S''
sS'CAR BELONGING TO ONE OF THE EMB'
p588
S'ASSYS MILITARY ATTACHES CAR'
p589
sS'INCIDENT STAGE OF EXECUTION'
p590
S'ACCOMPLISHED'
p591
sS'HUM TGT DESCRIPTION'
p592
S'CHARGE DAFFAIRES LUIS SANDIGA CABRERA'
p593
sS'PHYS TGT EFFECT OF INCIDENT'
p594
S'TARGET TAKEN HIS CAR CAR'
p595
sS'HUM TGT FOREIGN NATION'
p596
S'PERU LUIS SANDIGA CABRERA'
p597
sS'INCIDENT DATE'
p598
S''
sS'MESSAGE TEMPLATE'
p599
S'1'
sS'PHYS TGT TOTAL NUMBER'
p600
S''
ssS'TST3MUC40080'
p601
(dp602
S'PERP ORGANIZATION CONFIDENCE'
p603
S'REPORTED AS FACT FARABUNDO MARTI NATIONAL LIBERATION FRONT FMLN'
p604
sS'HUM TGT EFFECT OF INCIDENT'
p605
S''
sS'INCIDENT LOCATION'
p606
S'EL SALVADOR'
p607
sS'PHYS TGT ID'
p608
S'ELECTRICAL POWER SYSTEM ENTIRE ELECTRICAL POWER SYSTEM'
p609
sS'PERP INCIDENT CATEGORY'
p610
S'TERRORIST ACT'
p611
sS'PERP ORGANIZATION ID'
p612
S'FARABUNDO MARTI NATIONAL LIBERATION FRONT FMLN'
p613
sS'HUM TGT TYPE'
p614
S''
sS'HUM TGT TOTAL NUMBER'
p615
S''
sS'INCIDENT INSTRUMENT ID'
p616
S''
sS'INCIDENT INSTRUMENT TYPE'
p617
S''
sS'PHYS TGT FOREIGN NATION'
p618
S''
sS'HUM TGT NUMBER'
p619
S''
sS'PHYS TGT TYPE'
p620
S'ENERGY ELECTRICAL POWER SYSTEM ENTIRE ELECTRICAL POWER SYSTEM'
p621
sS'HUM TGT NAME'
p622
S''
sS'INCIDENT TYPE'
p623
S'ATTACK'
p624
sS'PHYS TGT NUMBER'
p625
S'1 ELECTRICAL POWER SYSTEM ENTIRE ELECTRICAL POWER SYSTEM'
p626
sS'PERP INDIVIDUAL ID'
p627
S'GUERRILLAS'
p628
sS'INCIDENT STAGE OF EXECUTION'
p629
S'ACCOMPLISHED'
p630
sS'HUM TGT DESCRIPTION'
p631
S''
sS'PHYS TGT EFFECT OF INCIDENT'
p632
S''
sS'HUM TGT FOREIGN NATION'
p633
S''
sS'INCIDENT DATE'
p634
S'02 JAN 90'
p635
sS'MESSAGE TEMPLATE'
p636
S'4 OPTIONAL'
p637
sS'PHYS TGT TOTAL NUMBER'
p638
S''
ssS'TST3MUC40089'
p639
(dp640
S'PERP ORGANIZATION CONFIDENCE'
p641
S''
sS'HUM TGT EFFECT OF INCIDENT'
p642
S''
sS'INCIDENT LOCATION'
p643
S''
sS'PHYS TGT ID'
p644
S''
sS'PERP INCIDENT CATEGORY'
p645
S''
sS'PERP ORGANIZATION ID'
p646
S''
sS'HUM TGT TYPE'
p647
S''
sS'HUM TGT TOTAL NUMBER'
p648
S''
sS'INCIDENT INSTRUMENT ID'
p649
S''
sS'INCIDENT INSTRUMENT TYPE'
p650
S''
sS'PHYS TGT FOREIGN NATION'
p651
S''
sS'HUM TGT NUMBER'
p652
S''
sS'PHYS TGT TYPE'
p653
S''
sS'HUM TGT NAME'
p654
S''
sS'INCIDENT TYPE'
p655
S''
sS'PHYS TGT NUMBER'
p656
S''
sS'PERP INDIVIDUAL ID'
p657
S''
sS'INCIDENT STAGE OF EXECUTION'
p658
S''
sS'HUM TGT DESCRIPTION'
p659
S''
sS'PHYS TGT EFFECT OF INCIDENT'
p660
S''
sS'HUM TGT FOREIGN NATION'
p661
S''
sS'INCIDENT DATE'
p662
S''
sS'MESSAGE TEMPLATE'
p663
S''
sS'PHYS TGT TOTAL NUMBER'
p664
S''
ssS'TST3MUC40088'
p665
(dp666
S'PERP ORGANIZATION CONFIDENCE'
p667
S'REPORTED AS FACT POSSIBLE ELN POPULAR LIBERATION ARMY'
p668
sS'HUM TGT EFFECT OF INCIDENT'
p669
S'REGAINED FREEDOM JORGE SERRANO GONZALEZ'
p670
sS'INCIDENT LOCATION'
p671
S'COLOMBIA'
p672
sS'PHYS TGT ID'
p673
S''
sS'PERP INCIDENT CATEGORY'
p674
S'TERRORIST ACT'
p675
sS'PERP ORGANIZATION ID'
p676
S'ELN POPULAR LIBERATION ARMY'
p677
sS'HUM TGT TYPE'
p678
S'GOVERNMENT OFFICIAL JORGE SERRANO GONZALEZ'
p679
sS'HUM TGT TOTAL NUMBER'
p680
S''
sS'INCIDENT INSTRUMENT ID'
p681
S''
sS'INCIDENT INSTRUMENT TYPE'
p682
S''
sS'PHYS TGT FOREIGN NATION'
p683
S''
sS'HUM TGT NUMBER'
p684
S'1 JORGE SERRANO GONZALEZ'
p685
sS'PHYS TGT TYPE'
p686
S''
sS'HUM TGT NAME'
p687
S'JORGE SERRANO GONZALEZ'
p688
sS'INCIDENT TYPE'
p689
S'KIDNAPPING'
p690
sS'PHYS TGT NUMBER'
p691
S''
sS'PERP INDIVIDUAL ID'
p692
S'GUERRILLAS'
p693
sS'INCIDENT STAGE OF EXECUTION'
p694
S'ACCOMPLISHED'
p695
sS'HUM TGT DESCRIPTION'
p696
S'SANTANDER DEPARTMENT SENATOR SENATOR JORGE SERRANO GONZALEZ'
p697
sS'PHYS TGT EFFECT OF INCIDENT'
p698
S''
sS'HUM TGT FOREIGN NATION'
p699
S''
sS'INCIDENT DATE'
p700
S'24 FEB 90'
p701
sS'MESSAGE TEMPLATE'
p702
S'3'
sS'PHYS TGT TOTAL NUMBER'
p703
S''
ssS'TST3MUC40025'
p704
(dp705
S'PERP ORGANIZATION CONFIDENCE'
p706
S''
sS'HUM TGT EFFECT OF INCIDENT'
p707
S''
sS'INCIDENT LOCATION'
p708
S''
sS'PHYS TGT ID'
p709
S''
sS'PERP INCIDENT CATEGORY'
p710
S''
sS'PERP ORGANIZATION ID'
p711
S''
sS'HUM TGT TYPE'
p712
S''
sS'HUM TGT TOTAL NUMBER'
p713
S''
sS'INCIDENT INSTRUMENT ID'
p714
S''
sS'INCIDENT INSTRUMENT TYPE'
p715
S''
sS'PHYS TGT FOREIGN NATION'
p716
S''
sS'HUM TGT NUMBER'
p717
S''
sS'PHYS TGT TYPE'
p718
S''
sS'HUM TGT NAME'
p719
S''
sS'INCIDENT TYPE'
p720
S''
sS'PHYS TGT NUMBER'
p721
S''
sS'PERP INDIVIDUAL ID'
p722
S''
sS'INCIDENT STAGE OF EXECUTION'
p723
S''
sS'HUM TGT DESCRIPTION'
p724
S''
sS'PHYS TGT EFFECT OF INCIDENT'
p725
S''
sS'HUM TGT FOREIGN NATION'
p726
S''
sS'INCIDENT DATE'
p727
S''
sS'MESSAGE TEMPLATE'
p728
S''
sS'PHYS TGT TOTAL NUMBER'
p729
S''
ssS'TST3MUC40024'
p730
(dp731
S'PERP ORGANIZATION CONFIDENCE'
p732
S''
sS'HUM TGT EFFECT OF INCIDENT'
p733
S''
sS'INCIDENT LOCATION'
p734
S'COLOMBIA ARAUQUITA JURISDICTION CANO LIMON CITY COVENAS CITY'
p735
sS'PHYS TGT ID'
p736
S'CANO LIMONCOVENAS OIL PIPELINE OIL PIPELINE PIPELINE'
p737
sS'PERP INCIDENT CATEGORY'
p738
S'TERRORIST ACT'
p739
sS'PERP ORGANIZATION ID'
p740
S''
sS'HUM TGT TYPE'
p741
S''
sS'HUM TGT TOTAL NUMBER'
p742
S''
sS'INCIDENT INSTRUMENT ID'
p743
S''
sS'INCIDENT INSTRUMENT TYPE'
p744
S'DYNAMITE'
p745
sS'PHYS TGT FOREIGN NATION'
p746
S''
sS'HUM TGT NUMBER'
p747
S''
sS'PHYS TGT TYPE'
p748
S'ENERGY CANO LIMONCOVENAS OIL PIPELINE OIL PIPELINE PIPELINE'
p749
sS'HUM TGT NAME'
p750
S''
sS'INCIDENT TYPE'
p751
S'BOMBING'
p752
sS'PHYS TGT NUMBER'
p753
S'1 CANO LIMONCOVENAS OIL PIPELINE OIL PIPELINE PIPELINE'
p754
sS'PERP INDIVIDUAL ID'
p755
S''
sS'INCIDENT STAGE OF EXECUTION'
p756
S'ACCOMPLISHED'
p757
sS'HUM TGT DESCRIPTION'
p758
S''
sS'PHYS TGT EFFECT OF INCIDENT'
p759
S'SOME DAMAGE CANO LIMONCOVENAS OIL PIPELINE OIL PIPELINE PIPELINE'
p760
sS'HUM TGT FOREIGN NATION'
p761
S''
sS'INCIDENT DATE'
p762
S'12 JUL 89'
p763
sS'MESSAGE TEMPLATE'
p764
S'4'
sS'PHYS TGT TOTAL NUMBER'
p765
S''
ssS'TST3MUC40027'
p766
(dp767
S'PERP ORGANIZATION CONFIDENCE'
p768
S''
sS'HUM TGT EFFECT OF INCIDENT'
p769
S'DEATH DANILO BARILLAS'
p770
sS'INCIDENT LOCATION'
p771
S'GUATEMALA GUATEMALA CITY CITY'
p772
sS'PHYS TGT ID'
p773
S''
sS'PERP INCIDENT CATEGORY'
p774
S''
sS'PERP ORGANIZATION ID'
p775
S''
sS'HUM TGT TYPE'
p776
S'POLITICAL FIGURE GOVERNMENT OFFICIAL DANILO BARILLAS'
p777
sS'HUM TGT TOTAL NUMBER'
p778
S''
sS'INCIDENT INSTRUMENT ID'
p779
S'MACHINEGUN'
p780
sS'INCIDENT INSTRUMENT TYPE'
p781
S'MACHINE GUN MACHINEGUN'
p782
sS'PHYS TGT FOREIGN NATION'
p783
S''
sS'HUM TGT NUMBER'
p784
S'1 DANILO BARILLAS'
p785
sS'PHYS TGT TYPE'
p786
S''
sS'HUM TGT NAME'
p787
S'DANILO BARILLAS'
p788
sS'INCIDENT TYPE'
p789
S'ATTACK'
p790
sS'PHYS TGT NUMBER'
p791
S''
sS'PERP INDIVIDUAL ID'
p792
S'GROUP OF UNIDENTIFIED INDIVIDUALS UNIDENTIFIED INDIVIDUALS'
p793
sS'INCIDENT STAGE OF EXECUTION'
p794
S'ACCOMPLISHED'
p795
sS'HUM TGT DESCRIPTION'
p796
S'FORMER GUATEMALAN AMBASSADOR TO SPAIN AND LEADER OF THE RULING CHRISTIAN DEMOCRATIC PARTY PDC FORMER GUATEMALAN AMBASSADOR TO SPAIN LEADER OF THE RULING CHRISTIAN DEMOCRATIC PARTY PDC LEADER OF THE RULING CHRISTIAN DEMOCRATIC PARTY DANILO BARILLAS'
p797
sS'PHYS TGT EFFECT OF INCIDENT'
p798
S''
sS'HUM TGT FOREIGN NATION'
p799
S''
sS'INCIDENT DATE'
p800
S'01 AUG 89'
p801
sS'MESSAGE TEMPLATE'
p802
S'1'
sS'PHYS TGT TOTAL NUMBER'
p803
S''
ssS'TST3MUC40026'
p804
(dp805
S'PERP ORGANIZATION CONFIDENCE'
p806
S''
sS'HUM TGT EFFECT OF INCIDENT'
p807
S''
sS'INCIDENT LOCATION'
p808
S''
sS'PHYS TGT ID'
p809
S''
sS'PERP INCIDENT CATEGORY'
p810
S''
sS'PERP ORGANIZATION ID'
p811
S''
sS'HUM TGT TYPE'
p812
S''
sS'HUM TGT TOTAL NUMBER'
p813
S''
sS'INCIDENT INSTRUMENT ID'
p814
S''
sS'INCIDENT INSTRUMENT TYPE'
p815
S''
sS'PHYS TGT FOREIGN NATION'
p816
S''
sS'HUM TGT NUMBER'
p817
S''
sS'PHYS TGT TYPE'
p818
S''
sS'HUM TGT NAME'
p819
S''
sS'INCIDENT TYPE'
p820
S''
sS'PHYS TGT NUMBER'
p821
S''
sS'PERP INDIVIDUAL ID'
p822
S''
sS'INCIDENT STAGE OF EXECUTION'
p823
S''
sS'HUM TGT DESCRIPTION'
p824
S''
sS'PHYS TGT EFFECT OF INCIDENT'
p825
S''
sS'HUM TGT FOREIGN NATION'
p826
S''
sS'INCIDENT DATE'
p827
S''
sS'MESSAGE TEMPLATE'
p828
S''
sS'PHYS TGT TOTAL NUMBER'
p829
S''
ssS'TST3MUC40021'
p830
(dp831
S'PERP ORGANIZATION CONFIDENCE'
p832
S''
sS'HUM TGT EFFECT OF INCIDENT'
p833
S''
sS'INCIDENT LOCATION'
p834
S''
sS'PHYS TGT ID'
p835
S''
sS'PERP INCIDENT CATEGORY'
p836
S''
sS'PERP ORGANIZATION ID'
p837
S''
sS'HUM TGT TYPE'
p838
S''
sS'HUM TGT TOTAL NUMBER'
p839
S''
sS'INCIDENT INSTRUMENT ID'
p840
S''
sS'INCIDENT INSTRUMENT TYPE'
p841
S''
sS'PHYS TGT FOREIGN NATION'
p842
S''
sS'HUM TGT NUMBER'
p843
S''
sS'PHYS TGT TYPE'
p844
S''
sS'HUM TGT NAME'
p845
S''
sS'INCIDENT TYPE'
p846
S''
sS'PHYS TGT NUMBER'
p847
S''
sS'PERP INDIVIDUAL ID'
p848
S''
sS'INCIDENT STAGE OF EXECUTION'
p849
S''
sS'HUM TGT DESCRIPTION'
p850
S''
sS'PHYS TGT EFFECT OF INCIDENT'
p851
S''
sS'HUM TGT FOREIGN NATION'
p852
S''
sS'INCIDENT DATE'
p853
S''
sS'MESSAGE TEMPLATE'
p854
S''
sS'PHYS TGT TOTAL NUMBER'
p855
S''
ssS'TST3MUC40020'
p856
(dp857
S'PERP ORGANIZATION CONFIDENCE'
p858
S''
sS'HUM TGT EFFECT OF INCIDENT'
p859
S'DEATH YOUNG US CITIZENS US CITIZENS CITIZENS'
p860
sS'INCIDENT LOCATION'
p861
S'BOLIVIA LA PAZ DEPARTMENT'
p862
sS'PHYS TGT ID'
p863
S''
sS'PERP INCIDENT CATEGORY'
p864
S''
sS'PERP ORGANIZATION ID'
p865
S''
sS'HUM TGT TYPE'
p866
S'CIVILIAN YOUNG US CITIZENS US CITIZENS CITIZENS'
p867
sS'HUM TGT TOTAL NUMBER'
p868
S''
sS'INCIDENT INSTRUMENT ID'
p869
S''
sS'INCIDENT INSTRUMENT TYPE'
p870
S''
sS'PHYS TGT FOREIGN NATION'
p871
S''
sS'HUM TGT NUMBER'
p872
S'2 YOUNG US CITIZENS US CITIZENS CITIZENS'
p873
sS'PHYS TGT TYPE'
p874
S''
sS'HUM TGT NAME'
p875
S''
sS'INCIDENT TYPE'
p876
S'ATTACK'
p877
sS'PHYS TGT NUMBER'
p878
S''
sS'PERP INDIVIDUAL ID'
p879
S'FOUR PERUVIANS SUSPECTS PERUVIANS SUSPECTS FOUR PERUVIANS PERUVIANS'
p880
sS'INCIDENT STAGE OF EXECUTION'
p881
S'ACCOMPLISHED'
p882
sS'HUM TGT DESCRIPTION'
p883
S'YOUNG US CITIZENS US CITIZENS CITIZENS'
p884
sS'PHYS TGT EFFECT OF INCIDENT'
p885
S''
sS'HUM TGT FOREIGN NATION'
p886
S'UNITED STATES YOUNG US CITIZENS US CITIZENS CITIZENS'
p887
sS'INCIDENT DATE'
p888
S'30 MAY 89'
p889
sS'MESSAGE TEMPLATE'
p890
S'1'
sS'PHYS TGT TOTAL NUMBER'
p891
S''
ssS'TST3MUC40023'
p892
(dp893
S'PERP ORGANIZATION CONFIDENCE'
p894
S''
sS'HUM TGT EFFECT OF INCIDENT'
p895
S'DEATH ANTONIO ROLDAN BETANCUR'
p896
sS'INCIDENT LOCATION'
p897
S'COLOMBIA'
p898
sS'PHYS TGT ID'
p899
S''
sS'PERP INCIDENT CATEGORY'
p900
S'TERRORIST ACT'
p901
sS'PERP ORGANIZATION ID'
p902
S''
sS'HUM TGT TYPE'
p903
S'GOVERNMENT OFFICIAL ANTONIO ROLDAN BETANCUR'
p904
sS'HUM TGT TOTAL NUMBER'
p905
S''
sS'INCIDENT INSTRUMENT ID'
p906
S''
sS'INCIDENT INSTRUMENT TYPE'
p907
S''
sS'PHYS TGT FOREIGN NATION'
p908
S''
sS'HUM TGT NUMBER'
p909
S'1 ANTONIO ROLDAN BETANCUR'
p910
sS'PHYS TGT TYPE'
p911
S''
sS'HUM TGT NAME'
p912
S'ANTONIO ROLDAN BETANCUR'
p913
sS'INCIDENT TYPE'
p914
S'ATTACK'
p915
sS'PHYS TGT NUMBER'
p916
S''
sS'PERP INDIVIDUAL ID'
p917
S'NARCOTICS MAFIA'
p918
sS'INCIDENT STAGE OF EXECUTION'
p919
S'ACCOMPLISHED'
p920
sS'HUM TGT DESCRIPTION'
p921
S'GOVERNOR OF THE DEPARTMENT OF ANTIOQUIA GOVERNOR ANTONIO ROLDAN BETANCUR'
p922
sS'PHYS TGT EFFECT OF INCIDENT'
p923
S''
sS'HUM TGT FOREIGN NATION'
p924
S''
sS'INCIDENT DATE'
p925
S'12 JUL 89'
p926
sS'MESSAGE TEMPLATE'
p927
S'1'
sS'PHYS TGT TOTAL NUMBER'
p928
S''
ssS'TST3MUC40022'
p929
(dp930
S'PERP ORGANIZATION CONFIDENCE'
p931
S'SUSPECTED OR ACCUSED SHINING PATH'
p932
sS'HUM TGT EFFECT OF INCIDENT'
p933
S'DEATH DOLORES HINOSTROZA'
p934
sS'INCIDENT LOCATION'
p935
S'PERU MULQUI DISTRICT PERU HUANCAYO CITY PERU'
p936
sS'PHYS TGT ID'
p937
S''
sS'PERP INCIDENT CATEGORY'
p938
S'TERRORIST ACT'
p939
sS'PERP ORGANIZATION ID'
p940
S'SHINING PATH'
p941
sS'HUM TGT TYPE'
p942
S'GOVERNMENT OFFICIAL DOLORES HINOSTROZA'
p943
sS'HUM TGT TOTAL NUMBER'
p944
S''
sS'INCIDENT INSTRUMENT ID'
p945
S''
sS'INCIDENT INSTRUMENT TYPE'
p946
S'GUN'
p947
sS'PHYS TGT FOREIGN NATION'
p948
S''
sS'HUM TGT NUMBER'
p949
S'1 DOLORES HINOSTROZA'
p950
sS'PHYS TGT TYPE'
p951
S''
sS'HUM TGT NAME'
p952
S'DOLORES HINOSTROZA'
p953
sS'INCIDENT TYPE'
p954
S'ATTACK'
p955
sS'PHYS TGT NUMBER'
p956
S''
sS'PERP INDIVIDUAL ID'
p957
S'FOUR HOODED INDIVIDUALS HOODED INDIVIDUALS'
p958
sS'INCIDENT STAGE OF EXECUTION'
p959
S'ACCOMPLISHED'
p960
sS'HUM TGT DESCRIPTION'
p961
S'MAYOR OF MULQUI DISTRICT MAYOR WOMAN MAYOR DOLORES HINOSTROZA'
p962
sS'PHYS TGT EFFECT OF INCIDENT'
p963
S''
sS'HUM TGT FOREIGN NATION'
p964
S''
sS'INCIDENT DATE'
p965
S'30 JUN 89'
p966
sS'MESSAGE TEMPLATE'
p967
S'1'
sS'PHYS TGT TOTAL NUMBER'
p968
S''
ssS'TST3MUC40029'
p969
(dp970
S'PERP ORGANIZATION CONFIDENCE'
p971
S''
sS'HUM TGT EFFECT OF INCIDENT'
p972
S''
sS'INCIDENT LOCATION'
p973
S''
sS'PHYS TGT ID'
p974
S''
sS'PERP INCIDENT CATEGORY'
p975
S''
sS'PERP ORGANIZATION ID'
p976
S''
sS'HUM TGT TYPE'
p977
S''
sS'HUM TGT TOTAL NUMBER'
p978
S''
sS'INCIDENT INSTRUMENT ID'
p979
S''
sS'INCIDENT INSTRUMENT TYPE'
p980
S''
sS'PHYS TGT FOREIGN NATION'
p981
S''
sS'HUM TGT NUMBER'
p982
S''
sS'PHYS TGT TYPE'
p983
S''
sS'HUM TGT NAME'
p984
S''
sS'INCIDENT TYPE'
p985
S''
sS'PHYS TGT NUMBER'
p986
S''
sS'PERP INDIVIDUAL ID'
p987
S''
sS'INCIDENT STAGE OF EXECUTION'
p988
S''
sS'HUM TGT DESCRIPTION'
p989
S''
sS'PHYS TGT EFFECT OF INCIDENT'
p990
S''
sS'HUM TGT FOREIGN NATION'
p991
S''
sS'INCIDENT DATE'
p992
S''
sS'MESSAGE TEMPLATE'
p993
S''
sS'PHYS TGT TOTAL NUMBER'
p994
S''
ssS'TST3MUC40028'
p995
(dp996
S'PERP ORGANIZATION CONFIDENCE'
p997
S''
sS'HUM TGT EFFECT OF INCIDENT'
p998
S''
sS'INCIDENT LOCATION'
p999
S''
sS'PHYS TGT ID'
p1000
S''
sS'PERP INCIDENT CATEGORY'
p1001
S''
sS'PERP ORGANIZATION ID'
p1002
S''
sS'HUM TGT TYPE'
p1003
S''
sS'HUM TGT TOTAL NUMBER'
p1004
S''
sS'INCIDENT INSTRUMENT ID'
p1005
S''
sS'INCIDENT INSTRUMENT TYPE'
p1006
S''
sS'PHYS TGT FOREIGN NATION'
p1007
S''
sS'HUM TGT NUMBER'
p1008
S''
sS'PHYS TGT TYPE'
p1009
S''
sS'HUM TGT NAME'
p1010
S''
sS'INCIDENT TYPE'
p1011
S''
sS'PHYS TGT NUMBER'
p1012
S''
sS'PERP INDIVIDUAL ID'
p1013
S''
sS'INCIDENT STAGE OF EXECUTION'
p1014
S''
sS'HUM TGT DESCRIPTION'
p1015
S''
sS'PHYS TGT EFFECT OF INCIDENT'
p1016
S''
sS'HUM TGT FOREIGN NATION'
p1017
S''
sS'INCIDENT DATE'
p1018
S''
sS'MESSAGE TEMPLATE'
p1019
S''
sS'PHYS TGT TOTAL NUMBER'
p1020
S''
ssS'TST3MUC40050'
p1021
(dp1022
S'PERP ORGANIZATION CONFIDENCE'
p1023
S'REPORTED AS FACT FMLN'
p1024
sS'HUM TGT EFFECT OF INCIDENT'
p1025
S''
sS'INCIDENT LOCATION'
p1026
S'EL SALVADOR CABANAS DEPARTMENT MATASANO CANTON LOS HERNANDEZ TOWN'
p1027
sS'PHYS TGT ID'
p1028
S'PYLONS'
p1029
sS'PERP INCIDENT CATEGORY'
p1030
S'TERRORIST ACT'
p1031
sS'PERP ORGANIZATION ID'
p1032
S'FMLN'
p1033
sS'HUM TGT TYPE'
p1034
S''
sS'HUM TGT TOTAL NUMBER'
p1035
S''
sS'INCIDENT INSTRUMENT ID'
p1036
S''
sS'INCIDENT INSTRUMENT TYPE'
p1037
S'EXPLOSIVE'
p1038
sS'PHYS TGT FOREIGN NATION'
p1039
S''
sS'HUM TGT NUMBER'
p1040
S''
sS'PHYS TGT TYPE'
p1041
S'ENERGY PYLONS'
p1042
sS'HUM TGT NAME'
p1043
S''
sS'INCIDENT TYPE'
p1044
S'BOMBING'
p1045
sS'PHYS TGT NUMBER'
p1046
S'4 PYLONS'
p1047
sS'PERP INDIVIDUAL ID'
p1048
S'FMLN UNIT UNIT'
p1049
sS'INCIDENT STAGE OF EXECUTION'
p1050
S'ACCOMPLISHED'
p1051
sS'HUM TGT DESCRIPTION'
p1052
S''
sS'PHYS TGT EFFECT OF INCIDENT'
p1053
S'DESTROYED PYLONS'
p1054
sS'HUM TGT FOREIGN NATION'
p1055
S''
sS'INCIDENT DATE'
p1056
S'04 NOV 89'
p1057
sS'MESSAGE TEMPLATE'
p1058
S'2'
sS'PHYS TGT TOTAL NUMBER'
p1059
S''
ssS'TST3MUC40051'
p1060
(dp1061
S'PERP ORGANIZATION CONFIDENCE'
p1062
S''
sS'HUM TGT EFFECT OF INCIDENT'
p1063
S'DEATH MEDELLIN JUDGE JUDGE'
p1064
sS'INCIDENT LOCATION'
p1065
S'COLOMBIA VALLE DEL CAUCA DEPARTMENT'
p1066
sS'JUSTICE MINISTRY EMPLOYEES'
p1067
S''
sS'PERP INCIDENT CATEGORY'
p1068
S''
sS'PERP ORGANIZATION ID'
p1069
S''
sS'HUM TGT TYPE'
p1070
S'LEGAL OR JUDICIAL MEDELLIN JUDGE JUDGE'
p1071
sS'HUM TGT TOTAL NUMBER'
p1072
S''
sS'INCIDENT INSTRUMENT ID'
p1073
S''
sS'INCIDENT INSTRUMENT TYPE'
p1074
S''
sS'PHYS TGT FOREIGN NATION'
p1075
S''
sS'HUM TGT NUMBER'
p1076
S'1 MEDELLIN JUDGE JUDGE'
p1077
sS'PHYS TGT TYPE'
p1078
S''
sS'HUM TGT NAME'
p1079
S''
sS'INCIDENT TYPE'
p1080
S'ATTACK'
p1081
sS'PHYS TGT NUMBER'
p1082
S''
sS'PHYS TGT ID'
p1083
S''
sS'PERP INDIVIDUAL ID'
p1084
S''
sS'INCIDENT STAGE OF EXECUTION'
p1085
S'ACCOMPLISHED'
p1086
sS'HUM TGT DESCRIPTION'
p1087
S'MEDELLIN JUDGE JUDGE'
p1088
sS'PHYS TGT EFFECT OF INCIDENT'
p1089
S''
sS'HUM TGT FOREIGN NATION'
p1090
S''
sS'INCIDENT DATE'
p1091
S'06 NOV 89'
p1092
sS'MESSAGE TEMPLATE'
p1093
S'1'
sS'PHYS TGT TOTAL NUMBER'
p1094
S''
ssS'TST3MUC40052'
p1095
(dp1096
S'PERP ORGANIZATION CONFIDENCE'
p1097
S''
sS'HUM TGT EFFECT OF INCIDENT'
p1098
S''
sS'INCIDENT LOCATION'
p1099
S''
sS'PHYS TGT ID'
p1100
S''
sS'PERP INCIDENT CATEGORY'
p1101
S''
sS'PERP ORGANIZATION ID'
p1102
S''
sS'HUM TGT TYPE'
p1103
S''
sS'HUM TGT TOTAL NUMBER'
p1104
S''
sS'INCIDENT INSTRUMENT ID'
p1105
S''
sS'INCIDENT INSTRUMENT TYPE'
p1106
S''
sS'PHYS TGT FOREIGN NATION'
p1107
S''
sS'HUM TGT NUMBER'
p1108
S''
sS'PHYS TGT TYPE'
p1109
S''
sS'HUM TGT NAME'
p1110
S''
sS'INCIDENT TYPE'
p1111
S''
sS'PHYS TGT NUMBER'
p1112
S''
sS'PERP INDIVIDUAL ID'
p1113
S''
sS'INCIDENT STAGE OF EXECUTION'
p1114
S''
sS'HUM TGT DESCRIPTION'
p1115
S''
sS'PHYS TGT EFFECT OF INCIDENT'
p1116
S''
sS'HUM TGT FOREIGN NATION'
p1117
S''
sS'INCIDENT DATE'
p1118
S''
sS'MESSAGE TEMPLATE'
p1119
S''
sS'PHYS TGT TOTAL NUMBER'
p1120
S''
ssS'TST3MUC40053'
p1121
(dp1122
S'PERP ORGANIZATION CONFIDENCE'
p1123
S''
sS'HUM TGT EFFECT OF INCIDENT'
p1124
S''
sS'INCIDENT LOCATION'
p1125
S'EL SALVADOR'
p1126
sS'PHYS TGT ID'
p1127
S'FENASTRAS'
p1128
sS'PERP INCIDENT CATEGORY'
p1129
S'STATESPONSORED VIOLENCE'
p1130
sS'PERP ORGANIZATION ID'
p1131
S''
sS'HUM TGT TYPE'
p1132
S'CIVILIAN FENASTRAS'
p1133
sS'HUM TGT TOTAL NUMBER'
p1134
S''
sS'INCIDENT INSTRUMENT ID'
p1135
S''
sS'INCIDENT INSTRUMENT TYPE'
p1136
S''
sS'PHYS TGT FOREIGN NATION'
p1137
S''
sS'HUM TGT NUMBER'
p1138
S'1 PLURAL FENASTRAS'
p1139
sS'PHYS TGT TYPE'
p1140
S'OTHER FENASTRAS'
p1141
sS'HUM TGT NAME'
p1142
S'FENASTRAS'
p1143
sS'INCIDENT TYPE'
p1144
S'ATTACK'
p1145
sS'PHYS TGT NUMBER'
p1146
S'1 PLURAL FENASTRAS'
p1147
sS'PERP INDIVIDUAL ID'
p1148
S'COL PONCE'
p1149
sS'INCIDENT STAGE OF EXECUTION'
p1150
S'ACCOMPLISHED'
p1151
sS'HUM TGT DESCRIPTION'
p1152
S'FENASTRAS'
p1153
sS'PHYS TGT EFFECT OF INCIDENT'
p1154
S''
sS'HUM TGT FOREIGN NATION'
p1155
S''
sS'INCIDENT DATE'
p1156
S''
sS'MESSAGE TEMPLATE'
p1157
S'1'
sS'PHYS TGT TOTAL NUMBER'
p1158
S''
ssS'TST3MUC40054'
p1159
(dp1160
S'PERP ORGANIZATION CONFIDENCE'
p1161
S'REPORTED AS FACT FMLN FARABUNDO MARTI NATIONAL LIBERATION FRONT'
p1162
sS'HUM TGT EFFECT OF INCIDENT'
p1163
S'INJURY MINOR'
p1164
sS'INCIDENT LOCATION'
p1165
S'EL SALVADOR USULUTAN CITY'
p1166
sS'PHYS TGT ID'
p1167
S'6TH INFANTRY BRIGADE'
p1168
sS'PERP INCIDENT CATEGORY'
p1169
S'TERRORIST ACT'
p1170
sS'PERP ORGANIZATION ID'
p1171
S'FMLN FARABUNDO MARTI NATIONAL LIBERATION FRONT'
p1172
sS'HUM TGT TYPE'
p1173
S'CIVILIAN MINOR'
p1174
sS'HUM TGT TOTAL NUMBER'
p1175
S''
sS'INCIDENT INSTRUMENT ID'
p1176
S''
sS'INCIDENT INSTRUMENT TYPE'
p1177
S''
sS'PHYS TGT FOREIGN NATION'
p1178
S''
sS'HUM TGT NUMBER'
p1179
S'1 MINOR'
p1180
sS'PHYS TGT TYPE'
p1181
S'OTHER 6TH INFANTRY BRIGADE'
p1182
sS'HUM TGT NAME'
p1183
S'6TH INFANTRY BRIGADE'
p1184
sS'INCIDENT TYPE'
p1185
S'ATTACK'
p1186
sS'PHYS TGT NUMBER'
p1187
S'1 6TH INFANTRY BRIGADE'
p1188
sS'PERP INDIVIDUAL ID'
p1189
S'FMLN FARABUNDO MARTI NATIONAL LIBERATION FRONT TERRORISTS TERRORISTS'
p1190
sS'INCIDENT STAGE OF EXECUTION'
p1191
S'ACCOMPLISHED'
p1192
sS'HUM TGT DESCRIPTION'
p1193
S'MINOR'
p1194
sS'PHYS TGT EFFECT OF INCIDENT'
p1195
S''
sS'HUM TGT FOREIGN NATION'
p1196
S''
sS'INCIDENT DATE'
p1197
S'11 NOV 89'
p1198
sS'MESSAGE TEMPLATE'
p1199
S'2'
sS'PHYS TGT TOTAL NUMBER'
p1200
S''
ssS'TST3MUC40055'
p1201
(dp1202
S'PERP ORGANIZATION CONFIDENCE'
p1203
S'REPORTED AS FACT FMLN FARABUNDO MARTI NATIONAL LIBERATION FRONT'
p1204
sS'HUM TGT EFFECT OF INCIDENT'
p1205
S'DEATH CIVILIANS'
p1206
sS'INCIDENT LOCATION'
p1207
S'EL SALVADOR ZACAMIL NEIGHBORHOOD'
p1208
sS'PHYS TGT ID'
p1209
S''
sS'PERP INCIDENT CATEGORY'
p1210
S'STATESPONSORED VIOLENCE TERRORIST ACT'
p1211
sS'PERP ORGANIZATION ID'
p1212
S'FMLN FARABUNDO MARTI NATIONAL LIBERATION FRONT'
p1213
sS'HUM TGT TYPE'
p1214
S'CIVILIAN CIVILIANS'
p1215
sS'HUM TGT TOTAL NUMBER'
p1216
S''
sS'INCIDENT INSTRUMENT ID'
p1217
S''
sS'INCIDENT INSTRUMENT TYPE'
p1218
S'BOMB'
p1219
sS'PHYS TGT FOREIGN NATION'
p1220
S''
sS'HUM TGT NUMBER'
p1221
S'2 CIVILIANS'
p1222
sS'PHYS TGT TYPE'
p1223
S''
sS'HUM TGT NAME'
p1224
S''
sS'INCIDENT TYPE'
p1225
S'ATTACK BOMBING'
p1226
sS'PHYS TGT NUMBER'
p1227
S''
sS'CIVILIANS MORE'
p1228
S''
sS'PERP INDIVIDUAL ID'
p1229
S'REBELS'
p1230
sS'CHILDREN'
p1231
S''
sS'INCIDENT STAGE OF EXECUTION'
p1232
S'ACCOMPLISHED'
p1233
sS'HUM TGT DESCRIPTION'
p1234
S'CIVILIANS'
p1235
sS'PHYS TGT EFFECT OF INCIDENT'
p1236
S''
sS'HUM TGT FOREIGN NATION'
p1237
S''
sS'INCIDENT DATE'
p1238
S'11 NOV 89 12 NOV 89'
p1239
sS'MESSAGE TEMPLATE'
p1240
S'3'
sS'PHYS TGT TOTAL NUMBER'
p1241
S''
ssS'TST3MUC40056'
p1242
(dp1243
S'PERP ORGANIZATION CONFIDENCE'
p1244
S'REPORTED AS FACT ARMED FORCES'
p1245
sS'HUM TGT EFFECT OF INCIDENT'
p1246
S'INJURY CIVILIANS'
p1247
sS'INCIDENT LOCATION'
p1248
S'EL SALVADOR SAN SALVADOR CITY MEJICANOS NEIGHBORHOOD'
p1249
sS'PHYS TGT ID'
p1250
S''
sS'PERP INCIDENT CATEGORY'
p1251
S'STATESPONSORED VIOLENCE'
p1252
sS'PERP ORGANIZATION ID'
p1253
S'ARMED FORCES'
p1254
sS'HUM TGT TYPE'
p1255
S'CIVILIAN CIVILIANS'
p1256
sS'HUM TGT TOTAL NUMBER'
p1257
S''
sS'INCIDENT INSTRUMENT ID'
p1258
S''
sS'INCIDENT INSTRUMENT TYPE'
p1259
S'GUN'
p1260
sS'PHYS TGT FOREIGN NATION'
p1261
S''
sS'HUM TGT NUMBER'
p1262
S'PLURAL CIVILIANS'
p1263
sS'PHYS TGT TYPE'
p1264
S''
sS'HUM TGT NAME'
p1265
S''
sS'INCIDENT TYPE'
p1266
S'ATTACK BOMBING'
p1267
sS'PHYS TGT NUMBER'
p1268
S''
sS'PERP INDIVIDUAL ID'
p1269
S''
sS'INCIDENT STAGE OF EXECUTION'
p1270
S'ACCOMPLISHED'
p1271
sS'HUM TGT DESCRIPTION'
p1272
S'CIVILIANS'
p1273
sS'PHYS TGT EFFECT OF INCIDENT'
p1274
S''
sS'HUM TGT FOREIGN NATION'
p1275
S''
sS'INCIDENT DATE'
p1276
S'13 NOV 89'
p1277
sS'MESSAGE TEMPLATE'
p1278
S'1'
sS'PHYS TGT TOTAL NUMBER'
p1279
S''
ssS'TST3MUC40057'
p1280
(dp1281
S'PERP ORGANIZATION CONFIDENCE'
p1282
S'REPORTED AS FACT FARABUNDO MARTI NATIONAL LIBERATION FRONT FMLN'
p1283
sS'HUM TGT EFFECT OF INCIDENT'
p1284
S'DEATH SOLDIERS'
p1285
sS'INCIDENT LOCATION'
p1286
S'EL SALVADOR'
p1287
sS'PHYS TGT ID'
p1288
S''
sS'PERP INCIDENT CATEGORY'
p1289
S'TERRORIST ACT'
p1290
sS'PERP ORGANIZATION ID'
p1291
S'FARABUNDO MARTI NATIONAL LIBERATION FRONT FMLN'
p1292
sS'HUM TGT TYPE'
p1293
S'ACTIVE MILITARY SOLDIERS'
p1294
sS'HUM TGT TOTAL NUMBER'
p1295
S''
sS'INCIDENT INSTRUMENT ID'
p1296
S''
sS'INCIDENT INSTRUMENT TYPE'
p1297
S''
sS'PHYS TGT FOREIGN NATION'
p1298
S''
sS'HUM TGT NUMBER'
p1299
S'139 313 PLURAL SOLDIERS'
p1300
sS'PHYS TGT TYPE'
p1301
S''
sS'HUM TGT NAME'
p1302
S''
sS'INCIDENT TYPE'
p1303
S'ATTACK'
p1304
sS'PHYS TGT NUMBER'
p1305
S''
sS'PERP INDIVIDUAL ID'
p1306
S'SALVADORAN REBELS REBELS'
p1307
sS'INCIDENT STAGE OF EXECUTION'
p1308
S'ACCOMPLISHED'
p1309
sS'HUM TGT DESCRIPTION'
p1310
S'SOLDIERS'
p1311
sS'PHYS TGT EFFECT OF INCIDENT'
p1312
S''
sS'HUM TGT FOREIGN NATION'
p1313
S''
sS'INCIDENT DATE'
p1314
S'11 NOV 89 13 NOV 89'
p1315
sS'MESSAGE TEMPLATE'
p1316
S'1 OPTIONAL'
p1317
sS'PHYS TGT TOTAL NUMBER'
p1318
S''
ssS'TST3MUC40058'
p1319
(dp1320
S'PERP ORGANIZATION CONFIDENCE'
p1321
S''
sS'HUM TGT EFFECT OF INCIDENT'
p1322
S''
sS'INCIDENT LOCATION'
p1323
S''
sS'PHYS TGT ID'
p1324
S''
sS'PERP INCIDENT CATEGORY'
p1325
S''
sS'PERP ORGANIZATION ID'
p1326
S''
sS'HUM TGT TYPE'
p1327
S''
sS'HUM TGT TOTAL NUMBER'
p1328
S''
sS'INCIDENT INSTRUMENT ID'
p1329
S''
sS'INCIDENT INSTRUMENT TYPE'
p1330
S''
sS'PHYS TGT FOREIGN NATION'
p1331
S''
sS'HUM TGT NUMBER'
p1332
S''
sS'PHYS TGT TYPE'
p1333
S''
sS'HUM TGT NAME'
p1334
S''
sS'INCIDENT TYPE'
p1335
S''
sS'PHYS TGT NUMBER'
p1336
S''
sS'PERP INDIVIDUAL ID'
p1337
S''
sS'INCIDENT STAGE OF EXECUTION'
p1338
S''
sS'HUM TGT DESCRIPTION'
p1339
S''
sS'PHYS TGT EFFECT OF INCIDENT'
p1340
S''
sS'HUM TGT FOREIGN NATION'
p1341
S''
sS'INCIDENT DATE'
p1342
S''
sS'MESSAGE TEMPLATE'
p1343
S''
sS'PHYS TGT TOTAL NUMBER'
p1344
S''
ssS'TST3MUC40059'
p1345
(dp1346
S'PERP ORGANIZATION CONFIDENCE'
p1347
S''
sS'HUM TGT EFFECT OF INCIDENT'
p1348
S''
sS'INCIDENT LOCATION'
p1349
S''
sS'PHYS TGT ID'
p1350
S''
sS'PERP INCIDENT CATEGORY'
p1351
S''
sS'PERP ORGANIZATION ID'
p1352
S''
sS'HUM TGT TYPE'
p1353
S''
sS'HUM TGT TOTAL NUMBER'
p1354
S''
sS'INCIDENT INSTRUMENT ID'
p1355
S''
sS'INCIDENT INSTRUMENT TYPE'
p1356
S''
sS'PHYS TGT FOREIGN NATION'
p1357
S''
sS'HUM TGT NUMBER'
p1358
S''
sS'PHYS TGT TYPE'
p1359
S''
sS'HUM TGT NAME'
p1360
S''
sS'INCIDENT TYPE'
p1361
S''
sS'PHYS TGT NUMBER'
p1362
S''
sS'PERP INDIVIDUAL ID'
p1363
S''
sS'INCIDENT STAGE OF EXECUTION'
p1364
S''
sS'HUM TGT DESCRIPTION'
p1365
S''
sS'PHYS TGT EFFECT OF INCIDENT'
p1366
S''
sS'HUM TGT FOREIGN NATION'
p1367
S''
sS'INCIDENT DATE'
p1368
S''
sS'MESSAGE TEMPLATE'
p1369
S''
sS'PHYS TGT TOTAL NUMBER'
p1370
S''
ssS'TST3MUC40043'
p1371
(dp1372
S'PERP ORGANIZATION CONFIDENCE'
p1373
S''
sS'HUM TGT EFFECT OF INCIDENT'
p1374
S'DEATH ARNULFO ROMERO'
p1375
sS'INCIDENT LOCATION'
p1376
S'EL SALVADOR'
p1377
sS'PHYS TGT ID'
p1378
S''
sS'PERP INCIDENT CATEGORY'
p1379
S''
sS'PERP ORGANIZATION ID'
p1380
S''
sS'HUM TGT TYPE'
p1381
S'CIVILIAN ARNULFO ROMERO'
p1382
sS'HUM TGT TOTAL NUMBER'
p1383
S''
sS'INCIDENT INSTRUMENT ID'
p1384
S''
sS'INCIDENT INSTRUMENT TYPE'
p1385
S''
sS'PHYS TGT FOREIGN NATION'
p1386
S''
sS'HUM TGT NUMBER'
p1387
S'1 ARNULFO ROMERO'
p1388
sS'PHYS TGT TYPE'
p1389
S''
sS'HUM TGT NAME'
p1390
S'ARNULFO ROMERO'
p1391
sS'INCIDENT TYPE'
p1392
S'ATTACK'
p1393
sS'PHYS TGT NUMBER'
p1394
S''
sS'PERP INDIVIDUAL ID'
p1395
S''
sS'INCIDENT STAGE OF EXECUTION'
p1396
S'ACCOMPLISHED'
p1397
sS'HUM TGT DESCRIPTION'
p1398
S'MONSIGNOR ARNULFO ROMERO'
p1399
sS'PHYS TGT EFFECT OF INCIDENT'
p1400
S''
sS'HUM TGT FOREIGN NATION'
p1401
S''
sS'INCIDENT DATE'
p1402
S'29 SEP 89'
p1403
sS'MESSAGE TEMPLATE'
p1404
S'1'
sS'PHYS TGT TOTAL NUMBER'
p1405
S''
ssS'TST3MUC40042'
p1406
(dp1407
S'PERP ORGANIZATION CONFIDENCE'
p1408
S''
sS'HUM TGT EFFECT OF INCIDENT'
p1409
S''
sS'INCIDENT LOCATION'
p1410
S''
sS'PHYS TGT ID'
p1411
S''
sS'PERP INCIDENT CATEGORY'
p1412
S''
sS'PERP ORGANIZATION ID'
p1413
S''
sS'HUM TGT TYPE'
p1414
S''
sS'HUM TGT TOTAL NUMBER'
p1415
S''
sS'INCIDENT INSTRUMENT ID'
p1416
S''
sS'INCIDENT INSTRUMENT TYPE'
p1417
S''
sS'PHYS TGT FOREIGN NATION'
p1418
S''
sS'HUM TGT NUMBER'
p1419
S''
sS'PHYS TGT TYPE'
p1420
S''
sS'HUM TGT NAME'
p1421
S''
sS'INCIDENT TYPE'
p1422
S''
sS'PHYS TGT NUMBER'
p1423
S''
sS'PERP INDIVIDUAL ID'
p1424
S''
sS'INCIDENT STAGE OF EXECUTION'
p1425
S''
sS'HUM TGT DESCRIPTION'
p1426
S''
sS'PHYS TGT EFFECT OF INCIDENT'
p1427
S''
sS'HUM TGT FOREIGN NATION'
p1428
S''
sS'INCIDENT DATE'
p1429
S''
sS'MESSAGE TEMPLATE'
p1430
S''
sS'PHYS TGT TOTAL NUMBER'
p1431
S''
ssS'TST3MUC40041'
p1432
(dp1433
S'PERP ORGANIZATION CONFIDENCE'
p1434
S''
sS'HUM TGT EFFECT OF INCIDENT'
p1435
S'INJURY EMPLOYEES OF THE GAS STATION WHERE THE CAR BOMB WENT OFF EMPLOYEES OF THE GAS STATION'
p1436
sS'INCIDENT LOCATION'
p1437
S'COLOMBIA SUBA MUNICIPALITY'
p1438
sS'PHYS TGT ID'
p1439
S'GAS STATION'
p1440
sS'PERP INCIDENT CATEGORY'
p1441
S''
sS'PERP ORGANIZATION ID'
p1442
S''
sS'HUM TGT TYPE'
p1443
S'CIVILIAN EMPLOYEES OF THE GAS STATION WHERE THE CAR BOMB WENT OFF EMPLOYEES OF THE GAS STATION'
p1444
sS'HUM TGT TOTAL NUMBER'
p1445
S''
sS'INCIDENT INSTRUMENT ID'
p1446
S'CAR BOMB'
p1447
sS'INCIDENT INSTRUMENT TYPE'
p1448
S'VEHICLE BOMB CAR BOMB'
p1449
sS'PHYS TGT FOREIGN NATION'
p1450
S''
sS'HUM TGT NUMBER'
p1451
S'3 EMPLOYEES OF THE GAS STATION WHERE THE CAR BOMB WENT OFF EMPLOYEES OF THE GAS STATION'
p1452
sS'PHYS TGT TYPE'
p1453
S'COMMERCIAL GAS STATION'
p1454
sS'HUM TGT NAME'
p1455
S''
sS'INCIDENT TYPE'
p1456
S'BOMBING'
p1457
sS'PHYS TGT NUMBER'
p1458
S'1 GAS STATION'
p1459
sS'PEOPLE WHO WERE WALKING BY THE'
p1460
S'GAS STATION AT THE MOMENT OF THE EXPLOSION PEOPLE WHO WERE WALKING BY THE GAS STATION PEOPLE'
p1461
sS'PERP INDIVIDUAL ID'
p1462
S'TWO PEOPLE PEOPLE TWO PEOPLE WHO WERE KILLED PEOPLE WHO WERE KILLED'
p1463
sS'INCIDENT STAGE OF EXECUTION'
p1464
S'ACCOMPLISHED'
p1465
sS'HUM TGT DESCRIPTION'
p1466
S'EMPLOYEES OF THE GAS STATION WHERE THE CAR BOMB WENT OFF EMPLOYEES OF THE GAS STATION'
p1467
sS'PHYS TGT EFFECT OF INCIDENT'
p1468
S'SOME DAMAGE GAS STATION'
p1469
sS'HUM TGT FOREIGN NATION'
p1470
S''
sS'INCIDENT DATE'
p1471
S'27 SEP 89 27 SEP 89 28 SEP 89'
p1472
sS'MESSAGE TEMPLATE'
p1473
S'1'
sS'PHYS TGT TOTAL NUMBER'
p1474
S''
ssS'TST3MUC40040'
p1475
(dp1476
S'PERP ORGANIZATION CONFIDENCE'
p1477
S''
sS'HUM TGT EFFECT OF INCIDENT'
p1478
S''
sS'INCIDENT LOCATION'
p1479
S'COLOMBIA BOGOTA CITY TEUSAQUILLO NEIGHBORHOOD'
p1480
sS'PHYS TGT ID'
p1481
S'POLITICAL OFFICES OF THE LIBERAL AND SOCIAL CONSERVATIVE PARTIES POLITICAL OFFICES'
p1482
sS'PERP INCIDENT CATEGORY'
p1483
S''
sS'PERP ORGANIZATION ID'
p1484
S''
sS'HUM TGT TYPE'
p1485
S''
sS'HUM TGT TOTAL NUMBER'
p1486
S''
sS'INCIDENT INSTRUMENT ID'
p1487
S'10 BOMBS BOMBS'
p1488
sS'INCIDENT INSTRUMENT TYPE'
p1489
S'BOMB 10 BOMBS BOMBS'
p1490
sS'PHYS TGT FOREIGN NATION'
p1491
S''
sS'HUM TGT NUMBER'
p1492
S''
sS'PHYS TGT TYPE'
p1493
S'POLITICAL FIGURE OFFICE OR RESIDENCE ORGANIZATION OFFICE POLITICAL OFFICES OF THE LIBERAL AND SOCIAL CONSERVATIVE PARTIES POLITICAL OFFICES'
p1494
sS'HUM TGT NAME'
p1495
S''
sS'INCIDENT TYPE'
p1496
S'BOMBING'
p1497
sS'BANK OFFICE'
p1498
S''
sS'PHYS TGT NUMBER'
p1499
S'9 POLITICAL OFFICES OF THE LIBERAL AND SOCIAL CONSERVATIVE PARTIES POLITICAL OFFICES'
p1500
sS'PERP INDIVIDUAL ID'
p1501
S''
sS'INCIDENT STAGE OF EXECUTION'
p1502
S'ACCOMPLISHED'
p1503
sS'HUM TGT DESCRIPTION'
p1504
S''
sS'PHYS TGT EFFECT OF INCIDENT'
p1505
S''
sS'HUM TGT FOREIGN NATION'
p1506
S''
sS'INCIDENT DATE'
p1507
S'21 SEP 89'
p1508
sS'MESSAGE TEMPLATE'
p1509
S'2'
sS'PHYS TGT TOTAL NUMBER'
p1510
S'10'
p1511
ssS'TST3MUC40047'
p1512
(dp1513
S'PERP ORGANIZATION CONFIDENCE'
p1514
S''
sS'HUM TGT EFFECT OF INCIDENT'
p1515
S''
sS'INCIDENT LOCATION'
p1516
S''
sS'PHYS TGT ID'
p1517
S''
sS'PERP INCIDENT CATEGORY'
p1518
S''
sS'PERP ORGANIZATION ID'
p1519
S''
sS'HUM TGT TYPE'
p1520
S''
sS'HUM TGT TOTAL NUMBER'
p1521
S''
sS'INCIDENT INSTRUMENT ID'
p1522
S''
sS'INCIDENT INSTRUMENT TYPE'
p1523
S''
sS'PHYS TGT FOREIGN NATION'
p1524
S''
sS'HUM TGT NUMBER'
p1525
S''
sS'PHYS TGT TYPE'
p1526
S''
sS'HUM TGT NAME'
p1527
S''
sS'INCIDENT TYPE'
p1528
S''
sS'PHYS TGT NUMBER'
p1529
S''
sS'PERP INDIVIDUAL ID'
p1530
S''
sS'INCIDENT STAGE OF EXECUTION'
p1531
S''
sS'HUM TGT DESCRIPTION'
p1532
S''
sS'PHYS TGT EFFECT OF INCIDENT'
p1533
S''
sS'HUM TGT FOREIGN NATION'
p1534
S''
sS'INCIDENT DATE'
p1535
S''
sS'MESSAGE TEMPLATE'
p1536
S''
sS'PHYS TGT TOTAL NUMBER'
p1537
S''
ssS'TST3MUC40046'
p1538
(dp1539
S'PERP ORGANIZATION CONFIDENCE'
p1540
S''
sS'HUM TGT EFFECT OF INCIDENT'
p1541
S'INJURY PEOPLE'
p1542
sS'INCIDENT LOCATION'
p1543
S'COLOMBIA BOGOTA CITY'
p1544
sS'PHYS TGT ID'
p1545
S'MAIN OFFICES IN BOGOTA OF EL ESPECTADOR'
p1546
sS'PERP INCIDENT CATEGORY'
p1547
S'TERRORIST ACT'
p1548
sS'PERP ORGANIZATION ID'
p1549
S''
sS'HUM TGT TYPE'
p1550
S'CIVILIAN PEOPLE'
p1551
sS'HUM TGT TOTAL NUMBER'
p1552
S''
sS'INCIDENT INSTRUMENT ID'
p1553
S'CAR BOMB'
p1554
sS'INCIDENT INSTRUMENT TYPE'
p1555
S'VEHICLE BOMB CAR BOMB'
p1556
sS'PHYS TGT FOREIGN NATION'
p1557
S''
sS'HUM TGT NUMBER'
p1558
S'90 PEOPLE'
p1559
sS'PHYS TGT TYPE'
p1560
S'COMMERCIAL COMMUNICATIONS MAIN OFFICES IN BOGOTA OF EL ESPECTADOR'
p1561
sS'HUM TGT NAME'
p1562
S''
sS'INCIDENT TYPE'
p1563
S'BOMBING'
p1564
sS'PHYS TGT NUMBER'
p1565
S'PLURAL MAIN OFFICES IN BOGOTA OF EL ESPECTADOR'
p1566
sS'PERP INDIVIDUAL ID'
p1567
S'DRUG TRAFFICKING MAFIA'
p1568
sS'INCIDENT STAGE OF EXECUTION'
p1569
S'ACCOMPLISHED'
p1570
sS'HUM TGT DESCRIPTION'
p1571
S'PEOPLE'
p1572
sS'PHYS TGT EFFECT OF INCIDENT'
p1573
S'SOME DAMAGE MAIN OFFICES IN BOGOTA OF EL ESPECTADOR'
p1574
sS'HUM TGT FOREIGN NATION'
p1575
S''
sS'INCIDENT DATE'
p1576
S'02 SEP 89'
p1577
sS'MESSAGE TEMPLATE'
p1578
S'3'
sS'PHYS TGT TOTAL NUMBER'
p1579
S''
ssS'TST3MUC40045'
p1580
(dp1581
S'PERP ORGANIZATION CONFIDENCE'
p1582
S''
sS'HUM TGT EFFECT OF INCIDENT'
p1583
S''
sS'INCIDENT LOCATION'
p1584
S''
sS'PHYS TGT ID'
p1585
S''
sS'PERP INCIDENT CATEGORY'
p1586
S''
sS'PERP ORGANIZATION ID'
p1587
S''
sS'HUM TGT TYPE'
p1588
S''
sS'HUM TGT TOTAL NUMBER'
p1589
S''
sS'INCIDENT INSTRUMENT ID'
p1590
S''
sS'INCIDENT INSTRUMENT TYPE'
p1591
S''
sS'PHYS TGT FOREIGN NATION'
p1592
S''
sS'HUM TGT NUMBER'
p1593
S''
sS'PHYS TGT TYPE'
p1594
S''
sS'HUM TGT NAME'
p1595
S''
sS'INCIDENT TYPE'
p1596
S''
sS'PHYS TGT NUMBER'
p1597
S''
sS'PERP INDIVIDUAL ID'
p1598
S''
sS'INCIDENT STAGE OF EXECUTION'
p1599
S''
sS'HUM TGT DESCRIPTION'
p1600
S''
sS'PHYS TGT EFFECT OF INCIDENT'
p1601
S''
sS'HUM TGT FOREIGN NATION'
p1602
S''
sS'INCIDENT DATE'
p1603
S''
sS'MESSAGE TEMPLATE'
p1604
S''
sS'PHYS TGT TOTAL NUMBER'
p1605
S''
ssS'TST3MUC40044'
p1606
(dp1607
S'PERP ORGANIZATION CONFIDENCE'
p1608
S''
sS'HUM TGT EFFECT OF INCIDENT'
p1609
S'INJURY BEATRIZ IERO'
p1610
sS'INCIDENT LOCATION'
p1611
S'ARGENTINA BUENOS AIRES CITY'
p1612
sS'PHYS TGT ID'
p1613
S'RICARDO ROJAS CULTURAL CENTER LOCATED AT 132 AYACUCHO STREET WHERE THE FORMER PRESIDENT HAS OFFICES FOR HIS POLITICAL ACTIVITIES RICARDO ROJAS CULTURAL CENTER OFFICES THAT FORMER PRESIDENT RAUL ALFONSIN HAS IN THIS CITY'
p1614
sS'PERP INCIDENT CATEGORY'
p1615
S''
sS'PERP ORGANIZATION ID'
p1616
S''
sS'HUM TGT TYPE'
p1617
S'CIVILIAN BEATRIZ IERO'
p1618
sS'HUM TGT TOTAL NUMBER'
p1619
S''
sS'INCIDENT INSTRUMENT ID'
p1620
S'BOMB'
p1621
sS'INCIDENT INSTRUMENT TYPE'
p1622
S'BOMB BOMB'
p1623
sS'PHYS TGT FOREIGN NATION'
p1624
S''
sS'HUM TGT NUMBER'
p1625
S'1 BEATRIZ IERO'
p1626
sS'PHYS TGT TYPE'
p1627
S'POLITICAL FIGURE OFFICE OR RESIDENCE RICARDO ROJAS CULTURAL CENTER LOCATED AT 132 AYACUCHO STREET WHERE THE FORMER PRESIDENT HAS OFFICES FOR HIS POLITICAL ACTIVITIES RICARDO ROJAS CULTURAL CENTER OFFICES THAT FORMER PRESIDENT RAUL ALFONSIN HAS IN THIS CITY'
p1628
sS'HUM TGT NAME'
p1629
S'BEATRIZ IERO'
p1630
sS'INCIDENT TYPE'
p1631
S'BOMBING'
p1632
sS'PHYS TGT NUMBER'
p1633
S'1 PLURAL RICARDO ROJAS CULTURAL CENTER LOCATED AT 132 AYACUCHO STREET WHERE THE FORMER PRESIDENT HAS OFFICES FOR HIS POLITICAL ACTIVITIES RICARDO ROJAS CULTURAL CENTER OFFICES THAT FORMER PRESIDENT RAUL ALFONSIN HAS IN THIS CITY'
p1634
sS'PERP INDIVIDUAL ID'
p1635
S''
sS'INCIDENT STAGE OF EXECUTION'
p1636
S'ACCOMPLISHED'
p1637
sS'HUM TGT DESCRIPTION'
p1638
S''
sS'PHYS TGT EFFECT OF INCIDENT'
p1639
S'SOME DAMAGE RICARDO ROJAS CULTURAL CENTER LOCATED AT 132 AYACUCHO STREET WHERE THE FORMER PRESIDENT HAS OFFICES FOR HIS POLITICAL ACTIVITIES RICARDO ROJAS CULTURAL CENTER OFFICES THAT FORMER PRESIDENT RAUL ALFONSIN HAS IN THIS CITY'
p1640
sS'HUM TGT FOREIGN NATION'
p1641
S''
sS'INCIDENT DATE'
p1642
S'05 OCT 89'
p1643
sS'MESSAGE TEMPLATE'
p1644
S'1'
sS'PHYS TGT TOTAL NUMBER'
p1645
S''
ssS'TST3MUC40049'
p1646
(dp1647
S'PERP ORGANIZATION CONFIDENCE'
p1648
S''
sS'HUM TGT EFFECT OF INCIDENT'
p1649
S''
sS'INCIDENT LOCATION'
p1650
S''
sS'PHYS TGT ID'
p1651
S''
sS'PERP INCIDENT CATEGORY'
p1652
S''
sS'PERP ORGANIZATION ID'
p1653
S''
sS'HUM TGT TYPE'
p1654
S''
sS'HUM TGT TOTAL NUMBER'
p1655
S''
sS'INCIDENT INSTRUMENT ID'
p1656
S''
sS'INCIDENT INSTRUMENT TYPE'
p1657
S''
sS'PHYS TGT FOREIGN NATION'
p1658
S''
sS'HUM TGT NUMBER'
p1659
S''
sS'PHYS TGT TYPE'
p1660
S''
sS'HUM TGT NAME'
p1661
S''
sS'INCIDENT TYPE'
p1662
S''
sS'PHYS TGT NUMBER'
p1663
S''
sS'PERP INDIVIDUAL ID'
p1664
S''
sS'INCIDENT STAGE OF EXECUTION'
p1665
S''
sS'HUM TGT DESCRIPTION'
p1666
S''
sS'PHYS TGT EFFECT OF INCIDENT'
p1667
S''
sS'HUM TGT FOREIGN NATION'
p1668
S''
sS'INCIDENT DATE'
p1669
S''
sS'MESSAGE TEMPLATE'
p1670
S''
sS'PHYS TGT TOTAL NUMBER'
p1671
S''
ssS'TST3MUC40048'
p1672
(dp1673
S'PERP ORGANIZATION CONFIDENCE'
p1674
S''
sS'HUM TGT EFFECT OF INCIDENT'
p1675
S'NO RESIGNATION DIANA MACK ORTIZ'
p1676
sS'INCIDENT LOCATION'
p1677
S'GUATEMALA HUEHUETENANGO DEPARTMENT GUATEMALA'
p1678
sS'PHYS TGT ID'
p1679
S''
sS'PERP INCIDENT CATEGORY'
p1680
S''
sS'PERP ORGANIZATION ID'
p1681
S''
sS'HUM TGT TYPE'
p1682
S'CIVILIAN DIANA MACK ORTIZ'
p1683
sS'HUM TGT TOTAL NUMBER'
p1684
S''
sS'INCIDENT INSTRUMENT ID'
p1685
S''
sS'INCIDENT INSTRUMENT TYPE'
p1686
S''
sS'PHYS TGT FOREIGN NATION'
p1687
S''
sS'HUM TGT NUMBER'
p1688
S'1 DIANA MACK ORTIZ'
p1689
sS'PHYS TGT TYPE'
p1690
S''
sS'HUM TGT NAME'
p1691
S'DIANA MACK ORTIZ'
p1692
sS'INCIDENT TYPE'
p1693
S'ATTACK'
p1694
sS'PHYS TGT NUMBER'
p1695
S''
sS'PERP INDIVIDUAL ID'
p1696
S''
sS'INCIDENT STAGE OF EXECUTION'
p1697
S'THREATENED'
p1698
sS'HUM TGT DESCRIPTION'
p1699
S'NUN DIANA MACK ORTIZ'
p1700
sS'PHYS TGT EFFECT OF INCIDENT'
p1701
S''
sS'HUM TGT FOREIGN NATION'
p1702
S'UNITED STATES DIANA MACK ORTIZ'
p1703
sS'INCIDENT DATE'
p1704
S'02 NOV 89'
p1705
sS'MESSAGE TEMPLATE'
p1706
S'3 OPTIONAL'
p1707
sS'PHYS TGT TOTAL NUMBER'
p1708
S''
ssS'TST3MUC40100'
p1709
(dp1710
S'PERP ORGANIZATION CONFIDENCE'
p1711
S'POSSIBLE SUSPECTED OR ACCUSED GOVERNMENT'
p1712
sS'HUM TGT EFFECT OF INCIDENT'
p1713
S'DEATH JESUIT PRIESTS PRIESTS'
p1714
sS'INCIDENT LOCATION'
p1715
S'EL SALVADOR SAN SALVADOR CITY EL SALVADOR SAN SALVADOR DEPARTMENT'
p1716
sS'PHYS TGT ID'
p1717
S''
sS'PERP INCIDENT CATEGORY'
p1718
S'STATESPONSORED VIOLENCE'
p1719
sS'PERP ORGANIZATION ID'
p1720
S'GOVERNMENT'
p1721
sS'HUM TGT TYPE'
p1722
S'CIVILIAN JESUIT PRIESTS PRIESTS'
p1723
sS'HUM TGT TOTAL NUMBER'
p1724
S''
sS'INCIDENT INSTRUMENT ID'
p1725
S''
sS'INCIDENT INSTRUMENT TYPE'
p1726
S''
sS'PHYS TGT FOREIGN NATION'
p1727
S''
sS'HUM TGT NUMBER'
p1728
S'6 JESUIT PRIESTS PRIESTS'
p1729
sS'PHYS TGT TYPE'
p1730
S''
sS'HUM TGT NAME'
p1731
S''
sS'INCIDENT TYPE'
p1732
S'ATTACK'
p1733
sS'PHYS TGT NUMBER'
p1734
S''
sS'PERP INDIVIDUAL ID'
p1735
S'SALVADORAN PRESIDENT ALFREDO CRISTIANI PRESIDENT ALFREDO CRISTIANI'
p1736
sS'INCIDENT STAGE OF EXECUTION'
p1737
S'ACCOMPLISHED'
p1738
sS'HUM TGT DESCRIPTION'
p1739
S'JESUIT PRIESTS PRIESTS'
p1740
sS'PHYS TGT EFFECT OF INCIDENT'
p1741
S''
sS'HUM TGT FOREIGN NATION'
p1742
S''
sS'INCIDENT DATE'
p1743
S'16 NOV 89'
p1744
sS'MESSAGE TEMPLATE'
p1745
S'1'
sS'PHYS TGT TOTAL NUMBER'
p1746
S''
ssS'TST3MUC40078'
p1747
(dp1748
S'PERP ORGANIZATION CONFIDENCE'
p1749
S'CLAIMED OR ADMITTED MIR MOVEMENT OF THE REVOLUTIONARY LEFT'
p1750
sS'HUM TGT EFFECT OF INCIDENT'
p1751
S'REGAINED FREEDOM ABILIO DINIZ'
p1752
sS'INCIDENT LOCATION'
p1753
S'BRAZIL'
p1754
sS'PHYS TGT ID'
p1755
S''
sS'PERP INCIDENT CATEGORY'
p1756
S'TERRORIST ACT'
p1757
sS'PERP ORGANIZATION ID'
p1758
S'MIR MOVEMENT OF THE REVOLUTIONARY LEFT'
p1759
sS'HUM TGT TYPE'
p1760
S'CIVILIAN ABILIO DINIZ'
p1761
sS'HUM TGT TOTAL NUMBER'
p1762
S''
sS'INCIDENT INSTRUMENT ID'
p1763
S''
sS'INCIDENT INSTRUMENT TYPE'
p1764
S''
sS'PHYS TGT FOREIGN NATION'
p1765
S''
sS'HUM TGT NUMBER'
p1766
S'1 ABILIO DINIZ'
p1767
sS'PHYS TGT TYPE'
p1768
S''
sS'HUM TGT NAME'
p1769
S'ABILIO DINIZ'
p1770
sS'INCIDENT TYPE'
p1771
S'KIDNAPPING'
p1772
sS'PHYS TGT NUMBER'
p1773
S''
sS'PERP INDIVIDUAL ID'
p1774
S'FIVE CHILEANS'
p1775
sS'INCIDENT STAGE OF EXECUTION'
p1776
S'ACCOMPLISHED'
p1777
sS'HUM TGT DESCRIPTION'
p1778
S'BUSINESSMAN ABILIO DINIZ'
p1779
sS'PHYS TGT EFFECT OF INCIDENT'
p1780
S''
sS'HUM TGT FOREIGN NATION'
p1781
S''
sS'INCIDENT DATE'
p1782
S'19 DEC 89 13 DEC 89'
p1783
sS'MESSAGE TEMPLATE'
p1784
S'1'
sS'PHYS TGT TOTAL NUMBER'
p1785
S''
ssS'TST3MUC40079'
p1786
(dp1787
S'PERP ORGANIZATION CONFIDENCE'
p1788
S''
sS'HUM TGT EFFECT OF INCIDENT'
p1789
S''
sS'INCIDENT LOCATION'
p1790
S''
sS'PHYS TGT ID'
p1791
S''
sS'PERP INCIDENT CATEGORY'
p1792
S''
sS'PERP ORGANIZATION ID'
p1793
S''
sS'HUM TGT TYPE'
p1794
S''
sS'HUM TGT TOTAL NUMBER'
p1795
S''
sS'INCIDENT INSTRUMENT ID'
p1796
S''
sS'INCIDENT INSTRUMENT TYPE'
p1797
S''
sS'PHYS TGT FOREIGN NATION'
p1798
S''
sS'HUM TGT NUMBER'
p1799
S''
sS'PHYS TGT TYPE'
p1800
S''
sS'HUM TGT NAME'
p1801
S''
sS'INCIDENT TYPE'
p1802
S''
sS'PHYS TGT NUMBER'
p1803
S''
sS'PERP INDIVIDUAL ID'
p1804
S''
sS'INCIDENT STAGE OF EXECUTION'
p1805
S''
sS'HUM TGT DESCRIPTION'
p1806
S''
sS'PHYS TGT EFFECT OF INCIDENT'
p1807
S''
sS'HUM TGT FOREIGN NATION'
p1808
S''
sS'INCIDENT DATE'
p1809
S''
sS'MESSAGE TEMPLATE'
p1810
S''
sS'PHYS TGT TOTAL NUMBER'
p1811
S''
ssS'TST3MUC40076'
p1812
(dp1813
S'PERP ORGANIZATION CONFIDENCE'
p1814
S'REPORTED AS FACT GOVERNMENT'
p1815
sS'HUM TGT EFFECT OF INCIDENT'
p1816
S'DEATH JESUIT PRIESTS PRIESTS'
p1817
sS'INCIDENT LOCATION'
p1818
S'EL SALVADOR'
p1819
sS'PHYS TGT ID'
p1820
S''
sS'PERP INCIDENT CATEGORY'
p1821
S'STATESPONSORED VIOLENCE'
p1822
sS'PERP ORGANIZATION ID'
p1823
S'GOVERNMENT'
p1824
sS'HUM TGT TYPE'
p1825
S'CIVILIAN JESUIT PRIESTS PRIESTS'
p1826
sS'HUM TGT TOTAL NUMBER'
p1827
S''
sS'INCIDENT INSTRUMENT ID'
p1828
S''
sS'INCIDENT INSTRUMENT TYPE'
p1829
S''
sS'PHYS TGT FOREIGN NATION'
p1830
S''
sS'HUM TGT NUMBER'
p1831
S'PLURAL JESUIT PRIESTS PRIESTS'
p1832
sS'PHYS TGT TYPE'
p1833
S''
sS'HUM TGT NAME'
p1834
S''
sS'INCIDENT TYPE'
p1835
S'ATTACK'
p1836
sS'PHYS TGT NUMBER'
p1837
S''
sS'PERP INDIVIDUAL ID'
p1838
S''
sS'INCIDENT STAGE OF EXECUTION'
p1839
S'ACCOMPLISHED'
p1840
sS'HUM TGT DESCRIPTION'
p1841
S'JESUIT PRIESTS PRIESTS'
p1842
sS'PHYS TGT EFFECT OF INCIDENT'
p1843
S''
sS'HUM TGT FOREIGN NATION'
p1844
S''
sS'INCIDENT DATE'
p1845
S'13 DEC 89'
p1846
sS'MESSAGE TEMPLATE'
p1847
S'1 OPTIONAL'
p1848
sS'PHYS TGT TOTAL NUMBER'
p1849
S''
ssS'TST3MUC40077'
p1850
(dp1851
S'PERP ORGANIZATION CONFIDENCE'
p1852
S''
sS'HUM TGT EFFECT OF INCIDENT'
p1853
S'DEATH INNOCENT PEOPLE PEOPLE'
p1854
sS'INCIDENT LOCATION'
p1855
S'COLOMBIA BOGOTA CITY'
p1856
sS'PHYS TGT ID'
p1857
S'DAS'
p1858
sS'PERP INCIDENT CATEGORY'
p1859
S'TERRORIST ACT'
p1860
sS'PERP ORGANIZATION ID'
p1861
S''
sS'HUM TGT TYPE'
p1862
S'CIVILIAN INNOCENT PEOPLE PEOPLE'
p1863
sS'HUM TGT TOTAL NUMBER'
p1864
S''
sS'INCIDENT INSTRUMENT ID'
p1865
S''
sS'INCIDENT INSTRUMENT TYPE'
p1866
S''
sS'PHYS TGT FOREIGN NATION'
p1867
S''
sS'HUM TGT NUMBER'
p1868
S'60 INNOCENT PEOPLE PEOPLE'
p1869
sS'PHYS TGT TYPE'
p1870
S'ORGANIZATION OFFICE OTHER DAS'
p1871
sS'HUM TGT NAME'
p1872
S''
sS'INCIDENT TYPE'
p1873
S'ATTACK'
p1874
sS'PHYS TGT NUMBER'
p1875
S'1 DAS'
p1876
sS'PERP INDIVIDUAL ID'
p1877
S'GONZALO RODRIGUEZ GACHA'
p1878
sS'INCIDENT STAGE OF EXECUTION'
p1879
S'ACCOMPLISHED'
p1880
sS'HUM TGT DESCRIPTION'
p1881
S'INNOCENT PEOPLE PEOPLE'
p1882
sS'PHYS TGT EFFECT OF INCIDENT'
p1883
S''
sS'HUM TGT FOREIGN NATION'
p1884
S''
sS'INCIDENT DATE'
p1885
S'15 DEC 89'
p1886
sS'MESSAGE TEMPLATE'
p1887
S'1'
sS'PHYS TGT TOTAL NUMBER'
p1888
S''
ssS'TST3MUC40074'
p1889
(dp1890
S'PERP ORGANIZATION CONFIDENCE'
p1891
S''
sS'HUM TGT EFFECT OF INCIDENT'
p1892
S'DEATH FEBE ELIZABETH VELAZQUEZ'
p1893
sS'INCIDENT LOCATION'
p1894
S'EL SALVADOR'
p1895
sS'PHYS TGT ID'
p1896
S'FENASTRAS SALVADORAN WORKERS NATIONAL UNION FEDERATION FENASTRAS SALVADORAN WORKERS NATIONAL UNION FEDERATION'
p1897
sS'PERP INCIDENT CATEGORY'
p1898
S''
sS'PERP ORGANIZATION ID'
p1899
S''
sS'HUM TGT TYPE'
p1900
S'CIVILIAN FENASTRAS'
p1901
sS'HUM TGT TOTAL NUMBER'
p1902
S''
sS'INCIDENT INSTRUMENT ID'
p1903
S'DYNAMITE'
p1904
sS'INCIDENT INSTRUMENT TYPE'
p1905
S'DYNAMITE DYNAMITE'
p1906
sS'PHYS TGT FOREIGN NATION'
p1907
S''
sS'HUM TGT NUMBER'
p1908
S'1 FENASTRAS'
p1909
sS'PHYS TGT TYPE'
p1910
S'ORGANIZATION OFFICE OTHER FENASTRAS SALVADORAN WORKERS NATIONAL UNION FEDERATION FENASTRAS SALVADORAN WORKERS NATIONAL UNION FEDERATION'
p1911
sS'HUM TGT NAME'
p1912
S'FENASTRAS'
p1913
sS'INCIDENT TYPE'
p1914
S'BOMBING'
p1915
sS'PHYS TGT NUMBER'
p1916
S'1 FENASTRAS SALVADORAN WORKERS NATIONAL UNION FEDERATION FENASTRAS SALVADORAN WORKERS NATIONAL UNION FEDERATION'
p1917
sS'PERP INDIVIDUAL ID'
p1918
S''
sS'INCIDENT STAGE OF EXECUTION'
p1919
S'ACCOMPLISHED'
p1920
sS'FEBE ELIZABETH VELAZQUEZ'
p1921
S''
sS'HUM TGT DESCRIPTION'
p1922
S''
sS'PHYS TGT EFFECT OF INCIDENT'
p1923
S''
sS'HUM TGT FOREIGN NATION'
p1924
S''
sS'INCIDENT DATE'
p1925
S'06 DEC 89'
p1926
sS'MESSAGE TEMPLATE'
p1927
S'1'
sS'PHYS TGT TOTAL NUMBER'
p1928
S''
ssS'TST3MUC40075'
p1929
(dp1930
S'PERP ORGANIZATION CONFIDENCE'
p1931
S''
sS'HUM TGT EFFECT OF INCIDENT'
p1932
S''
sS'INCIDENT LOCATION'
p1933
S''
sS'PHYS TGT ID'
p1934
S''
sS'PERP INCIDENT CATEGORY'
p1935
S''
sS'PERP ORGANIZATION ID'
p1936
S''
sS'HUM TGT TYPE'
p1937
S''
sS'HUM TGT TOTAL NUMBER'
p1938
S''
sS'INCIDENT INSTRUMENT ID'
p1939
S''
sS'INCIDENT INSTRUMENT TYPE'
p1940
S''
sS'PHYS TGT FOREIGN NATION'
p1941
S''
sS'HUM TGT NUMBER'
p1942
S''
sS'PHYS TGT TYPE'
p1943
S''
sS'HUM TGT NAME'
p1944
S''
sS'INCIDENT TYPE'
p1945
S''
sS'PHYS TGT NUMBER'
p1946
S''
sS'PERP INDIVIDUAL ID'
p1947
S''
sS'INCIDENT STAGE OF EXECUTION'
p1948
S''
sS'HUM TGT DESCRIPTION'
p1949
S''
sS'PHYS TGT EFFECT OF INCIDENT'
p1950
S''
sS'HUM TGT FOREIGN NATION'
p1951
S''
sS'INCIDENT DATE'
p1952
S''
sS'MESSAGE TEMPLATE'
p1953
S''
sS'PHYS TGT TOTAL NUMBER'
p1954
S''
ssS'TST3MUC40072'
p1955
(dp1956
S'PERP ORGANIZATION CONFIDENCE'
p1957
S''
sS'HUM TGT EFFECT OF INCIDENT'
p1958
S''
sS'INCIDENT LOCATION'
p1959
S''
sS'PHYS TGT ID'
p1960
S''
sS'PERP INCIDENT CATEGORY'
p1961
S''
sS'PERP ORGANIZATION ID'
p1962
S''
sS'HUM TGT TYPE'
p1963
S''
sS'HUM TGT TOTAL NUMBER'
p1964
S''
sS'INCIDENT INSTRUMENT ID'
p1965
S''
sS'INCIDENT INSTRUMENT TYPE'
p1966
S''
sS'PHYS TGT FOREIGN NATION'
p1967
S''
sS'HUM TGT NUMBER'
p1968
S''
sS'PHYS TGT TYPE'
p1969
S''
sS'HUM TGT NAME'
p1970
S''
sS'INCIDENT TYPE'
p1971
S''
sS'PHYS TGT NUMBER'
p1972
S''
sS'PERP INDIVIDUAL ID'
p1973
S''
sS'INCIDENT STAGE OF EXECUTION'
p1974
S''
sS'HUM TGT DESCRIPTION'
p1975
S''
sS'PHYS TGT EFFECT OF INCIDENT'
p1976
S''
sS'HUM TGT FOREIGN NATION'
p1977
S''
sS'INCIDENT DATE'
p1978
S''
sS'MESSAGE TEMPLATE'
p1979
S''
sS'PHYS TGT TOTAL NUMBER'
p1980
S''
ssS'TST3MUC40073'
p1981
(dp1982
S'PERP ORGANIZATION CONFIDENCE'
p1983
S''
sS'HUM TGT EFFECT OF INCIDENT'
p1984
S'DEATH PEOPLE'
p1985
sS'INCIDENT LOCATION'
p1986
S'COLOMBIA BOGOTA CITY'
p1987
sS'PHYS TGT ID'
p1988
S'HEADQUARTERS OF COLOMBIAS SECRET POLICE BUILDING OF THE SECRET POLICE DAS ADMINISTRATIVE DEPARTMENT OF SECURITY'
p1989
sS'PERP INCIDENT CATEGORY'
p1990
S''
sS'PERP ORGANIZATION ID'
p1991
S''
sS'HUM TGT TYPE'
p1992
S'CIVILIAN PEOPLE'
p1993
sS'HUM TGT TOTAL NUMBER'
p1994
S''
sS'INCIDENT INSTRUMENT ID'
p1995
S'POWERFUL BOMB HIDDEN IN A TRUCK BOMB HIDDEN IN A TRUCK'
p1996
sS'INCIDENT INSTRUMENT TYPE'
p1997
S'VEHICLE BOMB POWERFUL BOMB HIDDEN IN A TRUCK BOMB HIDDEN IN A TRUCK'
p1998
sS'PHYS TGT FOREIGN NATION'
p1999
S''
sS'HUM TGT NUMBER'
p2000
S'PLURAL PEOPLE'
p2001
sS'PHYS TGT TYPE'
p2002
S'LAW ENFORCEMENT FACILITY HEADQUARTERS OF COLOMBIAS SECRET POLICE BUILDING OF THE SECRET POLICE DAS ADMINISTRATIVE DEPARTMENT OF SECURITY'
p2003
sS'HUM TGT NAME'
p2004
S''
sS'INCIDENT TYPE'
p2005
S'BOMBING'
p2006
sS'PHYS TGT NUMBER'
p2007
S'1 PLURAL HEADQUARTERS OF COLOMBIAS SECRET POLICE BUILDING OF THE SECRET POLICE DAS ADMINISTRATIVE DEPARTMENT OF SECURITY'
p2008
sS'PERP INDIVIDUAL ID'
p2009
S''
sS'INCIDENT STAGE OF EXECUTION'
p2010
S'ACCOMPLISHED'
p2011
sS'HUM TGT DESCRIPTION'
p2012
S'PEOPLE'
p2013
sS'PHYS TGT EFFECT OF INCIDENT'
p2014
S'SOME DAMAGE HEADQUARTERS OF COLOMBIAS SECRET POLICE BUILDING OF THE SECRET POLICE DAS ADMINISTRATIVE DEPARTMENT OF SECURITY'
p2015
sS'HUM TGT FOREIGN NATION'
p2016
S''
sS'INCIDENT DATE'
p2017
S'06 DEC 89'
p2018
sS'MESSAGE TEMPLATE'
p2019
S'1'
sS'PHYS TGT TOTAL NUMBER'
p2020
S''
ssS'TST3MUC40070'
p2021
(dp2022
S'PERP ORGANIZATION CONFIDENCE'
p2023
S'REPORTED AS FACT FMLN FARABUNDO MARTI NATIONAL LIBERATION FRONT'
p2024
sS'HUM TGT EFFECT OF INCIDENT'
p2025
S'DEATH LITTLE GIRLS GIRLS'
p2026
sS'ARMED FORCES JOINT CHIEFS OF S'
p2027
S'TAFF'
p2028
sS'INCIDENT LOCATION'
p2029
S'EL SALVADOR'
p2030
sS'PHYS TGT ID'
p2031
S'PRESIDENTIAL HOUSE'
p2032
sS'PERP INCIDENT CATEGORY'
p2033
S'TERRORIST ACT'
p2034
sS'PERP ORGANIZATION ID'
p2035
S'FMLN FARABUNDO MARTI NATIONAL LIBERATION FRONT'
p2036
sS'HUM TGT TYPE'
p2037
S'CIVILIAN LITTLE GIRLS GIRLS'
p2038
sS'HUM TGT TOTAL NUMBER'
p2039
S''
sS'INCIDENT INSTRUMENT ID'
p2040
S''
sS'INCIDENT INSTRUMENT TYPE'
p2041
S''
sS'PHYS TGT FOREIGN NATION'
p2042
S''
sS'HUM TGT NUMBER'
p2043
S'2 LITTLE GIRLS GIRLS'
p2044
sS'PHYS TGT TYPE'
p2045
S'GOVERNMENT OFFICE OR RESIDENCE PRESIDENTIAL HOUSE'
p2046
sS'HUM TGT NAME'
p2047
S''
sS'INCIDENT TYPE'
p2048
S'ATTACK'
p2049
sS'PHYS TGT NUMBER'
p2050
S'1 PRESIDENTIAL HOUSE'
p2051
sS'PERP INDIVIDUAL ID'
p2052
S''
sS'INCIDENT STAGE OF EXECUTION'
p2053
S'ACCOMPLISHED'
p2054
sS'HUM TGT DESCRIPTION'
p2055
S'LITTLE GIRLS GIRLS'
p2056
sS'PHYS TGT EFFECT OF INCIDENT'
p2057
S''
sS'HUM TGT FOREIGN NATION'
p2058
S''
sS'INCIDENT DATE'
p2059
S'11 NOV 89 26 NOV 89 26 NOV 89'
p2060
sS'MESSAGE TEMPLATE'
p2061
S'2'
sS'NATIONAL GUARD GARRISON'
p2062
S''
sS'PHYS TGT TOTAL NUMBER'
p2063
S''
ssS'TST3MUC40071'
p2064
(dp2065
S'PERP ORGANIZATION CONFIDENCE'
p2066
S'CLAIMED OR ADMITTED FMLN FARABUNDO MARTI NATIONAL LIBERATION FRONT'
p2067
sS'HUM TGT EFFECT OF INCIDENT'
p2068
S''
sS'INCIDENT LOCATION'
p2069
S'EL SALVADOR SAN BENITO NEIGHBORHOOD'
p2070
sS'PHYS TGT ID'
p2071
S'ELECTRICITY POSTS'
p2072
sS'PERP INCIDENT CATEGORY'
p2073
S'TERRORIST ACT'
p2074
sS'PERP ORGANIZATION ID'
p2075
S'FMLN FARABUNDO MARTI NATIONAL LIBERATION FRONT'
p2076
sS'HUM TGT TYPE'
p2077
S''
sS'HUM TGT TOTAL NUMBER'
p2078
S''
sS'INCIDENT INSTRUMENT ID'
p2079
S''
sS'INCIDENT INSTRUMENT TYPE'
p2080
S''
sS'PHYS TGT FOREIGN NATION'
p2081
S''
sS'HUM TGT NUMBER'
p2082
S''
sS'PHYS TGT TYPE'
p2083
S'ENERGY ELECTRICITY POSTS'
p2084
sS'HUM TGT NAME'
p2085
S''
sS'INCIDENT TYPE'
p2086
S'ATTACK'
p2087
sS'PHYS TGT NUMBER'
p2088
S'PLURAL ELECTRICITY POSTS'
p2089
sS'PERP INDIVIDUAL ID'
p2090
S'FMLN FARABUNDO MARTI NATIONAL LIBERATION FRONT FORCES FORCES BATTALIONS'
p2091
sS'INCIDENT STAGE OF EXECUTION'
p2092
S'ACCOMPLISHED THREATENED'
p2093
sS'HUM TGT DESCRIPTION'
p2094
S''
sS'PHYS TGT EFFECT OF INCIDENT'
p2095
S''
sS'HUM TGT FOREIGN NATION'
p2096
S''
sS'INCIDENT DATE'
p2097
S'29 NOV 89'
p2098
sS'MESSAGE TEMPLATE'
p2099
S'2'
sS'PHYS TGT TOTAL NUMBER'
p2100
S''
ssS'TST3MUC40018'
p2101
(dp2102
S'PERP ORGANIZATION CONFIDENCE'
p2103
S'REPORTED AS FACT FMLN'
p2104
sS'HUM TGT EFFECT OF INCIDENT'
p2105
S''
sS'INCIDENT LOCATION'
p2106
S'EL SALVADOR'
p2107
sS'PHYS TGT ID'
p2108
S'TRANSPORTATION'
p2109
sS'PERP INCIDENT CATEGORY'
p2110
S'TERRORIST ACT'
p2111
sS'PERP ORGANIZATION ID'
p2112
S'FMLN'
p2113
sS'HUM TGT TYPE'
p2114
S''
sS'HUM TGT TOTAL NUMBER'
p2115
S''
sS'INCIDENT INSTRUMENT ID'
p2116
S''
sS'INCIDENT INSTRUMENT TYPE'
p2117
S''
sS'PHYS TGT FOREIGN NATION'
p2118
S''
sS'HUM TGT NUMBER'
p2119
S''
sS'PHYS TGT TYPE'
p2120
S'TRANSPORT VEHICLE TRANSPORTATION FACILITY TRANSPORTATION'
p2121
sS'HUM TGT NAME'
p2122
S''
sS'INCIDENT TYPE'
p2123
S'FORCED WORK STOPPAGE'
p2124
sS'PHYS TGT NUMBER'
p2125
S'1 TRANSPORTATION'
p2126
sS'PERP INDIVIDUAL ID'
p2127
S''
sS'INCIDENT STAGE OF EXECUTION'
p2128
S'THREATENED'
p2129
sS'HUM TGT DESCRIPTION'
p2130
S''
sS'PHYS TGT EFFECT OF INCIDENT'
p2131
S''
sS'HUM TGT FOREIGN NATION'
p2132
S''
sS'INCIDENT DATE'
p2133
S'25 MAY 89 25 MAY 89'
p2134
sS'MESSAGE TEMPLATE'
p2135
S'2 OPTIONAL'
p2136
sS'PHYS TGT TOTAL NUMBER'
p2137
S''
ssS'TST3MUC40019'
p2138
(dp2139
S'PERP ORGANIZATION CONFIDENCE'
p2140
S''
sS'HUM TGT EFFECT OF INCIDENT'
p2141
S''
sS'INCIDENT LOCATION'
p2142
S'COLOMBIA NORTE DE SANTANDER DEPARTMENT URUM MUNICIPALITY COLOMBIA NORTE DE SANTANDER DEPARTMENT URUM MUNICIPALITY CANO LIMON CITY COVENAS CITY'
p2143
sS'PHYS TGT ID'
p2144
S'CANO LIMONCOVENAS PIPELINE PIPELINE'
p2145
sS'PERP INCIDENT CATEGORY'
p2146
S''
sS'PERP ORGANIZATION ID'
p2147
S''
sS'HUM TGT TYPE'
p2148
S''
sS'HUM TGT TOTAL NUMBER'
p2149
S''
sS'INCIDENT INSTRUMENT ID'
p2150
S''
sS'INCIDENT INSTRUMENT TYPE'
p2151
S'EXPLOSIVE'
p2152
sS'PHYS TGT FOREIGN NATION'
p2153
S''
sS'HUM TGT NUMBER'
p2154
S''
sS'PHYS TGT TYPE'
p2155
S'ENERGY CANO LIMONCOVENAS PIPELINE PIPELINE'
p2156
sS'HUM TGT NAME'
p2157
S''
sS'INCIDENT TYPE'
p2158
S'BOMBING'
p2159
sS'PHYS TGT NUMBER'
p2160
S'1 CANO LIMONCOVENAS PIPELINE PIPELINE'
p2161
sS'PERP INDIVIDUAL ID'
p2162
S''
sS'INCIDENT STAGE OF EXECUTION'
p2163
S'ACCOMPLISHED'
p2164
sS'HUM TGT DESCRIPTION'
p2165
S''
sS'PHYS TGT EFFECT OF INCIDENT'
p2166
S'DESTROYED SOME DAMAGE CANO LIMONCOVENAS PIPELINE PIPELINE'
p2167
sS'HUM TGT FOREIGN NATION'
p2168
S''
sS'INCIDENT DATE'
p2169
S'28 MAY 89'
p2170
sS'MESSAGE TEMPLATE'
p2171
S'1'
sS'PHYS TGT TOTAL NUMBER'
p2172
S''
ssS'TST3MUC40014'
p2173
(dp2174
S'PERP ORGANIZATION CONFIDENCE'
p2175
S''
sS'HUM TGT EFFECT OF INCIDENT'
p2176
S''
sS'INCIDENT LOCATION'
p2177
S'PERU PERU AYACUCHO DEPARTMENT PERU AYACUCHO PROVINCE'
p2178
sS'PHYS TGT ID'
p2179
S''
sS'PERP INCIDENT CATEGORY'
p2180
S''
sS'PERP ORGANIZATION ID'
p2181
S''
sS'HUM TGT TYPE'
p2182
S'CIVILIAN LUIS MORALES'
p2183
sS'HUM TGT TOTAL NUMBER'
p2184
S''
sS'INCIDENT INSTRUMENT ID'
p2185
S''
sS'INCIDENT INSTRUMENT TYPE'
p2186
S''
sS'PHYS TGT FOREIGN NATION'
p2187
S''
sS'HUM TGT NUMBER'
p2188
S'1 LUIS MORALES'
p2189
sS'PHYS TGT TYPE'
p2190
S''
sS'HUM TGT NAME'
p2191
S'LUIS MORALES'
p2192
sS'INCIDENT TYPE'
p2193
S'KIDNAPPING'
p2194
sS'PHYS TGT NUMBER'
p2195
S''
sS'PERP INDIVIDUAL ID'
p2196
S'FIVE UNIDENTIFIED INDIVIDUALS UNIDENTIFIED INDIVIDUALS'
p2197
sS'INCIDENT STAGE OF EXECUTION'
p2198
S'ATTEMPTED'
p2199
sS'HUM TGT DESCRIPTION'
p2200
S'REPORTER LUIS MORALES'
p2201
sS'PHYS TGT EFFECT OF INCIDENT'
p2202
S''
sS'HUM TGT FOREIGN NATION'
p2203
S''
sS'INCIDENT DATE'
p2204
S'19 JAN 89'
p2205
sS'MESSAGE TEMPLATE'
p2206
S'5'
sS'PHYS TGT TOTAL NUMBER'
p2207
S''
ssS'TST3MUC40015'
p2208
(dp2209
S'PERP ORGANIZATION CONFIDENCE'
p2210
S''
sS'HUM TGT EFFECT OF INCIDENT'
p2211
S'DEATH ROBERTO NAVAS'
p2212
sS'INCIDENT LOCATION'
p2213
S'EL SALVADOR'
p2214
sS'PHYS TGT ID'
p2215
S''
sS'PERP INCIDENT CATEGORY'
p2216
S''
sS'PERP ORGANIZATION ID'
p2217
S''
sS'HUM TGT TYPE'
p2218
S'CIVILIAN ROBERTO NAVAS'
p2219
sS'HUM TGT TOTAL NUMBER'
p2220
S''
sS'INCIDENT INSTRUMENT ID'
p2221
S''
sS'INCIDENT INSTRUMENT TYPE'
p2222
S''
sS'PHYS TGT FOREIGN NATION'
p2223
S''
sS'HUM TGT NUMBER'
p2224
S'1 ROBERTO NAVAS'
p2225
sS'PHYS TGT TYPE'
p2226
S''
sS'HUM TGT NAME'
p2227
S'ROBERTO NAVAS'
p2228
sS'INCIDENT TYPE'
p2229
S'ATTACK'
p2230
sS'PHYS TGT NUMBER'
p2231
S''
sS'PERP INDIVIDUAL ID'
p2232
S''
sS'INCIDENT STAGE OF EXECUTION'
p2233
S'ACCOMPLISHED'
p2234
sS'HUM TGT DESCRIPTION'
p2235
S'REPORTER FOR THE BRITISH AGENCY REUTER REPORTER ROBERTO NAVAS'
p2236
sS'PHYS TGT EFFECT OF INCIDENT'
p2237
S''
sS'HUM TGT FOREIGN NATION'
p2238
S''
sS'INCIDENT DATE'
p2239
S'18 MAR 89 19 MAR 89 18 MAR 89 19 MAR 89'
p2240
sS'MESSAGE TEMPLATE'
p2241
S'2'
sS'PHYS TGT TOTAL NUMBER'
p2242
S''
ssS'TST3MUC40016'
p2243
(dp2244
S'PERP ORGANIZATION CONFIDENCE'
p2245
S''
sS'HUM TGT EFFECT OF INCIDENT'
p2246
S''
sS'INCIDENT LOCATION'
p2247
S''
sS'PHYS TGT ID'
p2248
S''
sS'PERP INCIDENT CATEGORY'
p2249
S''
sS'PERP ORGANIZATION ID'
p2250
S''
sS'HUM TGT TYPE'
p2251
S''
sS'HUM TGT TOTAL NUMBER'
p2252
S''
sS'INCIDENT INSTRUMENT ID'
p2253
S''
sS'INCIDENT INSTRUMENT TYPE'
p2254
S''
sS'PHYS TGT FOREIGN NATION'
p2255
S''
sS'HUM TGT NUMBER'
p2256
S''
sS'PHYS TGT TYPE'
p2257
S''
sS'HUM TGT NAME'
p2258
S''
sS'INCIDENT TYPE'
p2259
S''
sS'PHYS TGT NUMBER'
p2260
S''
sS'PERP INDIVIDUAL ID'
p2261
S''
sS'INCIDENT STAGE OF EXECUTION'
p2262
S''
sS'HUM TGT DESCRIPTION'
p2263
S''
sS'PHYS TGT EFFECT OF INCIDENT'
p2264
S''
sS'HUM TGT FOREIGN NATION'
p2265
S''
sS'INCIDENT DATE'
p2266
S''
sS'MESSAGE TEMPLATE'
p2267
S''
sS'PHYS TGT TOTAL NUMBER'
p2268
S''
ssS'TST3MUC40017'
p2269
(dp2270
S'PERP ORGANIZATION CONFIDENCE'
p2271
S'SUSPECTED OR ACCUSED ARMED FORCES'
p2272
sS'HUM TGT EFFECT OF INCIDENT'
p2273
S''
sS'INCIDENT LOCATION'
p2274
S'EL SALVADOR MACHILIGUAS NEIGHBORHOOD'
p2275
sS'PHYS TGT ID'
p2276
S''
sS'PERP INCIDENT CATEGORY'
p2277
S'STATESPONSORED VIOLENCE'
p2278
sS'PERP ORGANIZATION ID'
p2279
S'ARMED FORCES'
p2280
sS'HUM TGT TYPE'
p2281
S'SECURITY GUARD GUARDS PROTECTING MERINOS RESIDENCE GUARDS'
p2282
sS'HUM TGT TOTAL NUMBER'
p2283
S''
sS'INCIDENT INSTRUMENT ID'
p2284
S''
sS'INCIDENT INSTRUMENT TYPE'
p2285
S'GUN'
p2286
sS'PHYS TGT FOREIGN NATION'
p2287
S''
sS'HUM TGT NUMBER'
p2288
S'PLURAL GUARDS PROTECTING MERINOS RESIDENCE GUARDS'
p2289
sS'PHYS TGT TYPE'
p2290
S''
sS'HUM TGT NAME'
p2291
S''
sS'INCIDENT TYPE'
p2292
S'ATTACK'
p2293
sS'PHYS TGT NUMBER'
p2294
S''
sS'PERP INDIVIDUAL ID'
p2295
S'UNIDENTIFIED INDIVIDUALS'
p2296
sS'INCIDENT STAGE OF EXECUTION'
p2297
S'ACCOMPLISHED'
p2298
sS'HUM TGT DESCRIPTION'
p2299
S'GUARDS PROTECTING MERINOS RESIDENCE GUARDS'
p2300
sS'PHYS TGT EFFECT OF INCIDENT'
p2301
S''
sS'HUM TGT FOREIGN NATION'
p2302
S''
sS'INCIDENT DATE'
p2303
S'14 APR 89'
p2304
sS'MESSAGE TEMPLATE'
p2305
S'4 OPTIONAL'
p2306
sS'PHYS TGT TOTAL NUMBER'
p2307
S''
ssS'TST3MUC40010'
p2308
(dp2309
S'PERP ORGANIZATION CONFIDENCE'
p2310
S'REPORTED AS FACT FMLN'
p2311
sS'HUM TGT EFFECT OF INCIDENT'
p2312
S'DEATH CIVILIAN'
p2313
sS'INCIDENT LOCATION'
p2314
S'EL SALVADOR'
p2315
sS'PHYS TGT ID'
p2316
S'ARMED FORCES STAFF INSTALLATIONS'
p2317
sS'PERP INCIDENT CATEGORY'
p2318
S'TERRORIST ACT'
p2319
sS'PERP ORGANIZATION ID'
p2320
S'FMLN'
p2321
sS'HUM TGT TYPE'
p2322
S'CIVILIAN CIVILIAN'
p2323
sS'HUM TGT TOTAL NUMBER'
p2324
S''
sS'INCIDENT INSTRUMENT ID'
p2325
S''
sS'INCIDENT INSTRUMENT TYPE'
p2326
S''
sS'PHYS TGT FOREIGN NATION'
p2327
S''
sS'HUM TGT NUMBER'
p2328
S'1 CIVILIAN'
p2329
sS'PHYS TGT TYPE'
p2330
S'OTHER ARMED FORCES STAFF INSTALLATIONS'
p2331
sS'HUM TGT NAME'
p2332
S''
sS'INCIDENT TYPE'
p2333
S'ATTACK'
p2334
sS'PHYS TGT NUMBER'
p2335
S'PLURAL ARMED FORCES STAFF INSTALLATIONS'
p2336
sS'CIVILIAN OTHERS'
p2337
S''
sS'PERP INDIVIDUAL ID'
p2338
S'CRIMINAL GROUPS'
p2339
sS'INCIDENT STAGE OF EXECUTION'
p2340
S'ACCOMPLISHED'
p2341
sS'HUM TGT DESCRIPTION'
p2342
S'CIVILIAN'
p2343
sS'PHYS TGT EFFECT OF INCIDENT'
p2344
S''
sS'HUM TGT FOREIGN NATION'
p2345
S''
sS'INCIDENT DATE'
p2346
S'30 OCT 89'
p2347
sS'MESSAGE TEMPLATE'
p2348
S'2'
sS'PHYS TGT TOTAL NUMBER'
p2349
S''
ssS'TST3MUC40011'
p2350
(dp2351
S'PERP ORGANIZATION CONFIDENCE'
p2352
S'CLAIMED OR ADMITTED ELN ARMY OF NATIONAL LIBERATION'
p2353
sS'HUM TGT EFFECT OF INCIDENT'
p2354
S''
sS'INCIDENT LOCATION'
p2355
S'COLOMBIA'
p2356
sS'PHYS TGT ID'
p2357
S''
sS'PERP INCIDENT CATEGORY'
p2358
S'TERRORIST ACT'
p2359
sS'PERP ORGANIZATION ID'
p2360
S'ELN ARMY OF NATIONAL LIBERATION'
p2361
sS'HUM TGT TYPE'
p2362
S'DIPLOMAT HONORARY CONSULS'
p2363
sS'HUM TGT TOTAL NUMBER'
p2364
S''
sS'INCIDENT INSTRUMENT ID'
p2365
S''
sS'INCIDENT INSTRUMENT TYPE'
p2366
S''
sS'PHYS TGT FOREIGN NATION'
p2367
S''
sS'HUM TGT NUMBER'
p2368
S'PLURAL HONORARY CONSULS'
p2369
sS'PHYS TGT TYPE'
p2370
S''
sS'HUM TGT NAME'
p2371
S''
sS'INCIDENT TYPE'
p2372
S'KIDNAPPING'
p2373
sS'PHYS TGT NUMBER'
p2374
S''
sS'PERP INDIVIDUAL ID'
p2375
S'MEMBERS OF THE MANUEL GUSTAVO CHACON SOVEREIGNTY OPERATION MANUEL GUSTAVO CHACON SOVEREIGNTY OPERATION'
p2376
sS'INCIDENT STAGE OF EXECUTION'
p2377
S'ACCOMPLISHED'
p2378
sS'HUM TGT DESCRIPTION'
p2379
S'HONORARY CONSULS'
p2380
sS'PHYS TGT EFFECT OF INCIDENT'
p2381
S''
sS'HUM TGT FOREIGN NATION'
p2382
S''
sS'INCIDENT DATE'
p2383
S'04 MAY 88'
p2384
sS'MESSAGE TEMPLATE'
p2385
S'1'
sS'PHYS TGT TOTAL NUMBER'
p2386
S''
ssS'TST3MUC40012'
p2387
(dp2388
S'PERP ORGANIZATION CONFIDENCE'
p2389
S''
sS'HUM TGT EFFECT OF INCIDENT'
p2390
S''
sS'INCIDENT LOCATION'
p2391
S''
sS'PHYS TGT ID'
p2392
S''
sS'PERP INCIDENT CATEGORY'
p2393
S''
sS'PERP ORGANIZATION ID'
p2394
S''
sS'HUM TGT TYPE'
p2395
S''
sS'HUM TGT TOTAL NUMBER'
p2396
S''
sS'INCIDENT INSTRUMENT ID'
p2397
S''
sS'INCIDENT INSTRUMENT TYPE'
p2398
S''
sS'PHYS TGT FOREIGN NATION'
p2399
S''
sS'HUM TGT NUMBER'
p2400
S''
sS'PHYS TGT TYPE'
p2401
S''
sS'HUM TGT NAME'
p2402
S''
sS'INCIDENT TYPE'
p2403
S''
sS'PHYS TGT NUMBER'
p2404
S''
sS'PERP INDIVIDUAL ID'
p2405
S''
sS'INCIDENT STAGE OF EXECUTION'
p2406
S''
sS'HUM TGT DESCRIPTION'
p2407
S''
sS'PHYS TGT EFFECT OF INCIDENT'
p2408
S''
sS'HUM TGT FOREIGN NATION'
p2409
S''
sS'INCIDENT DATE'
p2410
S''
sS'MESSAGE TEMPLATE'
p2411
S''
sS'PHYS TGT TOTAL NUMBER'
p2412
S''
ssS'TST3MUC40013'
p2413
(dp2414
S'PERP ORGANIZATION CONFIDENCE'
p2415
S'REPORTED AS FACT GOVERNMENT'
p2416
sS'HUM TGT EFFECT OF INCIDENT'
p2417
S''
sS'INCIDENT LOCATION'
p2418
S'EL SALVADOR'
p2419
sS'PHYS TGT ID'
p2420
S'RESIDENCES OF LEADERS OF THE SOCIAL CHRISTIAN PEOPLES MOVEMENT'
p2421
sS'PERP INCIDENT CATEGORY'
p2422
S'STATESPONSORED VIOLENCE'
p2423
sS'PERP ORGANIZATION ID'
p2424
S'GOVERNMENT'
p2425
sS'HUM TGT TYPE'
p2426
S''
sS'HUM TGT TOTAL NUMBER'
p2427
S''
sS'INCIDENT INSTRUMENT ID'
p2428
S''
sS'INCIDENT INSTRUMENT TYPE'
p2429
S''
sS'PHYS TGT FOREIGN NATION'
p2430
S''
sS'HUM TGT NUMBER'
p2431
S''
sS'PHYS TGT TYPE'
p2432
S'GOVERNMENT OFFICE OR RESIDENCE RESIDENCES OF LEADERS OF THE SOCIAL CHRISTIAN PEOPLES MOVEMENT'
p2433
sS'HUM TGT NAME'
p2434
S''
sS'INCIDENT TYPE'
p2435
S'ATTACK'
p2436
sS'PHYS TGT NUMBER'
p2437
S'PLURAL RESIDENCES OF LEADERS OF THE SOCIAL CHRISTIAN PEOPLES MOVEMENT'
p2438
sS'PERP INDIVIDUAL ID'
p2439
S''
sS'INCIDENT STAGE OF EXECUTION'
p2440
S'ACCOMPLISHED'
p2441
sS'HUM TGT DESCRIPTION'
p2442
S''
sS'PHYS TGT EFFECT OF INCIDENT'
p2443
S''
sS'HUM TGT FOREIGN NATION'
p2444
S''
sS'INCIDENT DATE'
p2445
S'02 NOV 89'
p2446
sS'MESSAGE TEMPLATE'
p2447
S'3 OPTIONAL'
p2448
sS'PHYS TGT TOTAL NUMBER'
p2449
S''
ssS'TST3MUC40069'
p2450
(dp2451
S'PERP ORGANIZATION CONFIDENCE'
p2452
S'REPORTED AS FACT US GOVERNMENT'
p2453
sS'HUM TGT EFFECT OF INCIDENT'
p2454
S'DEATH SPANISH PRIESTS PRIESTS'
p2455
sS'INCIDENT LOCATION'
p2456
S'EL SALVADOR'
p2457
sS'PHYS TGT ID'
p2458
S''
sS'PERP INCIDENT CATEGORY'
p2459
S'STATESPONSORED VIOLENCE'
p2460
sS'PERP ORGANIZATION ID'
p2461
S'US GOVERNMENT'
p2462
sS'HUM TGT TYPE'
p2463
S'CIVILIAN SPANISH PRIESTS PRIESTS'
p2464
sS'HUM TGT TOTAL NUMBER'
p2465
S''
sS'INCIDENT INSTRUMENT ID'
p2466
S''
sS'INCIDENT INSTRUMENT TYPE'
p2467
S''
sS'PHYS TGT FOREIGN NATION'
p2468
S''
sS'HUM TGT NUMBER'
p2469
S'PLURAL SPANISH PRIESTS PRIESTS'
p2470
sS'PHYS TGT TYPE'
p2471
S''
sS'HUM TGT NAME'
p2472
S''
sS'INCIDENT TYPE'
p2473
S'ATTACK'
p2474
sS'PHYS TGT NUMBER'
p2475
S''
sS'PERP INDIVIDUAL ID'
p2476
S''
sS'INCIDENT STAGE OF EXECUTION'
p2477
S'ACCOMPLISHED'
p2478
sS'HUM TGT DESCRIPTION'
p2479
S'SPANISH PRIESTS PRIESTS'
p2480
sS'PHYS TGT EFFECT OF INCIDENT'
p2481
S''
sS'HUM TGT FOREIGN NATION'
p2482
S'SPAIN SPANISH PRIESTS PRIESTS'
p2483
sS'INCIDENT DATE'
p2484
S'22 NOV 89'
p2485
sS'MESSAGE TEMPLATE'
p2486
S'3 OPTIONAL'
p2487
sS'PHYS TGT TOTAL NUMBER'
p2488
S''
ssS'TST3MUC40068'
p2489
(dp2490
S'PERP ORGANIZATION CONFIDENCE'
p2491
S'REPORTED AS FACT FARABUNDO MARTI NATIONAL LIBERATION FRONT FMLN'
p2492
sS'HUM TGT EFFECT OF INCIDENT'
p2493
S'REGAINED FREEDOM JOAO BAENA SOARES'
p2494
sS'INCIDENT LOCATION'
p2495
S'EL SALVADOR SAN SALVADOR CITY ESCALON NEIGHBORHOOD'
p2496
sS'PHYS TGT ID'
p2497
S''
sS'PERP INCIDENT CATEGORY'
p2498
S'TERRORIST ACT'
p2499
sS'PERP ORGANIZATION ID'
p2500
S'FARABUNDO MARTI NATIONAL LIBERATION FRONT FMLN'
p2501
sS'HUM TGT TYPE'
p2502
S'POLITICAL FIGURE DIPLOMAT JOAO BAENA SOARES'
p2503
sS'HUM TGT TOTAL NUMBER'
p2504
S''
sS'INCIDENT INSTRUMENT ID'
p2505
S''
sS'INCIDENT INSTRUMENT TYPE'
p2506
S''
sS'PHYS TGT FOREIGN NATION'
p2507
S''
sS'HUM TGT NUMBER'
p2508
S'1 JOAO BAENA SOARES'
p2509
sS'PHYS TGT TYPE'
p2510
S''
sS'HUM TGT NAME'
p2511
S'JOAO BAENA SOARES'
p2512
sS'INCIDENT TYPE'
p2513
S'KIDNAPPING'
p2514
sS'PHYS TGT NUMBER'
p2515
S''
sS'PERP INDIVIDUAL ID'
p2516
S'REBEL COMMANDERS'
p2517
sS'INCIDENT STAGE OF EXECUTION'
p2518
S'ACCOMPLISHED'
p2519
sS'HUM TGT DESCRIPTION'
p2520
S'OAS SECRETARY GENERAL JOAO BAENA SOARES'
p2521
sS'ANOTHER ONE FROM CHILE MILI'
p2522
S'TARY ADVISERS'
p2523
sS'PHYS TGT EFFECT OF INCIDENT'
p2524
S''
sS'HUM TGT FOREIGN NATION'
p2525
S'UNITED STATES MILITARY ADVISERS'
p2526
sS'INCIDENT DATE'
p2527
S'21 NOV 89'
p2528
sS'MESSAGE TEMPLATE'
p2529
S'2 OPTIONAL'
p2530
sS'PHYS TGT TOTAL NUMBER'
p2531
S''
sS'ONE FROM GUATEMALA MILITARY'
p2532
S'ADVISERS'
p2533
ssS'TST3MUC40061'
p2534
(dp2535
S'PERP ORGANIZATION CONFIDENCE'
p2536
S''
sS'HUM TGT EFFECT OF INCIDENT'
p2537
S'DEATH PEOPLE'
p2538
sS'INCIDENT LOCATION'
p2539
S'EL SALVADOR SAN SALVADOR CITY'
p2540
sS'PHYS TGT ID'
p2541
S'LEFTWING TRADE UNIONS HEADQUARTERS TRADE UNIONS HEADQUARTERS'
p2542
sS'PERP INCIDENT CATEGORY'
p2543
S'STATESPONSORED VIOLENCE'
p2544
sS'PERP ORGANIZATION ID'
p2545
S''
sS'HUM TGT TYPE'
p2546
S'CIVILIAN PEOPLE'
p2547
sS'HUM TGT TOTAL NUMBER'
p2548
S''
sS'INCIDENT INSTRUMENT ID'
p2549
S'ARTILLERY'
p2550
sS'INCIDENT INSTRUMENT TYPE'
p2551
S'GUN PROJECTILE EXPLOSIVE ARTILLERY'
p2552
sS'PHYS TGT FOREIGN NATION'
p2553
S''
sS'HUM TGT NUMBER'
p2554
S'10 PEOPLE'
p2555
sS'PHYS TGT TYPE'
p2556
S'ORGANIZATION OFFICE LEFTWING TRADE UNIONS HEADQUARTERS TRADE UNIONS HEADQUARTERS'
p2557
sS'HUM TGT NAME'
p2558
S''
sS'INCIDENT TYPE'
p2559
S'ATTACK BOMBING'
p2560
sS'PHYS TGT NUMBER'
p2561
S'1 LEFTWING TRADE UNIONS HEADQUARTERS TRADE UNIONS HEADQUARTERS'
p2562
sS'PERP INDIVIDUAL ID'
p2563
S''
sS'INCIDENT STAGE OF EXECUTION'
p2564
S'ACCOMPLISHED'
p2565
sS'HUM TGT DESCRIPTION'
p2566
S'PEOPLE'
p2567
sS'PHYS TGT EFFECT OF INCIDENT'
p2568
S''
sS'HUM TGT FOREIGN NATION'
p2569
S''
sS'INCIDENT DATE'
p2570
S'14 NOV 89'
p2571
sS'MESSAGE TEMPLATE'
p2572
S'2'
sS'PHYS TGT TOTAL NUMBER'
p2573
S''
ssS'TST3MUC40060'
p2574
(dp2575
S'PERP ORGANIZATION CONFIDENCE'
p2576
S'REPORTED AS FACT ALFREDO CRISTIANIS ADMINISTRATION CRISTIANIS GOVERNMENT GOVERNMENT'
p2577
sS'HUM TGT EFFECT OF INCIDENT'
p2578
S'DEATH IGNACIO ELLACURIA'
p2579
sS'SEGUNDO MONTES'
p2580
S''
sS'INCIDENT LOCATION'
p2581
S'EL SALVADOR SAN SALVADOR CITY'
p2582
sS'PHYS TGT ID'
p2583
S''
sS'PERP INCIDENT CATEGORY'
p2584
S'STATESPONSORED VIOLENCE'
p2585
sS'ELVA RAMOS'
p2586
S''
sS'PERP ORGANIZATION ID'
p2587
S'ALFREDO CRISTIANIS ADMINISTRATION CRISTIANIS GOVERNMENT GOVERNMENT'
p2588
sS'JUAN RAMON MORENO'
p2589
S''
sS'HUM TGT TYPE'
p2590
S'CIVILIAN IGNACIO ELLACURIA'
p2591
sS'HUM TGT TOTAL NUMBER'
p2592
S''
sS'INCIDENT INSTRUMENT ID'
p2593
S''
sS'INCIDENT INSTRUMENT TYPE'
p2594
S''
sS'PHYS TGT FOREIGN NATION'
p2595
S''
sS'HUM TGT NUMBER'
p2596
S'1 IGNACIO ELLACURIA'
p2597
sS'PHYS TGT TYPE'
p2598
S''
sS'HUM TGT NAME'
p2599
S'IGNACIO ELLACURIA'
p2600
sS'INCIDENT TYPE'
p2601
S'ATTACK'
p2602
sS'PHYS TGT NUMBER'
p2603
S''
sS'IGNACIO MARTIN BARO'
p2604
S''
sS'PERP INDIVIDUAL ID'
p2605
S'SALVADORAN ARMED FORCES SOLDIERS ARMED FORCES SOLDIERS SOLDIERS HEAVILY ARMED SOLDIERS LARGE NUMBER OF HEAVILY ARMED SOLDIERS'
p2606
sS'INCIDENT STAGE OF EXECUTION'
p2607
S'ACCOMPLISHED'
p2608
sS'JULIA RAMOS'
p2609
S''
sS'HUM TGT DESCRIPTION'
p2610
S'PRIEST DR PRIEST AND DR UCA DIRECTOR IGNACIO ELLACURIA'
p2611
sS'AMANDO LOPEZ'
p2612
S''
sS'PHYS TGT EFFECT OF INCIDENT'
p2613
S''
sS'HUM TGT FOREIGN NATION'
p2614
S'SPAIN IGNACIO ELLACURIA'
p2615
sS'INCIDENT DATE'
p2616
S'16 NOV 89'
p2617
sS'MESSAGE TEMPLATE'
p2618
S'1'
sS'JOAQUIN LOPEZ Y LOPEZ'
p2619
S''
sS'PHYS TGT TOTAL NUMBER'
p2620
S''
ssS'TST3MUC40063'
p2621
(dp2622
S'PERP ORGANIZATION CONFIDENCE'
p2623
S''
sS'HUM TGT EFFECT OF INCIDENT'
p2624
S''
sS'INCIDENT LOCATION'
p2625
S''
sS'PHYS TGT ID'
p2626
S''
sS'PERP INCIDENT CATEGORY'
p2627
S''
sS'PERP ORGANIZATION ID'
p2628
S''
sS'HUM TGT TYPE'
p2629
S''
sS'HUM TGT TOTAL NUMBER'
p2630
S''
sS'INCIDENT INSTRUMENT ID'
p2631
S''
sS'INCIDENT INSTRUMENT TYPE'
p2632
S''
sS'PHYS TGT FOREIGN NATION'
p2633
S''
sS'HUM TGT NUMBER'
p2634
S''
sS'PHYS TGT TYPE'
p2635
S''
sS'HUM TGT NAME'
p2636
S''
sS'INCIDENT TYPE'
p2637
S''
sS'PHYS TGT NUMBER'
p2638
S''
sS'PERP INDIVIDUAL ID'
p2639
S''
sS'INCIDENT STAGE OF EXECUTION'
p2640
S''
sS'HUM TGT DESCRIPTION'
p2641
S''
sS'PHYS TGT EFFECT OF INCIDENT'
p2642
S''
sS'HUM TGT FOREIGN NATION'
p2643
S''
sS'INCIDENT DATE'
p2644
S''
sS'MESSAGE TEMPLATE'
p2645
S''
sS'PHYS TGT TOTAL NUMBER'
p2646
S''
ssS'TST3MUC40062'
p2647
(dp2648
S'PERP ORGANIZATION CONFIDENCE'
p2649
S''
sS'HUM TGT EFFECT OF INCIDENT'
p2650
S''
sS'INCIDENT LOCATION'
p2651
S''
sS'PHYS TGT ID'
p2652
S''
sS'PERP INCIDENT CATEGORY'
p2653
S''
sS'PERP ORGANIZATION ID'
p2654
S''
sS'HUM TGT TYPE'
p2655
S''
sS'HUM TGT TOTAL NUMBER'
p2656
S''
sS'INCIDENT INSTRUMENT ID'
p2657
S''
sS'INCIDENT INSTRUMENT TYPE'
p2658
S''
sS'PHYS TGT FOREIGN NATION'
p2659
S''
sS'HUM TGT NUMBER'
p2660
S''
sS'PHYS TGT TYPE'
p2661
S''
sS'HUM TGT NAME'
p2662
S''
sS'INCIDENT TYPE'
p2663
S''
sS'PHYS TGT NUMBER'
p2664
S''
sS'PERP INDIVIDUAL ID'
p2665
S''
sS'INCIDENT STAGE OF EXECUTION'
p2666
S''
sS'HUM TGT DESCRIPTION'
p2667
S''
sS'PHYS TGT EFFECT OF INCIDENT'
p2668
S''
sS'HUM TGT FOREIGN NATION'
p2669
S''
sS'INCIDENT DATE'
p2670
S''
sS'MESSAGE TEMPLATE'
p2671
S''
sS'PHYS TGT TOTAL NUMBER'
p2672
S''
ssS'TST3MUC40065'
p2673
(dp2674
S'PERP ORGANIZATION CONFIDENCE'
p2675
S''
sS'HUM TGT EFFECT OF INCIDENT'
p2676
S''
sS'INCIDENT LOCATION'
p2677
S'EL SALVADOR'
p2678
sS'PHYS TGT ID'
p2679
S'UNION HEADQUARTERS'
p2680
sS'PERP INCIDENT CATEGORY'
p2681
S''
sS'PERP ORGANIZATION ID'
p2682
S''
sS'HUM TGT TYPE'
p2683
S'CIVILIAN LEADERS'
p2684
sS'HUM TGT TOTAL NUMBER'
p2685
S''
sS'INCIDENT INSTRUMENT ID'
p2686
S''
sS'INCIDENT INSTRUMENT TYPE'
p2687
S''
sS'PHYS TGT FOREIGN NATION'
p2688
S''
sS'HUM TGT NUMBER'
p2689
S'PLURAL LEADERS'
p2690
sS'PHYS TGT TYPE'
p2691
S'ORGANIZATION OFFICE UNION HEADQUARTERS'
p2692
sS'HUM TGT NAME'
p2693
S''
sS'INCIDENT TYPE'
p2694
S'ATTACK'
p2695
sS'PHYS TGT NUMBER'
p2696
S'1 PLURAL UNION HEADQUARTERS'
p2697
sS'PERP INDIVIDUAL ID'
p2698
S''
sS'INCIDENT STAGE OF EXECUTION'
p2699
S'ACCOMPLISHED'
p2700
sS'HUM TGT DESCRIPTION'
p2701
S'LEADERS'
p2702
sS'PHYS TGT EFFECT OF INCIDENT'
p2703
S''
sS'HUM TGT FOREIGN NATION'
p2704
S''
sS'INCIDENT DATE'
p2705
S'19 NOV 89'
p2706
sS'MESSAGE TEMPLATE'
p2707
S'2 OPTIONAL'
p2708
sS'PHYS TGT TOTAL NUMBER'
p2709
S''
ssS'TST3MUC40064'
p2710
(dp2711
S'PERP ORGANIZATION CONFIDENCE'
p2712
S''
sS'HUM TGT EFFECT OF INCIDENT'
p2713
S''
sS'INCIDENT LOCATION'
p2714
S''
sS'PHYS TGT ID'
p2715
S''
sS'PERP INCIDENT CATEGORY'
p2716
S''
sS'PERP ORGANIZATION ID'
p2717
S''
sS'HUM TGT TYPE'
p2718
S''
sS'HUM TGT TOTAL NUMBER'
p2719
S''
sS'INCIDENT INSTRUMENT ID'
p2720
S''
sS'INCIDENT INSTRUMENT TYPE'
p2721
S''
sS'PHYS TGT FOREIGN NATION'
p2722
S''
sS'HUM TGT NUMBER'
p2723
S''
sS'PHYS TGT TYPE'
p2724
S''
sS'HUM TGT NAME'
p2725
S''
sS'INCIDENT TYPE'
p2726
S''
sS'PHYS TGT NUMBER'
p2727
S''
sS'PERP INDIVIDUAL ID'
p2728
S''
sS'INCIDENT STAGE OF EXECUTION'
p2729
S''
sS'HUM TGT DESCRIPTION'
p2730
S''
sS'PHYS TGT EFFECT OF INCIDENT'
p2731
S''
sS'HUM TGT FOREIGN NATION'
p2732
S''
sS'INCIDENT DATE'
p2733
S''
sS'MESSAGE TEMPLATE'
p2734
S''
sS'PHYS TGT TOTAL NUMBER'
p2735
S''
ssS'TST3MUC40067'
p2736
(dp2737
S'PERP ORGANIZATION CONFIDENCE'
p2738
S'REPORTED AS FACT TANDONA GROUP LA TANDONA'
p2739
sS'HUM TGT EFFECT OF INCIDENT'
p2740
S''
sS'INCIDENT LOCATION'
p2741
S'EL SALVADOR ZACAMIL NEIGHBORHOOD EL SALVADOR SAN SALVADOR CITY ZACAMIL NEIGHBORHOOD'
p2742
sS'PHYS TGT ID'
p2743
S'HOMES'
p2744
sS'PERP INCIDENT CATEGORY'
p2745
S'STATESPONSORED VIOLENCE'
p2746
sS'PERP ORGANIZATION ID'
p2747
S'TANDONA GROUP LA TANDONA'
p2748
sS'HUM TGT TYPE'
p2749
S''
sS'HUM TGT TOTAL NUMBER'
p2750
S''
sS'INCIDENT INSTRUMENT ID'
p2751
S''
sS'INCIDENT INSTRUMENT TYPE'
p2752
S'BOMB'
p2753
sS'PHYS TGT FOREIGN NATION'
p2754
S''
sS'HUM TGT NUMBER'
p2755
S''
sS'PHYS TGT TYPE'
p2756
S'CIVILIAN RESIDENCE HOMES'
p2757
sS'HUM TGT NAME'
p2758
S''
sS'INCIDENT TYPE'
p2759
S'BOMBING'
p2760
sS'PHYS TGT NUMBER'
p2761
S'500 HOMES'
p2762
sS'PERP INDIVIDUAL ID'
p2763
S'HIGH COMMAND'
p2764
sS'INCIDENT STAGE OF EXECUTION'
p2765
S'ACCOMPLISHED'
p2766
sS'HUM TGT DESCRIPTION'
p2767
S''
sS'PHYS TGT EFFECT OF INCIDENT'
p2768
S'DESTROYED HOMES'
p2769
sS'HUM TGT FOREIGN NATION'
p2770
S''
sS'INCIDENT DATE'
p2771
S''
sS'MESSAGE TEMPLATE'
p2772
S'1 OPTIONAL'
p2773
sS'PHYS TGT TOTAL NUMBER'
p2774
S''
ssS'TST3MUC40066'
p2775
(dp2776
S'PERP ORGANIZATION CONFIDENCE'
p2777
S''
sS'HUM TGT EFFECT OF INCIDENT'
p2778
S'DEATH JESUIT PRIESTS PRIESTS'
p2779
sS'INCIDENT LOCATION'
p2780
S'EL SALVADOR CENTRAL AMERICAN UNIVERSITY UNIVERSITY'
p2781
sS'PHYS TGT ID'
p2782
S''
sS'PERP INCIDENT CATEGORY'
p2783
S'TERRORIST ACT'
p2784
sS'PERP ORGANIZATION ID'
p2785
S''
sS'HUM TGT TYPE'
p2786
S'CIVILIAN JESUIT PRIESTS PRIESTS'
p2787
sS'HUM TGT TOTAL NUMBER'
p2788
S''
sS'INCIDENT INSTRUMENT ID'
p2789
S''
sS'INCIDENT INSTRUMENT TYPE'
p2790
S''
sS'PHYS TGT FOREIGN NATION'
p2791
S''
sS'HUM TGT NUMBER'
p2792
S'6 JESUIT PRIESTS PRIESTS'
p2793
sS'PHYS TGT TYPE'
p2794
S''
sS'HUM TGT NAME'
p2795
S''
sS'INCIDENT TYPE'
p2796
S'ATTACK'
p2797
sS'PHYS TGT NUMBER'
p2798
S''
sS'PERP INDIVIDUAL ID'
p2799
S'EXTREME RIGHT DEATH SQUADS DEATH SQUADS'
p2800
sS'INCIDENT STAGE OF EXECUTION'
p2801
S'ACCOMPLISHED'
p2802
sS'HUM TGT DESCRIPTION'
p2803
S'JESUIT PRIESTS PRIESTS'
p2804
sS'PHYS TGT EFFECT OF INCIDENT'
p2805
S''
sS'HUM TGT FOREIGN NATION'
p2806
S''
sS'INCIDENT DATE'
p2807
S'17 NOV 89 11 NOV 89 17 NOV 89'
p2808
sS'MESSAGE TEMPLATE'
p2809
S'1'
sS'PHYS TGT TOTAL NUMBER'
p2810
S''
ssS'TST3MUC40009'
p2811
(dp2812
S'PERP ORGANIZATION CONFIDENCE'
p2813
S''
sS'HUM TGT EFFECT OF INCIDENT'
p2814
S''
sS'INCIDENT LOCATION'
p2815
S''
sS'PHYS TGT ID'
p2816
S''
sS'PERP INCIDENT CATEGORY'
p2817
S''
sS'PERP ORGANIZATION ID'
p2818
S''
sS'HUM TGT TYPE'
p2819
S''
sS'HUM TGT TOTAL NUMBER'
p2820
S''
sS'INCIDENT INSTRUMENT ID'
p2821
S''
sS'INCIDENT INSTRUMENT TYPE'
p2822
S''
sS'PHYS TGT FOREIGN NATION'
p2823
S''
sS'HUM TGT NUMBER'
p2824
S''
sS'PHYS TGT TYPE'
p2825
S''
sS'HUM TGT NAME'
p2826
S''
sS'INCIDENT TYPE'
p2827
S''
sS'PHYS TGT NUMBER'
p2828
S''
sS'PERP INDIVIDUAL ID'
p2829
S''
sS'INCIDENT STAGE OF EXECUTION'
p2830
S''
sS'HUM TGT DESCRIPTION'
p2831
S''
sS'PHYS TGT EFFECT OF INCIDENT'
p2832
S''
sS'HUM TGT FOREIGN NATION'
p2833
S''
sS'INCIDENT DATE'
p2834
S''
sS'MESSAGE TEMPLATE'
p2835
S''
sS'PHYS TGT TOTAL NUMBER'
p2836
S''
ssS'TST3MUC40008'
p2837
(dp2838
S'PERP ORGANIZATION CONFIDENCE'
p2839
S''
sS'HUM TGT EFFECT OF INCIDENT'
p2840
S''
sS'INCIDENT LOCATION'
p2841
S''
sS'PHYS TGT ID'
p2842
S''
sS'PERP INCIDENT CATEGORY'
p2843
S''
sS'PERP ORGANIZATION ID'
p2844
S''
sS'HUM TGT TYPE'
p2845
S''
sS'HUM TGT TOTAL NUMBER'
p2846
S''
sS'INCIDENT INSTRUMENT ID'
p2847
S''
sS'INCIDENT INSTRUMENT TYPE'
p2848
S''
sS'PHYS TGT FOREIGN NATION'
p2849
S''
sS'HUM TGT NUMBER'
p2850
S''
sS'PHYS TGT TYPE'
p2851
S''
sS'HUM TGT NAME'
p2852
S''
sS'INCIDENT TYPE'
p2853
S''
sS'PHYS TGT NUMBER'
p2854
S''
sS'PERP INDIVIDUAL ID'
p2855
S''
sS'INCIDENT STAGE OF EXECUTION'
p2856
S''
sS'HUM TGT DESCRIPTION'
p2857
S''
sS'PHYS TGT EFFECT OF INCIDENT'
p2858
S''
sS'HUM TGT FOREIGN NATION'
p2859
S''
sS'INCIDENT DATE'
p2860
S''
sS'MESSAGE TEMPLATE'
p2861
S''
sS'PHYS TGT TOTAL NUMBER'
p2862
S''
ssS'TST3MUC40007'
p2863
(dp2864
S'PERP ORGANIZATION CONFIDENCE'
p2865
S'SUSPECTED OR ACCUSED NICARAGUAN EMBASSY'
p2866
sS'HUM TGT EFFECT OF INCIDENT'
p2867
S'DEATH MANUEL ANTONIO RUGAMA'
p2868
sS'INCIDENT LOCATION'
p2869
S'HONDURAS TEGUCIGALPA CITY HONDURAS'
p2870
sS'PHYS TGT ID'
p2871
S''
sS'PERP INCIDENT CATEGORY'
p2872
S'STATESPONSORED VIOLENCE'
p2873
sS'PERP ORGANIZATION ID'
p2874
S'NICARAGUAN EMBASSY'
p2875
sS'HUM TGT TYPE'
p2876
S'POLITICAL FIGURE MANUEL ANTONIO RUGAMA'
p2877
sS'HUM TGT TOTAL NUMBER'
p2878
S''
sS'INCIDENT INSTRUMENT ID'
p2879
S''
sS'INCIDENT INSTRUMENT TYPE'
p2880
S'GUN'
p2881
sS'PHYS TGT FOREIGN NATION'
p2882
S''
sS'HUM TGT NUMBER'
p2883
S'1 MANUEL ANTONIO RUGAMA'
p2884
sS'PHYS TGT TYPE'
p2885
S''
sS'HUM TGT NAME'
p2886
S'MANUEL ANTONIO RUGAMA'
p2887
sS'INCIDENT TYPE'
p2888
S'ATTACK'
p2889
sS'PHYS TGT NUMBER'
p2890
S''
sS'PERP INDIVIDUAL ID'
p2891
S'JOSE JESUS PENA JOSE JESUS PENAALLEGED CHIEF OF SECURITY FOR THE NICARAGUAN EMBASSY IN TEGUCIGALPA'
p2892
sS'INCIDENT STAGE OF EXECUTION'
p2893
S'ACCOMPLISHED'
p2894
sS'HUM TGT DESCRIPTION'
p2895
S'CONTRA COMMANDER MANUEL ANTONIO RUGAMA'
p2896
sS'PHYS TGT EFFECT OF INCIDENT'
p2897
S''
sS'HUM TGT FOREIGN NATION'
p2898
S'NICARAGUA MANUEL ANTONIO RUGAMA'
p2899
sS'INCIDENT DATE'
p2900
S'07 JAN 89'
p2901
sS'MESSAGE TEMPLATE'
p2902
S'2'
sS'PHYS TGT TOTAL NUMBER'
p2903
S''
ssS'TST3MUC40006'
p2904
(dp2905
S'PERP ORGANIZATION CONFIDENCE'
p2906
S''
sS'HUM TGT EFFECT OF INCIDENT'
p2907
S''
sS'INCIDENT LOCATION'
p2908
S'EL SALVADOR'
p2909
sS'PHYS TGT ID'
p2910
S''
sS'PERP INCIDENT CATEGORY'
p2911
S'STATESPONSORED VIOLENCE'
p2912
sS'PERP ORGANIZATION ID'
p2913
S''
sS'HUM TGT TYPE'
p2914
S'POLITICAL FIGURE HECTOR OQUELI'
p2915
sS'HUM TGT TOTAL NUMBER'
p2916
S''
sS'INCIDENT INSTRUMENT ID'
p2917
S''
sS'INCIDENT INSTRUMENT TYPE'
p2918
S''
sS'PHYS TGT FOREIGN NATION'
p2919
S''
sS'HUM TGT NUMBER'
p2920
S'1 HECTOR OQUELI'
p2921
sS'PHYS TGT TYPE'
p2922
S''
sS'HUM TGT NAME'
p2923
S'HECTOR OQUELI'
p2924
sS'INCIDENT TYPE'
p2925
S'ATTACK'
p2926
sS'PHYS TGT NUMBER'
p2927
S''
sS'PERP INDIVIDUAL ID'
p2928
S'SEVERAL PEOPLE PEOPLE SEVERAL PEOPLE WHO THROUGH A GOVERNMENT RADIO NETWORK HAD ACCUSED HIM OF BEING AN ACCOMPLICE OF THE REBELS PEOPLE WHO THROUGH A GOVERNMENT RADIO NETWORK HAD ACCUSED HIM OF BEING AN ACCOMPLICE OF THE REBELS'
p2929
sS'INCIDENT STAGE OF EXECUTION'
p2930
S'THREATENED'
p2931
sS'HUM TGT DESCRIPTION'
p2932
S'UNDERSECRETARY OF THE NATIONAL REVOLUTIONARY MOVEMENT MNR OF EL SALVADOR UNDERSECRETARY OF THE NATIONAL REVOLUTIONARY MOVEMENT MNR UNDERSECRETARY OF THE NATIONAL REVOLUTIONARY MOVEMENT HECTOR OQUELI'
p2933
sS'PHYS TGT EFFECT OF INCIDENT'
p2934
S''
sS'HUM TGT FOREIGN NATION'
p2935
S''
sS'INCIDENT DATE'
p2936
S'13 NOV 89'
p2937
sS'MESSAGE TEMPLATE'
p2938
S'2 OPTIONAL'
p2939
sS'PHYS TGT TOTAL NUMBER'
p2940
S''
ssS'TST3MUC40005'
p2941
(dp2942
S'PERP ORGANIZATION CONFIDENCE'
p2943
S''
sS'HUM TGT EFFECT OF INCIDENT'
p2944
S''
sS'INCIDENT LOCATION'
p2945
S'GUATEMALA GUATEMALA CITY CITY'
p2946
sS'PHYS TGT ID'
p2947
S''
sS'PERP INCIDENT CATEGORY'
p2948
S''
sS'PERP ORGANIZATION ID'
p2949
S''
sS'HUM TGT TYPE'
p2950
S'POLITICAL FIGURE HECTOR OQUELI COLINDRES'
p2951
sS'HUM TGT TOTAL NUMBER'
p2952
S''
sS'INCIDENT INSTRUMENT ID'
p2953
S''
sS'INCIDENT INSTRUMENT TYPE'
p2954
S''
sS'PHYS TGT FOREIGN NATION'
p2955
S''
sS'GILDA FLORES'
p2956
S''
sS'HUM TGT NUMBER'
p2957
S'1 HECTOR OQUELI COLINDRES'
p2958
sS'PHYS TGT TYPE'
p2959
S''
sS'HUM TGT NAME'
p2960
S'HECTOR OQUELI COLINDRES'
p2961
sS'INCIDENT TYPE'
p2962
S'KIDNAPPING'
p2963
sS'PHYS TGT NUMBER'
p2964
S''
sS'PERP INDIVIDUAL ID'
p2965
S'HEAVILY ARMED MEN'
p2966
sS'INCIDENT STAGE OF EXECUTION'
p2967
S'ACCOMPLISHED'
p2968
sS'HUM TGT DESCRIPTION'
p2969
S'SOCIAL DEMOCRATIC POLITICIAN SECRETARY OF THE NATIONAL REVOLUTIONARY MOVEMENT MNR SECRETARY OF THE NATIONAL REVOLUTIONARY MOVEMENT SOCIALIST INTERNATIONAL SECRETARY FOR LATIN AMERICA HECTOR OQUELI COLINDRES'
p2970
sS'PHYS TGT EFFECT OF INCIDENT'
p2971
S''
sS'HUM TGT FOREIGN NATION'
p2972
S'EL SALVADOR HECTOR OQUELI COLINDRES'
p2973
sS'INCIDENT DATE'
p2974
S'12 JAN 90'
p2975
sS'MESSAGE TEMPLATE'
p2976
S'1'
sS'PHYS TGT TOTAL NUMBER'
p2977
S''
ssS'TST3MUC40004'
p2978
(dp2979
S'PERP ORGANIZATION CONFIDENCE'
p2980
S''
sS'HUM TGT EFFECT OF INCIDENT'
p2981
S''
sS'INCIDENT LOCATION'
p2982
S''
sS'PHYS TGT ID'
p2983
S''
sS'PERP INCIDENT CATEGORY'
p2984
S''
sS'PERP ORGANIZATION ID'
p2985
S''
sS'HUM TGT TYPE'
p2986
S''
sS'HUM TGT TOTAL NUMBER'
p2987
S''
sS'INCIDENT INSTRUMENT ID'
p2988
S''
sS'INCIDENT INSTRUMENT TYPE'
p2989
S''
sS'PHYS TGT FOREIGN NATION'
p2990
S''
sS'HUM TGT NUMBER'
p2991
S''
sS'PHYS TGT TYPE'
p2992
S''
sS'HUM TGT NAME'
p2993
S''
sS'INCIDENT TYPE'
p2994
S''
sS'PHYS TGT NUMBER'
p2995
S''
sS'PERP INDIVIDUAL ID'
p2996
S''
sS'INCIDENT STAGE OF EXECUTION'
p2997
S''
sS'HUM TGT DESCRIPTION'
p2998
S''
sS'PHYS TGT EFFECT OF INCIDENT'
p2999
S''
sS'HUM TGT FOREIGN NATION'
p3000
S''
sS'INCIDENT DATE'
p3001
S''
sS'MESSAGE TEMPLATE'
p3002
S''
sS'PHYS TGT TOTAL NUMBER'
p3003
S''
ssS'TST3MUC40003'
p3004
(dp3005
S'PERP ORGANIZATION CONFIDENCE'
p3006
S'SUSPECTED OR ACCUSED SHINING PATH'
p3007
sS'HUM TGT EFFECT OF INCIDENT'
p3008
S'DEATH ENRIQUE LOPEZ ALBUJAR TRINT'
p3009
sS'INCIDENT LOCATION'
p3010
S'PERU LIMA CITY SAN ISIDRO NEIGHBORHOOD'
p3011
sS'PHYS TGT ID'
p3012
S''
sS'PERP INCIDENT CATEGORY'
p3013
S'TERRORIST ACT'
p3014
sS'PERP ORGANIZATION ID'
p3015
S'SHINING PATH'
p3016
sS'HUM TGT TYPE'
p3017
S'FORMER GOVERNMENT OFFICIAL FORMER ACTIVE MILITARY ENRIQUE LOPEZ ALBUJAR TRINT'
p3018
sS'HUM TGT TOTAL NUMBER'
p3019
S''
sS'INCIDENT INSTRUMENT ID'
p3020
S''
sS'INCIDENT INSTRUMENT TYPE'
p3021
S'GUN'
p3022
sS'PHYS TGT FOREIGN NATION'
p3023
S''
sS'HUM TGT NUMBER'
p3024
S'1 ENRIQUE LOPEZ ALBUJAR TRINT'
p3025
sS'PHYS TGT TYPE'
p3026
S''
sS'HUM TGT NAME'
p3027
S'ENRIQUE LOPEZ ALBUJAR TRINT'
p3028
sS'INCIDENT TYPE'
p3029
S'ATTACK'
p3030
sS'PHYS TGT NUMBER'
p3031
S''
sS'PERP INDIVIDUAL ID'
p3032
S'MEMBERS OF THE MAOIST TERRORIST ORGANIZATION SHINING PATH CRIMINALS'
p3033
sS'INCIDENT STAGE OF EXECUTION'
p3034
S'ACCOMPLISHED'
p3035
sS'HUM TGT DESCRIPTION'
p3036
S'FORMER DEFENSE MINISTER ENRIQUE LOPEZ ALBUJAR TRINT'
p3037
sS'PHYS TGT EFFECT OF INCIDENT'
p3038
S''
sS'HUM TGT FOREIGN NATION'
p3039
S''
sS'INCIDENT DATE'
p3040
S'09 JAN 90'
p3041
sS'MESSAGE TEMPLATE'
p3042
S'1'
sS'PHYS TGT TOTAL NUMBER'
p3043
S''
ssS'TST3MUC40002'
p3044
(dp3045
S'PERP ORGANIZATION CONFIDENCE'
p3046
S'SUSPECTED OR ACCUSED BY AUTHORITIES ARMED FORCES'
p3047
sS'HUM TGT EFFECT OF INCIDENT'
p3048
S'DEATH JESUITS'
p3049
sS'INCIDENT LOCATION'
p3050
S'EL SALVADOR'
p3051
sS'PHYS TGT ID'
p3052
S''
sS'PERP INCIDENT CATEGORY'
p3053
S'STATESPONSORED VIOLENCE'
p3054
sS'PERP ORGANIZATION ID'
p3055
S'ARMED FORCES'
p3056
sS'HUM TGT TYPE'
p3057
S'CIVILIAN JESUITS'
p3058
sS'HUM TGT TOTAL NUMBER'
p3059
S''
sS'INCIDENT INSTRUMENT ID'
p3060
S''
sS'INCIDENT INSTRUMENT TYPE'
p3061
S''
sS'PHYS TGT FOREIGN NATION'
p3062
S''
sS'HUM TGT NUMBER'
p3063
S'6 JESUITS'
p3064
sS'PHYS TGT TYPE'
p3065
S''
sS'HUM TGT NAME'
p3066
S''
sS'INCIDENT TYPE'
p3067
S'ATTACK'
p3068
sS'PHYS TGT NUMBER'
p3069
S''
sS'MAIDS'
p3070
S''
sS'PERP INDIVIDUAL ID'
p3071
S'MILITARY MILITARY SUSPECTS SOME MILITARY ARMED FORCES MEMBERS'
p3072
sS'INCIDENT STAGE OF EXECUTION'
p3073
S'ACCOMPLISHED'
p3074
sS'HUM TGT DESCRIPTION'
p3075
S'JESUITS'
p3076
sS'PHYS TGT EFFECT OF INCIDENT'
p3077
S''
sS'HUM TGT FOREIGN NATION'
p3078
S''
sS'INCIDENT DATE'
p3079
S'16 NOV 89'
p3080
sS'MESSAGE TEMPLATE'
p3081
S'1'
sS'PHYS TGT TOTAL NUMBER'
p3082
S''
ssS'TST3MUC40001'
p3083
(dp3084
S'PERP ORGANIZATION CONFIDENCE'
p3085
S''
sS'HUM TGT EFFECT OF INCIDENT'
p3086
S'DEATH JESUIT PRIESTS'
p3087
sS'INCIDENT LOCATION'
p3088
S'EL SALVADOR'
p3089
sS'PHYS TGT ID'
p3090
S''
sS'PERP INCIDENT CATEGORY'
p3091
S''
sS'PERP ORGANIZATION ID'
p3092
S''
sS'HUM TGT TYPE'
p3093
S'CIVILIAN JESUIT PRIESTS'
p3094
sS'HUM TGT TOTAL NUMBER'
p3095
S''
sS'INCIDENT INSTRUMENT ID'
p3096
S''
sS'INCIDENT INSTRUMENT TYPE'
p3097
S''
sS'PHYS TGT FOREIGN NATION'
p3098
S''
sS'HUM TGT NUMBER'
p3099
S'PLURAL JESUIT PRIESTS'
p3100
sS'PHYS TGT TYPE'
p3101
S''
sS'HUM TGT NAME'
p3102
S''
sS'INCIDENT TYPE'
p3103
S'ATTACK'
p3104
sS'PHYS TGT NUMBER'
p3105
S''
sS'PERP INDIVIDUAL ID'
p3106
S''
sS'INCIDENT STAGE OF EXECUTION'
p3107
S'ACCOMPLISHED'
p3108
sS'HUM TGT DESCRIPTION'
p3109
S'JESUIT PRIESTS'
p3110
sS'PHYS TGT EFFECT OF INCIDENT'
p3111
S''
sS'HUM TGT FOREIGN NATION'
p3112
S''
sS'INCIDENT DATE'
p3113
S''
sS'MESSAGE TEMPLATE'
p3114
S'1'
sS'PHYS TGT TOTAL NUMBER'
p3115
S''
ssS'TST3MUC40094'
p3116
(dp3117
S'PERP ORGANIZATION CONFIDENCE'
p3118
S'CLAIMED OR ADMITTED FMLNFDR FARABUNDO MARTI NATIONAL LIBERATION FRONTREVOLUTIONARY DEMOCRATIC FRONT'
p3119
sS'HUM TGT EFFECT OF INCIDENT'
p3120
S'INJURY OTTO MILLA'
p3121
sS'INCIDENT LOCATION'
p3122
S'EL SALVADOR EL SALVADOR SAN SALVADOR CITY'
p3123
sS'PHYS TGT ID'
p3124
S''
sS'PERP INCIDENT CATEGORY'
p3125
S'TERRORIST ACT'
p3126
sS'PERP ORGANIZATION ID'
p3127
S'FMLNFDR FARABUNDO MARTI NATIONAL LIBERATION FRONTREVOLUTIONARY DEMOCRATIC FRONT'
p3128
sS'HUM TGT TYPE'
p3129
S'CIVILIAN OTTO MILLA'
p3130
sS'HUM TGT TOTAL NUMBER'
p3131
S''
sS'INCIDENT INSTRUMENT ID'
p3132
S''
sS'INCIDENT INSTRUMENT TYPE'
p3133
S''
sS'PHYS TGT FOREIGN NATION'
p3134
S''
sS'HUM TGT NUMBER'
p3135
S'1 OTTO MILLA'
p3136
sS'PHYS TGT TYPE'
p3137
S''
sS'HUM TGT NAME'
p3138
S'OTTO MILLA'
p3139
sS'INCIDENT TYPE'
p3140
S'ATTACK'
p3141
sS'PHYS TGT NUMBER'
p3142
S''
sS'PERP INDIVIDUAL ID'
p3143
S'URBAN COMMANDOS TERRORIST SQUADS'
p3144
sS'INCIDENT STAGE OF EXECUTION'
p3145
S'ACCOMPLISHED'
p3146
sS'HUM TGT DESCRIPTION'
p3147
S'GENERAL RAFAEL HUMBERTO LARIOSS SONINLAW PILOT OTTO MILLA'
p3148
sS'PHYS TGT EFFECT OF INCIDENT'
p3149
S''
sS'HUM TGT FOREIGN NATION'
p3150
S''
sS'INCIDENT DATE'
p3151
S'06 APR 90'
p3152
sS'MESSAGE TEMPLATE'
p3153
S'6 OPTIONAL'
p3154
sS'PHYS TGT TOTAL NUMBER'
p3155
S''
ssS'TST3MUC40095'
p3156
(dp3157
S'PERP ORGANIZATION CONFIDENCE'
p3158
S''
sS'HUM TGT EFFECT OF INCIDENT'
p3159
S''
sS'INCIDENT LOCATION'
p3160
S''
sS'PHYS TGT ID'
p3161
S''
sS'PERP INCIDENT CATEGORY'
p3162
S''
sS'PERP ORGANIZATION ID'
p3163
S''
sS'HUM TGT TYPE'
p3164
S''
sS'HUM TGT TOTAL NUMBER'
p3165
S''
sS'INCIDENT INSTRUMENT ID'
p3166
S''
sS'INCIDENT INSTRUMENT TYPE'
p3167
S''
sS'PHYS TGT FOREIGN NATION'
p3168
S''
sS'HUM TGT NUMBER'
p3169
S''
sS'PHYS TGT TYPE'
p3170
S''
sS'HUM TGT NAME'
p3171
S''
sS'INCIDENT TYPE'
p3172
S''
sS'PHYS TGT NUMBER'
p3173
S''
sS'PERP INDIVIDUAL ID'
p3174
S''
sS'INCIDENT STAGE OF EXECUTION'
p3175
S''
sS'HUM TGT DESCRIPTION'
p3176
S''
sS'PHYS TGT EFFECT OF INCIDENT'
p3177
S''
sS'HUM TGT FOREIGN NATION'
p3178
S''
sS'INCIDENT DATE'
p3179
S''
sS'MESSAGE TEMPLATE'
p3180
S''
sS'PHYS TGT TOTAL NUMBER'
p3181
S''
ssS'TST3MUC40096'
p3182
(dp3183
S'PERP ORGANIZATION CONFIDENCE'
p3184
S''
sS'HUM TGT EFFECT OF INCIDENT'
p3185
S'DEATH CARLOS PIZARRO LEONGOMEZ'
p3186
sS'INCIDENT LOCATION'
p3187
S'COLOMBIA'
p3188
sS'PHYS TGT ID'
p3189
S''
sS'PERP INCIDENT CATEGORY'
p3190
S''
sS'PERP ORGANIZATION ID'
p3191
S''
sS'HUM TGT TYPE'
p3192
S'POLITICAL FIGURE CARLOS PIZARRO LEONGOMEZ'
p3193
sS'HUM TGT TOTAL NUMBER'
p3194
S''
sS'INCIDENT INSTRUMENT ID'
p3195
S''
sS'INCIDENT INSTRUMENT TYPE'
p3196
S''
sS'PHYS TGT FOREIGN NATION'
p3197
S''
sS'HUM TGT NUMBER'
p3198
S'1 CARLOS PIZARRO LEONGOMEZ'
p3199
sS'PHYS TGT TYPE'
p3200
S''
sS'HUM TGT NAME'
p3201
S'CARLOS PIZARRO LEONGOMEZ'
p3202
sS'INCIDENT TYPE'
p3203
S'ATTACK'
p3204
sS'PHYS TGT NUMBER'
p3205
S''
sS'PERP INDIVIDUAL ID'
p3206
S''
sS'INCIDENT STAGE OF EXECUTION'
p3207
S'ACCOMPLISHED'
p3208
sS'HUM TGT DESCRIPTION'
p3209
S'PRESIDENTIAL CANDIDATE MR CARLOS PIZARRO LEONGOMEZ'
p3210
sS'PHYS TGT EFFECT OF INCIDENT'
p3211
S''
sS'HUM TGT FOREIGN NATION'
p3212
S''
sS'INCIDENT DATE'
p3213
S'26 APR 90'
p3214
sS'MESSAGE TEMPLATE'
p3215
S'1'
sS'PHYS TGT TOTAL NUMBER'
p3216
S''
ssS'TST3MUC40097'
p3217
(dp3218
S'PERP ORGANIZATION CONFIDENCE'
p3219
S''
sS'HUM TGT EFFECT OF INCIDENT'
p3220
S''
sS'INCIDENT LOCATION'
p3221
S'EL SALVADOR'
p3222
sS'PHYS TGT ID'
p3223
S'ELECTRICAL SYSTEMS'
p3224
sS'PERP INCIDENT CATEGORY'
p3225
S''
sS'PERP ORGANIZATION ID'
p3226
S''
sS'HUM TGT TYPE'
p3227
S''
sS'HUM TGT TOTAL NUMBER'
p3228
S''
sS'INCIDENT INSTRUMENT ID'
p3229
S''
sS'INCIDENT INSTRUMENT TYPE'
p3230
S''
sS'PHYS TGT FOREIGN NATION'
p3231
S''
sS'HUM TGT NUMBER'
p3232
S''
sS'PHYS TGT TYPE'
p3233
S'ENERGY ELECTRICAL SYSTEMS'
p3234
sS'HUM TGT NAME'
p3235
S''
sS'INCIDENT TYPE'
p3236
S'ATTACK'
p3237
sS'PHYS TGT NUMBER'
p3238
S'PLURAL ELECTRICAL SYSTEMS'
p3239
sS'PERP INDIVIDUAL ID'
p3240
S''
sS'INCIDENT STAGE OF EXECUTION'
p3241
S'ACCOMPLISHED'
p3242
sS'HUM TGT DESCRIPTION'
p3243
S''
sS'PHYS TGT EFFECT OF INCIDENT'
p3244
S'SOME DAMAGE ELECTRICAL SYSTEMS'
p3245
sS'HUM TGT FOREIGN NATION'
p3246
S''
sS'INCIDENT DATE'
p3247
S'01 MAY 90 03 MAY 90'
p3248
sS'MESSAGE TEMPLATE'
p3249
S'2 OPTIONAL'
p3250
sS'PHYS TGT TOTAL NUMBER'
p3251
S''
ssS'TST3MUC40090'
p3252
(dp3253
S'PERP ORGANIZATION CONFIDENCE'
p3254
S''
sS'HUM TGT EFFECT OF INCIDENT'
p3255
S''
sS'INCIDENT LOCATION'
p3256
S''
sS'PHYS TGT ID'
p3257
S''
sS'PERP INCIDENT CATEGORY'
p3258
S''
sS'PERP ORGANIZATION ID'
p3259
S''
sS'HUM TGT TYPE'
p3260
S''
sS'HUM TGT TOTAL NUMBER'
p3261
S''
sS'INCIDENT INSTRUMENT ID'
p3262
S''
sS'INCIDENT INSTRUMENT TYPE'
p3263
S''
sS'PHYS TGT FOREIGN NATION'
p3264
S''
sS'HUM TGT NUMBER'
p3265
S''
sS'PHYS TGT TYPE'
p3266
S''
sS'HUM TGT NAME'
p3267
S''
sS'INCIDENT TYPE'
p3268
S''
sS'PHYS TGT NUMBER'
p3269
S''
sS'PERP INDIVIDUAL ID'
p3270
S''
sS'INCIDENT STAGE OF EXECUTION'
p3271
S''
sS'HUM TGT DESCRIPTION'
p3272
S''
sS'PHYS TGT EFFECT OF INCIDENT'
p3273
S''
sS'HUM TGT FOREIGN NATION'
p3274
S''
sS'INCIDENT DATE'
p3275
S''
sS'MESSAGE TEMPLATE'
p3276
S''
sS'PHYS TGT TOTAL NUMBER'
p3277
S''
ssS'TST3MUC40091'
p3278
(dp3279
S'PERP ORGANIZATION CONFIDENCE'
p3280
S''
sS'HUM TGT EFFECT OF INCIDENT'
p3281
S'INJURY GUSTAVO LEIGH GUZMAN'
p3282
sS'INCIDENT LOCATION'
p3283
S'CHILE SANTIAGO CITY CHILE'
p3284
sS'PHYS TGT ID'
p3285
S''
sS'PERP INCIDENT CATEGORY'
p3286
S''
sS'PERP ORGANIZATION ID'
p3287
S''
sS'HUM TGT TYPE'
p3288
S'FORMER ACTIVE MILITARY GUSTAVO LEIGH GUZMAN'
p3289
sS'HUM TGT TOTAL NUMBER'
p3290
S''
sS'INCIDENT INSTRUMENT ID'
p3291
S'9 MM SEMIAUTOMATIC PISTOLS SEMIAUTOMATIC PISTOLS PISTOLS'
p3292
sS'INCIDENT INSTRUMENT TYPE'
p3293
S'HANDGUN 9 MM SEMIAUTOMATIC PISTOLS SEMIAUTOMATIC PISTOLS PISTOLS'
p3294
sS'PHYS TGT FOREIGN NATION'
p3295
S''
sS'HUM TGT NUMBER'
p3296
S'1 GUSTAVO LEIGH GUZMAN'
p3297
sS'PHYS TGT TYPE'
p3298
S''
sS'HUM TGT NAME'
p3299
S'GUSTAVO LEIGH GUZMAN'
p3300
sS'ENRIQUE RUIZ'
p3301
S''
sS'INCIDENT TYPE'
p3302
S'ATTACK'
p3303
sS'PHYS TGT NUMBER'
p3304
S''
sS'PERP INDIVIDUAL ID'
p3305
S'TWO 23 TO 25YEAROLD INDIVIDUALS TWO INDIVIDUALS INDIVIDUALS'
p3306
sS'INCIDENT STAGE OF EXECUTION'
p3307
S'ACCOMPLISHED'
p3308
sS'HUM TGT DESCRIPTION'
p3309
S'FORMER MILITARY REGIME GOVERNMENT JUNTA MEMBER FORMER COMMANDER IN CHIEF OF THE AIR FORCE FORMER COMMANDER IN CHIEF OF THE AIR FORCE AND MEMBER OF THE MILITARY REGIMES GOVERNMENT JUNTA GENERAL GEN GEN GUSTAVO LEIGH GUZMAN'
p3310
sS'PHYS TGT EFFECT OF INCIDENT'
p3311
S''
sS'HUM TGT FOREIGN NATION'
p3312
S''
sS'INCIDENT DATE'
p3313
S'21 MAR 90'
p3314
sS'MESSAGE TEMPLATE'
p3315
S'1'
sS'PHYS TGT TOTAL NUMBER'
p3316
S''
ssS'TST3MUC40092'
p3317
(dp3318
S'PERP ORGANIZATION CONFIDENCE'
p3319
S''
sS'HUM TGT EFFECT OF INCIDENT'
p3320
S''
sS'INCIDENT LOCATION'
p3321
S''
sS'PHYS TGT ID'
p3322
S''
sS'PERP INCIDENT CATEGORY'
p3323
S''
sS'PERP ORGANIZATION ID'
p3324
S''
sS'HUM TGT TYPE'
p3325
S''
sS'HUM TGT TOTAL NUMBER'
p3326
S''
sS'INCIDENT INSTRUMENT ID'
p3327
S''
sS'INCIDENT INSTRUMENT TYPE'
p3328
S''
sS'PHYS TGT FOREIGN NATION'
p3329
S''
sS'HUM TGT NUMBER'
p3330
S''
sS'PHYS TGT TYPE'
p3331
S''
sS'HUM TGT NAME'
p3332
S''
sS'INCIDENT TYPE'
p3333
S''
sS'PHYS TGT NUMBER'
p3334
S''
sS'PERP INDIVIDUAL ID'
p3335
S''
sS'INCIDENT STAGE OF EXECUTION'
p3336
S''
sS'HUM TGT DESCRIPTION'
p3337
S''
sS'PHYS TGT EFFECT OF INCIDENT'
p3338
S''
sS'HUM TGT FOREIGN NATION'
p3339
S''
sS'INCIDENT DATE'
p3340
S''
sS'MESSAGE TEMPLATE'
p3341
S''
sS'PHYS TGT TOTAL NUMBER'
p3342
S''
ssS'TST3MUC40093'
p3343
(dp3344
S'PERP ORGANIZATION CONFIDENCE'
p3345
S''
sS'HUM TGT EFFECT OF INCIDENT'
p3346
S'DEATH BERNARDO JARAMILLO'
p3347
sS'INCIDENT LOCATION'
p3348
S'COLOMBIA'
p3349
sS'PHYS TGT ID'
p3350
S''
sS'PERP INCIDENT CATEGORY'
p3351
S''
sS'PERP ORGANIZATION ID'
p3352
S''
sS'HUM TGT TYPE'
p3353
S'POLITICAL FIGURE BERNARDO JARAMILLO'
p3354
sS'HUM TGT TOTAL NUMBER'
p3355
S''
sS'INCIDENT INSTRUMENT ID'
p3356
S''
sS'INCIDENT INSTRUMENT TYPE'
p3357
S''
sS'PHYS TGT FOREIGN NATION'
p3358
S''
sS'HUM TGT NUMBER'
p3359
S'1 BERNARDO JARAMILLO'
p3360
sS'PHYS TGT TYPE'
p3361
S''
sS'HUM TGT NAME'
p3362
S'BERNARDO JARAMILLO'
p3363
sS'INCIDENT TYPE'
p3364
S'ATTACK'
p3365
sS'PHYS TGT NUMBER'
p3366
S''
sS'PERP INDIVIDUAL ID'
p3367
S''
sS'INCIDENT STAGE OF EXECUTION'
p3368
S'ACCOMPLISHED'
p3369
sS'HUM TGT DESCRIPTION'
p3370
S'PRESIDENTIAL CANDIDATE DR BERNARDO JARAMILLO'
p3371
sS'PHYS TGT EFFECT OF INCIDENT'
p3372
S''
sS'HUM TGT FOREIGN NATION'
p3373
S''
sS'INCIDENT DATE'
p3374
S'23 MAR 90 09 MAR 90 23 MAR 90'
p3375
sS'MESSAGE TEMPLATE'
p3376
S'1'
sS'PHYS TGT TOTAL NUMBER'
p3377
S''
ssS'TST3MUC40098'
p3378
(dp3379
S'PERP ORGANIZATION CONFIDENCE'
p3380
S''
sS'HUM TGT EFFECT OF INCIDENT'
p3381
S'DEATH JESUITS'
p3382
sS'INCIDENT LOCATION'
p3383
S'EL SALVADOR'
p3384
sS'PHYS TGT ID'
p3385
S''
sS'PERP INCIDENT CATEGORY'
p3386
S'STATESPONSORED VIOLENCE'
p3387
sS'PERP ORGANIZATION ID'
p3388
S''
sS'HUM TGT TYPE'
p3389
S'CIVILIAN JESUITS'
p3390
sS'HUM TGT TOTAL NUMBER'
p3391
S''
sS'INCIDENT INSTRUMENT ID'
p3392
S''
sS'INCIDENT INSTRUMENT TYPE'
p3393
S''
sS'PHYS TGT FOREIGN NATION'
p3394
S''
sS'HUM TGT NUMBER'
p3395
S'PLURAL JESUITS'
p3396
sS'PHYS TGT TYPE'
p3397
S''
sS'HUM TGT NAME'
p3398
S''
sS'INCIDENT TYPE'
p3399
S'ATTACK'
p3400
sS'PHYS TGT NUMBER'
p3401
S''
sS'PERP INDIVIDUAL ID'
p3402
S'GROUP OF SOLDIERS SOLDIERS'
p3403
sS'INCIDENT STAGE OF EXECUTION'
p3404
S'ACCOMPLISHED'
p3405
sS'HUM TGT DESCRIPTION'
p3406
S'JESUITS'
p3407
sS'PHYS TGT EFFECT OF INCIDENT'
p3408
S''
sS'HUM TGT FOREIGN NATION'
p3409
S''
sS'INCIDENT DATE'
p3410
S'07 MAY 90'
p3411
sS'MESSAGE TEMPLATE'
p3412
S'1'
sS'PHYS TGT TOTAL NUMBER'
p3413
S''
ssS'TST3MUC40099'
p3414
(dp3415
S'PERP ORGANIZATION CONFIDENCE'
p3416
S'REPORTED AS FACT FARABUNDO MARTI NATIONAL LIBERATION FRONT FMLN'
p3417
sS'HUM TGT EFFECT OF INCIDENT'
p3418
S'NO INJURY OR DEATH NO DEATH'
p3419
sS'INCIDENT LOCATION'
p3420
S'EL SALVADOR SANTA ANA DEPARTMENT NATIVIDAD CANTON'
p3421
sS'PHYS TGT ID'
p3422
S'CEL SUBSTATION'
p3423
sS'PERP INCIDENT CATEGORY'
p3424
S'TERRORIST ACT'
p3425
sS'PERP ORGANIZATION ID'
p3426
S'FARABUNDO MARTI NATIONAL LIBERATION FRONT FMLN'
p3427
sS'HUM TGT TYPE'
p3428
S''
sS'HUM TGT TOTAL NUMBER'
p3429
S''
sS'INCIDENT INSTRUMENT ID'
p3430
S'MORTARS'
p3431
sS'INCIDENT INSTRUMENT TYPE'
p3432
S'MORTAR MORTARS'
p3433
sS'PHYS TGT FOREIGN NATION'
p3434
S''
sS'HUM TGT NUMBER'
p3435
S''
sS'PHYS TGT TYPE'
p3436
S'ENERGY CEL SUBSTATION'
p3437
sS'HUM TGT NAME'
p3438
S''
sS'INCIDENT TYPE'
p3439
S'ATTACK'
p3440
sS'PHYS TGT NUMBER'
p3441
S'1 CEL SUBSTATION'
p3442
sS'PERP INDIVIDUAL ID'
p3443
S'GUERRILLAS'
p3444
sS'INCIDENT STAGE OF EXECUTION'
p3445
S'ACCOMPLISHED'
p3446
sS'HUM TGT DESCRIPTION'
p3447
S''
sS'PHYS TGT EFFECT OF INCIDENT'
p3448
S'SOME DAMAGE CEL SUBSTATION'
p3449
sS'HUM TGT FOREIGN NATION'
p3450
S''
sS'INCIDENT DATE'
p3451
S'01 JUN 90'
p3452
sS'MESSAGE TEMPLATE'
p3453
S'2'
sS'PHYS TGT TOTAL NUMBER'
p3454
S''
ss.