(dp1
S'TST4-MUC4-0099'
p2
(dp3
S'searchTerm'
p4
(lp5
S'murdering military judge fernando'
p6
aS'terrorist manuel rodriguez patriotic front [fpmr]'
p7
aS'failure'
p8
a(lp9
S'article justifies the operation and reiterates that the fpmr has not given up its decision to carry out its sentence of capital punishment for this individual'
p10
aa(lp11
S'national patriotic war'
p12
aa(lp13
S'issue which was distributed a few days before christmas includes a pamphlet with instructions on how to manufacture bombs and poems urging the people to join the subversion and the armed fight'
p14
aasS'AMBIENCE'
p15
(lp16
S'"editorial"'
p17
asS'dateRange'
p18
(lp19
(dp20
S'start'
p21
S'0088-11-29'
p22
sS'end'
p23
S'0088-12-30'
p24
sasS'location'
p25
(lp26
S'santiago 21'
p27
asS'title'
p28
(lp29
S'remembering the fpmr fifth anniversary militants to continue the armed fight against tyranny'
p30
a(lp31
S'report'
p32
aa(lp33
S'raul pellegrini alias commander rodrigo and other fpmr heroes including cecilia magni alias commander tamara'
p34
aassS'TST4-MUC4-0098'
p35
(dp36
S'location'
p37
(lp38
S'zacamillo neighborhood'
p39
a(lp40
S'public security'
p41
aasS'dateRange'
p42
(lp43
(dp44
S'start'
p45
S'2013-11-10'
p46
sS'end'
p47
S'2013-11-10'
p48
sa(lp49
(dp50
S'start'
p51
S'2013-11-12'
p52
sS'end'
p53
S'2013-11-13'
p54
saasS'title'
p55
(lp56
S'(canal doce television) -- [text] national police director colonel carlos mauricio guzman aguilar fmln urban command units national police'
p57
a(lp58
S'shoot-out'
p59
aa(lp60
S'seized large-caliber weapons'
p61
aa(lp62
S'names are carlos elias menjivar guevara rene armando guevara martinez marco tulio molina escobar canjura guillen'
p63
aa(lp64
S'atencio valladares luis san salvador rivas carrillo ana ruth merino'
p65
aa(lp66
S"rebels in monserrat [name as heard] police found and seized the following weapons in the guerrillas' car two romanian mp-24 9-mm submachineguns one north korean 9-mm pistol one"
p67
aa(lp68
S'national police officers'
p69
aasS'artist'
p70
(lp71
S'police'
p72
a(lp73
S"his daughter's whereabouts"
p74
aa(lp75
S'police and'
p76
aasS'contacts'
p77
(lp78
(dp79
S'name'
p80
S'salvador'
p81
sa(lp82
(dp83
S'name'
p84
S'police'
p85
saa(lp86
(dp87
S'name'
p88
S'claudia'
p89
saa(lp90
(dp91
S'name'
p92
S'jaime'
p93
sa(dp94
g92
S'alexander'
p95
sa(dp96
g92
S'claudia'
p97
sa(dp98
g92
S'carolina'
p99
saassS'TST4-MUC4-0052'
p100
(dp101
S'contacts'
p102
(lp103
(dp104
S'name'
p105
S'mir'
p106
sa(lp107
(dp108
S'name'
p109
S'said'
p110
saasS'dateRange'
p111
(lp112
(dp113
S'start'
p114
S'2013-11-10'
p115
sS'end'
p116
S'2013-11-10'
p117
sa(lp118
(dp119
S'start'
p120
S'2013-12-06'
p121
sS'end'
p122
S'2014-11-08'
p123
saa(lp124
(dp125
S'start'
p126
S'1973-07-01'
p127
sS'end'
p128
S'1973-08-01'
p129
saasS'timeRange'
p130
(lp131
(dp132
g114
S'03:08:14AM'
p133
sg116
S'03:08:14AM'
p134
sasS'originalTitle'
p135
(lp136
S"communique people's demands its main defect demands as part negotiating strategy mobilization tasks chilean people"
p137
asS'location'
p138
(lp139
S'latest mir'
p140
a(lp141
S'chile'
p142
aa(lp143
S'mir'
p144
aasS'time'
p145
(lp146
S'2013-11-16'
p147
asS'title'
p148
(lp149
S'masses to destabilize the military regime'
p150
a(lp151
S'leftist party'
p152
aa(lp153
S'resolutions approved committee meeting'
p154
aa(lp155
S'meeting'
p156
aa(lp157
S'opposition parties'
p158
aassS'TST4-MUC4-0091'
p159
(dp160
S'searchTerm'
p161
(lp162
S'officers were flying accident took'
p163
a(lp164
S'military unit'
p165
aS'police'
p166
aa(lp167
S'officer'
p168
aS'same sources'
p169
aS'bridge'
p170
aS'car'
p171
aS'bridge'
p172
aasS'numPeople'
p173
(lp174
S'3'
a(lp175
S'2'
aasS'dateRange'
p176
(lp177
(dp178
S'start'
p179
S'2013-11-10'
p180
sS'end'
p181
S'2013-11-10'
p182
sasS'timeRange'
p183
(lp184
(dp185
S'start'
p186
S'12:00:00PM'
p187
sS'end'
p188
S'06:00:00PM'
p189
sasS'location'
p190
(lp191
S'patrol operation'
p192
a(lp193
S'tongoy beach santiago'
p194
aassS'TST4-MUC4-0090'
p195
(dp196
S'searchTerm'
p197
(lp198
S'murder of rosa western campus of the national university'
p199
asS'dateRange'
p200
(lp201
(dp202
S'start'
p203
S'0088-11-29'
p204
sS'end'
p205
S'0088-12-30'
p206
sa(lp207
(dp208
S'start'
p209
S'2013-12-16'
p210
sS'end'
p211
S'2013-12-17'
p212
saasS'location'
p213
(lp214
S'san salvador 19 santa ana'
p215
a(lp216
S'13th avenue south 11th street san rafael national university san salvador campus'
p217
aasS'event'
p218
(lp219
S'national university san salvador campus'
p220
assS'TST4-MUC4-0093'
p221
(dp222
S'title'
p223
(lp224
S'help eliminate these practices liberty and human dignity'
p225
a(lp226
S'epl general command'
p227
aasS'dateRange'
p228
(lp229
(dp230
S'start'
p231
S'2013-11-10'
p232
sS'end'
p233
S'2013-11-10'
p234
sa(lp235
(dp236
S'start'
p237
S'2014-08-30'
p238
sS'end'
p239
S'2014-08-31'
p240
saasS'timeRange'
p241
(lp242
(dp243
g237
S'01:00:00PM'
p244
sg239
S'01:00:00PM'
p245
sasS'contacts'
p246
(lp247
(dp248
S'name'
p249
S'we'
p250
sasS'location'
p251
(lp252
S'addition m-19'
p253
a(lp254
S'manuel marulanda velez jacobo arenas alfonso cano raul reyes timoleon jimenez farc general staff simon bolivar guerrilla coordinating board'
p255
aasS'searchTerm'
p256
(lp257
S"epl [people's"
p258
aS'following agreement'
p259
aS'government'
p260
a(lp261
S'colombian'
p262
aS'desire'
p263
aa(lp264
S'peace based on social justice'
p265
aa(lp266
S"government's policy"
p267
aa(lp268
S'is why we wrote this letter made our latest statements and have given instructions for a unilateral cease-fire as the best christmas gift for our people'
p269
aasS'message'
p270
(lp271
S"ensure peace in the nation--which is an essential prerequisite for the colombian people's prosperity--and social and economic development based on liberty and justice the following is hereby agreed upon"
p272
assS'TST4-MUC4-0092'
p273
(dp274
S'destination'
p275
(lp276
S'san salvador san jose villanueva south of san salvador la local garrison'
p277
asS'title'
p278
(lp279
S'government report few minutes local civil defense commander'
p280
a(lp281
S'try to defuse bombs'
p282
aasS'dateRange'
p283
(lp284
(dp285
S'start'
p286
S'2013-11-10'
p287
sS'end'
p288
S'2013-11-11'
p289
sasS'timeRange'
p290
(lp291
(dp292
S'start'
p293
S'06:00:00AM'
p294
sS'end'
p295
S'12:00:00PM'
p296
sa(lp297
(dp298
g286
S'06:00:00AM'
p299
sg288
S'12:00:00PM'
p300
saasS'location'
p301
(lp302
S'rebels town streets'
p303
asS'departing'
p304
(lp305
S'telecommunications] office'
p306
asS'route'
p307
(lp308
S'88 21'
p309
assS'TST4-MUC4-0095'
p310
(dp311
S'searchTerm'
p312
(lp313
S'control room'
p314
assS'TST4-MUC4-0094'
p315
(dp316
S'timeRange'
p317
(lp318
(dp319
S'start'
p320
S'03:09:12AM'
p321
sS'end'
p322
S'03:09:12AM'
p323
sasS'title'
p324
(lp325
S'peruvian governing party conflictive party party leader'
p326
a(lp327
S'party'
p328
aa(lp329
S'party'
p330
aa(lp331
S"alva castro internal dissidence party's disenchantment social and economic situation which is considered the worst crisis century and is blamed chief of state's stubbornness"
p332
aa(lp333
S'run current presidential term will end following new general elections'
p334
aa(lp335
S"political commission party's political line"
p336
aa(lp337
S'party being member political commission'
p338
aa(lp339
S'party congress'
p340
aa(lp341
S'party president post'
p342
aa(lp343
S'party failure to rectify his government line'
p344
aa(lp345
S'compounded by social instability and political violence'
p346
aasS'ORIGINALLOCATION'
p347
(lp348
S'16th apra congress favor orientation office'
p349
asS'dateRange'
p350
(lp351
(dp352
S'start'
p353
S'2013-11-10'
p354
sS'end'
p355
S'2013-11-10'
p356
sa(lp357
(dp358
S'start'
p359
S'1985-01-01'
p360
sS'end'
p361
S'1986-01-02'
p362
saa(lp363
(dp364
S'start'
p365
S'1982-01-01'
p366
sS'end'
p367
S'1983-01-02'
p368
saa(lp369
(dp370
S'start'
p371
S'2013-11-10'
p372
sS'end'
p373
S'2013-11-11'
p374
saa(lp375
(dp376
S'start'
p377
S'2013-11-10'
p378
sS'end'
p379
S'1990-01-02'
p380
saa(lp381
(dp382
S'start'
p383
S'2013-11-15'
p384
sS'end'
p385
S'2013-11-16'
p386
saa(lp387
(dp388
g320
S'1987-10-01'
p389
sg322
S'1988-10-02'
p390
saasS'contacts'
p391
(lp392
(dp393
S'name'
p394
S'luis'
p395
sa(dp396
g394
S'alan'
p397
sa(lp398
(dp399
S'name'
p400
S'alan'
p401
saa(lp402
(dp403
S'name'
p404
S'alan'
p405
saa(lp406
(dp407
S'name'
p408
S'alan'
p409
saa(lp410
(dp411
S'name'
p412
S'alan'
p413
saa(lp414
(dp415
S'name'
p416
S'garcia'
p417
sa(dp418
g416
S'haya'
p419
saa(lp420
(dp421
S'name'
p422
S'alan'
p423
sa(dp424
g422
S'haya'
p425
sa(dp426
g422
S'torre'
p427
saasS'originalTitle'
p428
(lp429
S"party's management apra's term"
p430
asS'REPEATDAYS'
p431
(lp432
S'"Mon|Thu|Wed|Tu|Sun|Sat|Fri"'
p433
a(lp434
S'"Mon|Thu|Wed|Tu|Sun|Sat|Fri"'
p435
aasS'location'
p436
(lp437
S"garcia's"
p438
a(lp439
S'way'
p440
aa(lp441
S"garcia's election victory torre's"
p442
aa(lp443
S"apra's main bastion"
p444
aasS'event'
p445
(lp446
S'economy minister as well deputies was'
p447
assS'TST4-MUC4-0097'
p448
(dp449
S'searchTerm'
p450
(lp451
S'checkpoint'
p452
asS'dateRange'
p453
(lp454
(dp455
S'start'
p456
S'2013-11-10'
p457
sS'end'
p458
S'2013-11-10'
p459
sasS'location'
p460
(lp461
S'bogota 25 dec 88 (inravision television cadena 1) -- [text] santa fe paseo real'
p462
assS'TST4-MUC4-0096'
p463
(dp464
S'title'
p465
(lp466
S'51 plastic bags containing'
p467
asS'dateRange'
p468
(lp469
(dp470
S'start'
p471
S'0088-11-29'
p472
sS'end'
p473
S'0088-12-30'
p474
sa(lp475
(dp476
S'start'
p477
S'2013-11-10'
p478
sS'end'
p479
S'2013-11-10'
p480
saasS'timeRange'
p481
(lp482
(dp483
S'start'
p484
S'09:30:00PM'
p485
sS'end'
p486
S'09:30:00PM'
p487
sasS'contacts'
p488
(lp489
(dp490
S'name'
p491
S'pistols'
p492
sa(dp493
g491
S'machineguns'
p494
sasS'location'
p495
(lp496
S'rio de janeiro (brazil) 22 [text] sao paulo cocaine'
p497
a(lp498
S'sao paulo'
p499
aa(lp500
S'local neighborhood'
p501
aa(lp502
S'bolivia sao paulo rio de janeiro'
p503
aa(lp504
S'rio de janeiro'
p505
aasS'searchTerm'
p506
(lp507
S'seized two drug traffickers'
p508
aS'police'
p509
a(lp510
S'drug seizure'
p511
aa(lp512
S'car'
p513
aS'district police office'
p514
aa(lp515
S'cocaine'
p516
aa(lp517
S'federal police revealed drug trafficking'
p518
aS'car'
p519
aasS'event'
p520
(lp521
S'drug traffickers'
p522
assS'TST2-MUC4-0057'
p523
(dp524
S'message'
p525
(lp526
S'indispensable to reorganize the negotiating table to ensure that opposition political parties and social groups are able to fully participate along with the government and the fmln'
p527
assS'TST2-MUC4-0056'
p528
(dp529
S'searchTerm'
p530
(lp531
S'relations'
p532
a(lp533
S'order'
p534
aasS'title'
p535
(lp536
S'reports'
p537
asS'location'
p538
(lp539
S'hospital'
p540
asS'contacts'
p541
(lp542
(dp543
S'name'
p544
S'santa elena'
p545
sassS'TST2-MUC4-0055'
p546
(dp547
S'title'
p548
(lp549
S'pro-che guevara group tupac amaru revolutionary movement (mrta'
p550
asS'dateRange'
p551
(lp552
(dp553
S'start'
p554
S'2013-11-10'
p555
sS'end'
p556
S'2013-11-10'
p557
sa(lp558
(dp559
S'start'
p560
S'2013-11-10'
p561
sS'end'
p562
S'2013-11-10'
p563
saasS'contacts'
p564
(lp565
(dp566
S'name'
p567
S'parker'
p568
sa(lp569
(dp570
S'name'
p571
S'hector delgado parker'
p572
sa(dp573
S'organization'
p574
S'hector delgado parker'
p575
saasS'searchTerm'
p576
(lp577
S'raids carried out'
p578
aS'television impresario'
p579
aS'peruvian police'
p580
a(lp581
S'raids carried'
p582
aS'police'
p583
aasS'location'
p584
(lp585
S'lima 5 lima'
p586
a(lp587
S'downtown lima'
p588
aa(lp589
S"lima's access roads lima"
p590
aasS'numPeople'
p591
(lp592
S'500'
p593
assS'TST2-MUC4-0054'
p594
(dp595
S'searchTerm'
p596
(lp597
S'at that point i was skeptical because the persons who have testified have accused the armed forces and i had never seen a salvadoran president or the armed forces make a serious effort to clean up its image and carry out investigtions to put members of the armed forces in prison'
p598
asS'dateRange'
p599
(lp600
(dp601
S'start'
p602
S'2013-11-10'
p603
sS'end'
p604
S'2013-11-10'
p605
sasS'title'
p606
(lp607
S'central american university [uca] father miguel francisco estrada report'
p608
asS'location'
p609
(lp610
S"government's"
p611
asS'contacts'
p612
(lp613
(dp614
S'name'
p615
S'salvador'
p616
sa(lp617
(dp618
S'organization'
p619
S'crimes'
p620
saassS'TST2-MUC4-0053'
p621
(dp622
S'searchTerm'
p623
(lp624
S'family sources'
p625
asS'dateRange'
p626
(lp627
(dp628
S'start'
p629
S'0089-06-29'
p630
sS'end'
p631
S'0089-07-30'
p632
sasS'location'
p633
(lp634
S'caracas (venezuela) 15 colombia caracas'
p635
a(lp636
S"venezuela's first colombia's northern santander"
p637
aasS'actor'
p638
(lp639
S'lady blanca rodriguez de perez --'
p640
asS'title'
p641
(lp642
S'brother'
p643
a(lp644
S'television report venezuelan government contacted colombian authorities to obtain more information'
p645
aassS'TST2-MUC4-0052'
p646
(dp647
S'title'
p648
(lp649
S'(idf radio) -- [excerpts] education minister yitzhaq navon cabinet session'
p650
a(lp651
S'report political correspondent natan gutman [begin weekly cabinet session'
p652
aa(lp653
S'meeting security activity israeli body abroad'
p654
aa(lp655
S'session cabinet secretary israeli government disassociates such activity'
p656
aa(lp657
S"[end recording] finance minister shim'on peres' draft law on streamlining bureaucracy was approved"
p658
aa(lp659
S'economic correspondent yaron kulas reports [begin recording] [kulas] draft law on slashing bureaucracy loud disagreement finance minister and likud ministers moshe nisim roni milo and ehud olmert'
p660
aasS'dateRange'
p661
(lp662
(dp663
S'start'
p664
S'2013-11-10'
p665
sS'end'
p666
S'2013-11-10'
p667
sa(lp668
(dp669
S'start'
p670
S'2013-11-10'
p671
sS'end'
p672
S'2013-11-11'
p673
saa(lp674
(dp675
S'start'
p676
S'2013-11-17'
p677
sS'end'
p678
S'2013-11-24'
p679
saasS'timeRange'
p680
(lp681
(dp682
g664
S'03:10:14AM'
p683
sg666
S'03:10:14AM'
p684
sa(lp685
(dp686
S'start'
p687
S'03:10:18AM'
p688
sS'end'
p689
S'03:10:18AM'
p690
saa(lp691
(dp692
g670
S'02:00:00PM'
p693
sg672
S'02:00:00PM'
p694
saasS'location'
p695
(lp696
S'colombia'
p697
a(lp698
S'large majority'
p699
aasS'contacts'
p700
(lp701
(dp702
S'name'
p703
S'aviv'
p704
sa(lp705
(dp706
S'name'
p707
S'law early'
p708
saassS'TST2-MUC4-0051'
p709
(dp710
S'searchTerm'
p711
(lp712
S'supreme court'
p713
aS'judge'
p714
asS'numTickets'
p715
(lp716
S'3'
asS'event'
p717
(lp718
S'situation  public order'
p719
assS'TST2-MUC4-0050'
p720
(dp721
S'searchTerm'
p722
(lp723
S'murder'
p724
aS'jorge adolfo vargas gonzalez'
p725
aS'nicaraguan embassy'
p726
a(lp727
S'nicaraguan embassy'
p728
aS'murder'
p729
aasS'dateRange'
p730
(lp731
(dp732
S'start'
p733
S'0089-11-29'
p734
sS'end'
p735
S'0089-12-30'
p736
sa(lp737
(dp738
S'start'
p739
S'2013-11-10'
p740
sS'end'
p741
S'2013-11-10'
p742
saa(lp743
(dp744
S'start'
p745
S'2013-11-10'
p746
sS'end'
p747
S'2013-11-11'
p748
saasS'timeRange'
p749
(lp750
(dp751
g739
S'10:00:00AM'
p752
sg741
S'10:00:00AM'
p753
sasS'location'
p754
(lp755
S'guatemala city 22 guatemala'
p756
a(lp757
S'zone'
p758
aa(lp759
S'guatemala'
p760
aa(lp761
S'minister ariel rivera guatemala jorge adolfo vargas gonzalez'
p762
aasS'contacts'
p763
(lp764
(dp765
S'name'
p766
S'claudia'
p767
sassS'TST2-MUC4-0059'
p768
(dp769
S'searchTerm'
p770
(lp771
S'police'
p772
aS'terrorist attacks'
p773
a(lp774
S'historical beach resort hilton hotel'
p775
aS'bomb exploded'
p776
aa(lp777
S'other lodgings'
p778
aS'hotel'
p779
aa(lp780
S'drug traffickers'
p781
aasS'dateRange'
p782
(lp783
(dp784
S'start'
p785
S'0089-08-30'
p786
sS'end'
p787
S'0089-09-29'
p788
sasS'location'
p789
(lp790
S'bogota 25 bogota caribbean port of cartagena left two dead and three injured'
p791
assS'TST2-MUC4-0058'
p792
(dp793
S'searchTerm'
p794
(lp795
S'police stations'
p796
a(lp797
S'police personnel'
p798
aasS'location'
p799
(lp800
S'villa gobernador galvez'
p801
asS'time'
p802
(lp803
S'89'
p804
assS'TST3-MUC4-0069'
p805
(dp806
S'artist'
p807
(lp808
S"american people's solidarity"
p809
asS'dateRange'
p810
(lp811
(dp812
S'start'
p813
S'2013-11-10'
p814
sS'end'
p815
S'2013-11-10'
p816
sa(lp817
(dp818
S'start'
p819
S'2013-11-10'
p820
sS'end'
p821
S'2013-11-11'
p822
saasS'contacts'
p823
(lp824
(dp825
S'name'
p826
S'bush gets'
p827
sasS'location'
p828
(lp829
S'el salvador vietnam'
p830
a(lp831
S'massacre'
p832
aa(lp833
S'army'
p834
aa(lp835
S'u'
aa(lp836
S'only picture el salvador'
p837
aasS'searchTerm'
p838
(lp839
S'wounded mother who tries to comfort her daughter a victim of the bombings is not an isolated picture'
p840
a(lp841
S'human rights champion'
p842
aa(lp843
S'world'
p844
aa(lp845
S'salvadoran situation'
p846
aasS'title'
p847
(lp848
S'(radio rebelde network) newspaper granma'
p849
assS'TST3-MUC4-0068'
p850
(dp851
S'destination'
p852
(lp853
S'another one rebels'
p854
asS'title'
p855
(lp856
S'farabundo marti national liberation front'
p857
a(lp858
S'young guerrilla commander zacamil cuscatancingo and mejicanos neighborhoods among others'
p859
aasS'dateRange'
p860
(lp861
(dp862
S'start'
p863
S'2013-11-10'
p864
sS'end'
p865
S'2013-11-10'
p866
sa(lp867
(dp868
S'start'
p869
S'2013-11-11'
p870
sS'end'
p871
S'2013-11-12'
p872
saa(lp873
(dp874
S'start'
p875
S'2013-11-10'
p876
sS'end'
p877
S'2013-11-11'
p878
saa(lp879
(dp880
S'start'
p881
S'2013-11-10'
p882
sS'end'
p883
S'2013-11-11'
p884
saasS'contacts'
p885
(lp886
(dp887
S'name'
p888
S'rebels'
p889
sa(dp890
g888
S'said'
p891
sa(lp892
(dp893
S'name'
p894
S'robert newell'
p895
saa(lp896
(dp897
S'name'
p898
S'rebel'
p899
saasS'location'
p900
(lp901
S'san salvador'
p902
a(lp903
S'facundo hotel'
p904
aa(lp905
S'sheraton hotel area'
p906
aa(lp907
S'0430 (1030 gmt) sheraton hotel secretary general joao baena soares'
p908
aasS'departing'
p909
(lp910
S'guatemala chile remain'
p911
asS'event'
p912
(lp913
S'several san salvador neighborhoods'
p914
assS'TST4-MUC4-0028'
p915
(dp916
S'destination'
p917
(lp918
S'santiago'
p919
a(lp920
S'tower main towers high tension network'
p921
aa(lp922
S'another tower destroyed main electricity network'
p923
aasS'departing'
p924
(lp925
S'copiapo'
p926
asS'dateRange'
p927
(lp928
(dp929
S'start'
p930
S'2013-11-10'
p931
sS'end'
p932
S'2013-11-10'
p933
sasS'timeRange'
p934
(lp935
(dp936
g930
S'04:11:23AM'
p937
sg932
S'04:11:23AM'
p938
sasS'searchTerm'
p939
(lp940
S'towers'
p941
asS'location'
p942
(lp943
S'metropolitan region'
p944
a(lp945
S'addition santiago'
p946
aasS'AMBIENCE'
p947
(lp948
S'"four destroyed"'
p949
assS'TST4-MUC4-0029'
p950
(dp951
S'searchTerm'
p952
(lp953
S'attackers left communist propaganda at the site'
p954
asS'dateRange'
p955
(lp956
(dp957
S'start'
p958
S'2013-11-10'
p959
sS'end'
p960
S'2013-11-10'
p961
sa(lp962
(dp963
S'start'
p964
S'2013-11-10'
p965
sS'end'
p966
S'2013-11-10'
p967
saasS'timeRange'
p968
(lp969
(dp970
g958
S'04:11:30AM'
p971
sg960
S'04:11:30AM'
p972
sasS'location'
p973
(lp974
S'university'
p975
a(lp976
S'lima'
p977
aa(lp978
S'door'
p979
aasS'title'
p980
(lp981
S'maoist shining path group'
p982
assS'TST4-MUC4-0024'
p983
(dp984
S'destination'
p985
(lp986
S'downtown area city'
p987
asS'title'
p988
(lp989
S'(radio chilena network) -- [excerpt] christian democratic party'
p990
a(lp991
S"party's board"
p992
aasS'dateRange'
p993
(lp994
(dp995
S'start'
p996
S'2013-11-10'
p997
sS'end'
p998
S'2013-11-10'
p999
sa(lp1000
(dp1001
S'start'
p1002
S'2014-10-05'
p1003
sS'end'
p1004
S'2014-10-06'
p1005
saasS'timeRange'
p1006
(lp1007
(dp1008
g996
S'06:00:00AM'
p1009
sg998
S'12:00:00PM'
p1010
sasS'contacts'
p1011
(lp1012
(dp1013
S'name'
p1014
S'arica'
p1015
sa(lp1016
(dp1017
S'name'
p1018
S'we'
p1019
saasS'location'
p1020
(lp1021
S"pdc's 683 sotomayor street"
p1022
assS'TST3-MUC4-0062'
p1023
(dp1024
S'theatre'
p1025
(lp1026
S'national university'
p1027
asS'title'
p1028
(lp1029
S'[news conference unidentified reporters] [text] [cristiani] [continued] salvadoran government'
p1030
a(lp1031
S'finish everything'
p1032
aasS'dateRange'
p1033
(lp1034
(dp1035
S'start'
p1036
S'2013-11-10'
p1037
sS'end'
p1038
S'2013-11-10'
p1039
sasS'timeRange'
p1040
(lp1041
(dp1042
S'start'
p1043
S'03:11:44AM'
p1044
sS'end'
p1045
S'03:11:44AM'
p1046
sasS'contacts'
p1047
(lp1048
(dp1049
S'name'
p1050
S'salvador'
p1051
sa(dp1052
g1050
S'alfredo'
p1053
sasS'location'
p1054
(lp1055
S'way'
p1056
asS'time'
p1057
(lp1058
S'tonight'
p1059
asS'searchTerm'
p1060
(lp1061
S'take'
p1062
asS'event'
p1063
(lp1064
S'soccer national university'
p1065
assS'TST4-MUC4-0026'
p1066
(dp1067
S'title'
p1068
(lp1069
S'road under construction'
p1070
asS'dateRange'
p1071
(lp1072
(dp1073
S'start'
p1074
S'2013-11-10'
p1075
sS'end'
p1076
S'2013-11-10'
p1077
sa(lp1078
(dp1079
S'start'
p1080
S'2014-10-02'
p1081
sS'end'
p1082
S'2014-10-03'
p1083
saasS'timeRange'
p1084
(lp1085
(dp1086
g1080
S'11:45:00PM'
p1087
sg1082
S'11:45:00PM'
p1088
sasS'contacts'
p1089
(lp1090
(dp1091
S'name'
p1092
S'pauguil'
p1093
sa(dp1094
g1092
S'cartagena del chiara'
p1095
sasS'location'
p1096
(lp1097
S'bogota 2 colombia'
p1098
asS'searchTerm'
p1099
(lp1100
S'country'
p1101
assS'TST3-MUC4-0060'
p1102
(dp1103
sS'TST3-MUC4-0067'
p1104
(dp1105
sS'TST3-MUC4-0066'
p1106
(dp1107
sS'TST3-MUC4-0065'
p1108
(dp1109
sS'TST3-MUC4-0064'
p1110
(dp1111
sS'TST4-MUC4-0055'
p1112
(dp1113
S'dateRange'
p1114
(lp1115
(dp1116
S'start'
p1117
S'2013-11-10'
p1118
sS'end'
p1119
S'2013-11-10'
p1120
sasS'location'
p1121
(lp1122
S'andres avelino caceres park where president alan garcia'
p1123
asS'title'
p1124
(lp1125
S'participate'
p1126
assS'TST4-MUC4-0054'
p1127
(dp1128
S'dateRange'
p1129
(lp1130
(dp1131
S'start'
p1132
S'2013-11-10'
p1133
sS'end'
p1134
S'2013-11-10'
p1135
sasS'title'
p1136
(lp1137
S'(inravision television cadena 1)'
p1138
asS'location'
p1139
(lp1140
S'morelia caqueta department'
p1141
asS'contacts'
p1142
(lp1143
(dp1144
S'name'
p1145
S'army troops'
p1146
sassS'TST3-MUC4-0032'
p1147
(dp1148
S'searchTerm'
p1149
(lp1150
S'israeli embassy israeli terrorists drug-trafficking mafias'
p1151
a(lp1152
S'reports disclosing the presence of these terrorists in colombia appeared several months ago when television clips showed a man giving instructions in hebrew to a right-wing paramilitary squad'
p1153
aa(lp1154
S'similar clips were broadcast by the u'
p1155
aa(lp1156
S'information'
p1157
aa(lp1158
S"terrorists' actions israel's policies"
p1159
aasS'dateRange'
p1160
(lp1161
(dp1162
S'start'
p1163
S'2013-11-10'
p1164
sS'end'
p1165
S'2013-11-10'
p1166
sa(lp1167
(dp1168
S'start'
p1169
S'2014-08-22'
p1170
sS'end'
p1171
S'2014-08-23'
p1172
saa(lp1173
(dp1174
S'start'
p1175
S'2013-11-03'
p1176
sS'end'
p1177
S'2013-11-10'
p1178
saasS'title'
p1179
(lp1180
S'israeli citizen'
p1181
a(lp1182
S'according to preliminary reports revealed suspect israeli mercenary paid most powerful drug-trafficking mafia'
p1183
aa(lp1184
S'according to das director general miguel maza marquez drug-trafficking organizations several schools for gunmen'
p1185
aasS'location'
p1186
(lp1187
S'bogota 23 bogota colombia training right-wing paramilitary groups'
p1188
a(lp1189
S"medellin cartel world's"
p1190
aa(lp1191
S'jerusalem matter'
p1192
aa(lp1193
S'colombia'
p1194
aa(lp1195
S'medellin cartel'
p1196
aasS'contacts'
p1197
(lp1198
(dp1199
S'name'
p1200
S'luis'
p1201
sa(dp1202
g1200
S'carlos'
p1203
sa(lp1204
(dp1205
S'name'
p1206
S'judge'
p1207
saa(lp1208
(dp1209
S'name'
p1210
S'israeli british'
p1211
saassS'TST1-MUC3-0002'
p1212
(dp1213
S'dateRange'
p1214
(lp1215
(dp1216
S'start'
p1217
S'2013-11-10'
p1218
sS'end'
p1219
S'2013-11-11'
p1220
sa(lp1221
(dp1222
S'start'
p1223
S'2013-11-10'
p1224
sS'end'
p1225
S'2013-11-11'
p1226
saasS'timeRange'
p1227
(lp1228
(dp1229
g1217
S'11:30:00PM'
p1230
sg1219
S'11:30:00PM'
p1231
sa(lp1232
(dp1233
g1223
S'06:00:00AM'
p1234
sg1225
S'12:00:00PM'
p1235
saasS'title'
p1236
(lp1237
S'according to preliminary reports soldier guarding substation was'
p1238
assS'TST1-MUC3-0003'
p1239
(dp1240
S'searchTerm'
p1241
(lp1242
S'judge hector larios'
p1243
aS'his duties'
p1244
a(lp1245
S"larios' irregular ruling one can conclude"
p1246
aS'behavior'
p1247
aa(lp1248
S'ruling ordering'
p1249
aS'release'
p1250
aS'orlando llovera ballet lieutenant isidro lopez major alfredo jimenez'
p1251
aS'kidnapping ring'
p1252
aa(lp1253
S'case'
p1254
aS'judge said'
p1255
aasS'dateRange'
p1256
(lp1257
(dp1258
S'start'
p1259
S'2013-11-10'
p1260
sS'end'
p1261
S'2013-11-10'
p1262
sa(lp1263
(dp1264
S'start'
p1265
S'1986-04-01'
p1266
sS'end'
p1267
S'1986-05-01'
p1268
saasS'title'
p1269
(lp1270
S'license to practice law'
p1271
a(lp1272
S'kidnapping ring'
p1273
aasS'location'
p1274
(lp1275
S"san salvador 4 apr 89 (acan-efe) -- [text] el salvador's supreme court of justice"
p1276
a(lp1277
S"supreme court's trust"
p1278
aasS'contacts'
p1279
(lp1280
(dp1281
S'name'
p1282
S'judge ricardo'
p1283
sa(lp1284
(dp1285
S'name'
p1286
S'francisco'
p1287
sa(dp1288
g1286
S'jose'
p1289
saa(lp1290
(dp1291
S'name'
p1292
S'money'
p1293
saassS'TST3-MUC4-0033'
p1294
(dp1295
sS'TST1-MUC3-0006'
p1296
(dp1297
S'title'
p1298
(lp1299
S'report'
p1300
a(lp1301
S'tasks'
p1302
aa(lp1303
S'antioquia governor antonio roldan was license plates me-7847'
p1304
aa(lp1305
S'dismiss the escort because he did'
p1306
aasS'dateRange'
p1307
(lp1308
(dp1309
S'start'
p1310
S'2013-11-10'
p1311
sS'end'
p1312
S'2013-11-11'
p1313
sa(lp1314
(dp1315
S'start'
p1316
S'2013-11-10'
p1317
sS'end'
p1318
S'2013-11-11'
p1319
saasS'timeRange'
p1320
(lp1321
(dp1322
g1316
S'06:00:00AM'
p1323
sg1318
S'12:00:00PM'
p1324
sasS'contacts'
p1325
(lp1326
(dp1327
S'name'
p1328
S'gladys'
p1329
sa(lp1330
(dp1331
S'name'
p1332
S'franklin'
p1333
saa(lp1334
(dp1335
S'name'
p1336
S'drew'
p1337
sa(dp1338
g1336
S'america'
p1339
saasS'location'
p1340
(lp1341
S'bogota medellin'
p1342
a(lp1343
S'antioquia police headquarters'
p1344
aa(lp1345
S'col quintero white nissan patrol vehicle stop front carrera 80'
p1346
aasS'event'
p1347
(lp1348
S'murder  antioquia'
p1349
assS'TST1-MUC3-0007'
p1350
(dp1351
S'searchTerm'
p1352
(lp1353
S'violence prevailing'
p1354
aS'problem'
p1355
aS'toll'
p1356
asS'dateRange'
p1357
(lp1358
(dp1359
S'start'
p1360
S'2014-08-25'
p1361
sS'end'
p1362
S'2014-08-26'
p1363
sasS'location'
p1364
(lp1365
S'several victims'
p1366
asS'title'
p1367
(lp1368
S'economic program'
p1369
assS'TST1-MUC3-0004'
p1370
(dp1371
S'contacts'
p1372
(lp1373
(dp1374
S'name'
p1375
S'man'
p1376
sasS'dateRange'
p1377
(lp1378
(dp1379
S'start'
p1380
S'0089-07-30'
p1381
sS'end'
p1382
S'0089-08-30'
p1383
sasS'timeRange'
p1384
(lp1385
(dp1386
S'start'
p1387
S'08:30:00PM'
p1388
sS'end'
p1389
S'08:30:00PM'
p1390
sasS'searchTerm'
p1391
(lp1392
S'so'
p1393
aS'boilers'
p1394
asS'location'
p1395
(lp1396
S'bogota 30 antioquia liqueur plant'
p1397
a(lp1398
S'plant'
p1399
aa(lp1400
S'incident'
p1401
aasS'numPeople'
p1402
(lp1403
S'4'
a(lp1404
S'100'
p1405
aassS'TST1-MUC3-0005'
p1406
(dp1407
S'departing'
p1408
(lp1409
S'captured'
p1410
asS'dateRange'
p1411
(lp1412
(dp1413
S'start'
p1414
S'2013-11-10'
p1415
sS'end'
p1416
S'2013-11-10'
p1417
sasS'title'
p1418
(lp1419
S'(radio sandino) -- [news conference sandinist soldiers'
p1420
asS'event'
p1421
(lp1422
S'fishing resources merchandise contraband'
p1423
asS'contacts'
p1424
(lp1425
(dp1426
S'name'
p1427
S'ricardo'
p1428
sassS'TST4-MUC4-0051'
p1429
(dp1430
S'searchTerm'
p1431
(lp1432
S'soto'
p1433
asS'dateRange'
p1434
(lp1435
(dp1436
S'start'
p1437
S'2013-11-10'
p1438
sS'end'
p1439
S'2013-11-10'
p1440
sasS'timeRange'
p1441
(lp1442
(dp1443
g1437
S'06:00:00AM'
p1444
sg1439
S'12:00:00PM'
p1445
sasS'location'
p1446
(lp1447
S'approximately 0400 individuals stabbed pisco deputy prefect carlos soto sedice'
p1448
a(lp1449
S'pisco'
p1450
aasS'title'
p1451
(lp1452
S'(lima domestic service) -- [report] [station correspondent] [excerpt] dear listeners'
p1453
assS'TST1-MUC3-0008'
p1454
(dp1455
S'contacts'
p1456
(lp1457
(dp1458
S'name'
p1459
S'yair klein'
p1460
sa(lp1461
(dp1462
S'name'
p1463
S'one david'
p1464
sa(dp1465
S'organization'
p1466
S'one david'
p1467
saasS'dateRange'
p1468
(lp1469
(dp1470
S'start'
p1471
S'2014-09-13'
p1472
sS'end'
p1473
S'2014-09-14'
p1474
sa(lp1475
(dp1476
S'start'
p1477
S'2013-11-10'
p1478
sS'end'
p1479
S'2013-11-10'
p1480
saasS'timeRange'
p1481
(lp1482
(dp1483
g1471
S'03:14:23AM'
p1484
sg1473
S'03:14:23AM'
p1485
sasS'location'
p1486
(lp1487
S'our country'
p1488
asS'searchTerm'
p1489
(lp1490
S'dark blue shirt'
p1491
a(lp1492
S'thin person'
p1493
aS'light blue shirt'
p1494
aS'translator'
p1495
aa(lp1496
S'video taped by the british men who prepare the operation against escobar'
p1497
aasS'title'
p1498
(lp1499
S'revealed unknown links israeli and british mercenaries'
p1500
asS'message'
p1501
(lp1502
S'names sadaka amancia yair and teddy'
p1503
assS'TST1-MUC3-0009'
p1504
(dp1505
S'title'
p1506
(lp1507
S'(domestic service) -- [communique] [el salvador'
p1508
asS'dateRange'
p1509
(lp1510
(dp1511
S'start'
p1512
S'2013-11-10'
p1513
sS'end'
p1514
S'2013-11-10'
p1515
sasS'timeRange'
p1516
(lp1517
(dp1518
g1512
S'03:14:39AM'
p1519
sg1514
S'03:14:39AM'
p1520
sasS'contacts'
p1521
(lp1522
(dp1523
S'name'
p1524
S'salvador'
p1525
sasS'location'
p1526
(lp1527
S'general fmln [farabundo marti national liberation front] terrorists'
p1528
asS'searchTerm'
p1529
(lp1530
S'armed forces also request that the people follow instructions at the military checkpoints through which they must pass in order to prevent any unnecessary incidents'
p1531
assS'TST4-MUC4-0050'
p1532
(dp1533
S'ORIGINALLOCATION'
p1534
(lp1535
S'chile broad mass movement'
p1536
asS'dateRange'
p1537
(lp1538
(dp1539
S'start'
p1540
S'2013-11-10'
p1541
sS'end'
p1542
S'2013-11-10'
p1543
sasS'timeRange'
p1544
(lp1545
(dp1546
S'start'
p1547
S'03:14:50AM'
p1548
sS'end'
p1549
S'03:14:50AM'
p1550
sasS'location'
p1551
(lp1552
S'berlin chile referendum'
p1553
asS'title'
p1554
(lp1555
S'news conference [4 november] volodia teitelboim member report'
p1556
a(lp1557
S'communist party decisive step'
p1558
aa(lp1559
S'communist party presidential elections promised military junta common presidential candidate'
p1560
aassS'TST4-MUC4-0053'
p1561
(dp1562
S'searchTerm'
p1563
(lp1564
S'embryonic phase government-guerrillas talks'
p1565
aS'guerrillas'
p1566
a(lp1567
S'former president'
p1568
aS'popular democracy talks'
p1569
aa(lp1570
S'current rulers'
p1571
aasS'dateRange'
p1572
(lp1573
(dp1574
S'start'
p1575
S'2013-11-10'
p1576
sS'end'
p1577
S'2013-11-10'
p1578
sa(lp1579
(dp1580
S'start'
p1581
S'2013-11-10'
p1582
sS'end'
p1583
S'2013-11-11'
p1584
saa(lp1585
(dp1586
S'start'
p1587
S'2013-11-11'
p1588
sS'end'
p1589
S'2013-11-12'
p1590
saa(lp1591
(dp1592
S'start'
p1593
S'2013-11-10'
p1594
sS'end'
p1595
S'2013-11-11'
p1596
saasS'title'
p1597
(lp1598
S'(voz de los andes) -- [text] government minister andres vallejo yesterday'
p1599
a(lp1600
S'according to meetings delegate of president borja for further talks'
p1601
aa(lp1602
S'social christian party'
p1603
aa(lp1604
S'discuss the topic'
p1605
aa(lp1606
S'previous administration refused to comment'
p1607
aasS'location'
p1608
(lp1609
S'julio cesar trujillo'
p1610
a(lp1611
S'quito [as heard] commanders guayaquil leaders juan edgar prias prison and patricio baquerizo law'
p1612
aasS'contacts'
p1613
(lp1614
(dp1615
S'name'
p1616
S'javier'
p1617
sa(lp1618
(dp1619
S'name'
p1620
S'lucero said'
p1621
saa(lp1622
(dp1623
S'name'
p1624
S'marco'
p1625
saa(lp1626
(dp1627
S'name'
p1628
S'rodrigo'
p1629
sa(dp1630
g1628
S'javier'
p1631
saassS'TST3-MUC4-0018'
p1632
(dp1633
S'destination'
p1634
(lp1635
S'national police station'
p1636
a(lp1637
S'machinegunned several transformers'
p1638
aa(lp1639
S'cohache organization hondua church'
p1640
aa(lp1641
S'national university firing area'
p1642
aasS'title'
p1643
(lp1644
S'according to preliminary reports'
p1645
a(lp1646
S'transportation stoppage'
p1647
aasS'dateRange'
p1648
(lp1649
(dp1650
S'start'
p1651
S'2013-11-10'
p1652
sS'end'
p1653
S'2013-11-11'
p1654
sa(lp1655
(dp1656
S'start'
p1657
S'2013-11-10'
p1658
sS'end'
p1659
S'2013-11-10'
p1660
saa(lp1661
(dp1662
S'start'
p1663
S'2013-11-10'
p1664
sS'end'
p1665
S'2013-11-11'
p1666
saa(lp1667
(dp1668
S'start'
p1669
S'2014-05-31'
p1670
sS'end'
p1671
S'2014-06-01'
p1672
saasS'timeRange'
p1673
(lp1674
(dp1675
S'start'
p1676
S'06:05:00PM'
p1677
sS'end'
p1678
S'06:05:00PM'
p1679
sa(lp1680
(dp1681
S'start'
p1682
S'04:00:00PM'
p1683
sS'end'
p1684
S'04:00:00PM'
p1685
saasS'searchTerm'
p1686
(lp1687
S'garrison'
p1688
a(lp1689
S'fmln'
p1690
aasS'location'
p1691
(lp1692
S"san salvador san salvador's"
p1693
a(lp1694
S'least six fmln guerrillas attack'
p1695
aa(lp1696
S'san salvador'
p1697
aasS'departing'
p1698
(lp1699
S'29th street'
p1700
a(lp1701
S'there some [word'
p1702
aasS'event'
p1703
(lp1704
S'national police station'
p1705
assS'TST3-MUC4-0019'
p1706
(dp1707
S'dateRange'
p1708
(lp1709
(dp1710
S'start'
p1711
S'2013-11-10'
p1712
sS'end'
p1713
S'2013-11-10'
p1714
sasS'title'
p1715
(lp1716
S'(inravision television cadena 1) -- [text] oil'
p1717
assS'TST3-MUC4-0016'
p1718
(dp1719
S'title'
p1720
(lp1721
S'warmongering policy of former somozist colonel enrique interior ministry'
p1722
a(lp1723
S'honduran army carried out harassment attacks on eps border posts'
p1724
aa(lp1725
S'teotecacinte nueva segovia department with large-caliber machineguns'
p1726
aasS'dateRange'
p1727
(lp1728
(dp1729
S'start'
p1730
S'2013-11-10'
p1731
sS'end'
p1732
S'2013-11-10'
p1733
sa(lp1734
(dp1735
S'start'
p1736
S'2014-03-01'
p1737
sS'end'
p1738
S'2014-04-01'
p1739
saa(lp1740
(dp1741
S'start'
p1742
S'2014-03-21'
p1743
sS'end'
p1744
S'2014-03-22'
p1745
saasS'timeRange'
p1746
(lp1747
(dp1748
g1730
S'09:00:00AM'
p1749
sg1732
S'09:00:00AM'
p1750
sa(lp1751
(dp1752
g1736
S'09:00:00PM'
p1753
sg1738
S'09:00:00PM'
p1754
saa(lp1755
(dp1756
g1742
S'06:00:00AM'
p1757
sg1744
S'12:00:00PM'
p1758
saasS'originalTitle'
p1759
(lp1760
S'report'
p1761
asS'location'
p1762
(lp1763
S'el'
p1764
asS'time'
p1765
(lp1766
S'2014-02-10'
p1767
assS'TST3-MUC4-0017'
p1768
(dp1769
S'title'
p1770
(lp1771
S'(radio cadena yskl) -- [text] farabundo marti national liberation front [fmln] urban commandos reports'
p1772
a(lp1773
S'reports pointed to urban commandos report'
p1774
aasS'dateRange'
p1775
(lp1776
(dp1777
S'start'
p1778
S'2013-11-10'
p1779
sS'end'
p1780
S'2013-11-10'
p1781
sa(lp1782
(dp1783
S'start'
p1784
S'2013-11-10'
p1785
sS'end'
p1786
S'2013-11-11'
p1787
saasS'timeRange'
p1788
(lp1789
(dp1790
g1784
S'05:30:00AM'
p1791
sg1786
S'05:30:00AM'
p1792
sasS'contacts'
p1793
(lp1794
(dp1795
S'name'
p1796
S'salvador'
p1797
sa(lp1798
(dp1799
S'name'
p1800
S'modesto ramirez'
p1801
saa(lp1802
(dp1803
S'name'
p1804
S'alfredo cristiani'
p1805
saasS'genre'
p1806
(lp1807
S'country'
p1808
asS'location'
p1809
(lp1810
S"vice president-elect francisco merino's home"
p1811
a(lp1812
S"main entrance merino's home machiliguas neighborhood"
p1813
aasS'searchTerm'
p1814
(lp1815
S'fmln claims responsibility'
p1816
assS'TST3-MUC4-0014'
p1817
(dp1818
S'contacts'
p1819
(lp1820
(dp1821
S'organization'
p1822
S'ayacucho department'
p1823
sa(lp1824
(dp1825
S'organization'
p1826
S'an ayacucho'
p1827
saasS'dateRange'
p1828
(lp1829
(dp1830
S'start'
p1831
S'2013-11-10'
p1832
sS'end'
p1833
S'2013-11-10'
p1834
sa(lp1835
(dp1836
S'start'
p1837
S'2013-11-10'
p1838
sS'end'
p1839
S'2013-11-11'
p1840
saa(lp1841
(dp1842
S'start'
p1843
S'2013-11-10'
p1844
sS'end'
p1845
S'2013-11-11'
p1846
saa(lp1847
(dp1848
S'start'
p1849
S'2013-11-10'
p1850
sS'end'
p1851
S'2013-11-10'
p1852
saasS'title'
p1853
(lp1854
S'terrorist attack'
p1855
a(lp1856
S'shining path'
p1857
aasS'searchTerm'
p1858
(lp1859
S'bomb exploded'
p1860
a(lp1861
S'police sources'
p1862
aS'shining path caused serious damages'
p1863
aa(lp1864
S'shining path document'
p1865
aS'alan garcia administration'
p1866
aasS'location'
p1867
(lp1868
S'ayacucho 19 san juan bautista municipality'
p1869
a(lp1870
S'huamaguilla'
p1871
aasS'numPeople'
p1872
(lp1873
S'2'
assS'TST3-MUC4-0015'
p1874
(dp1875
S'timeRange'
p1876
(lp1877
(dp1878
S'start'
p1879
S'06:00:00PM'
p1880
sS'end'
p1881
S'06:00:00AM'
p1882
sasS'dateRange'
p1883
(lp1884
(dp1885
S'start'
p1886
S'2013-11-10'
p1887
sS'end'
p1888
S'2013-11-10'
p1889
sa(lp1890
(dp1891
S'start'
p1892
S'2013-11-10'
p1893
sS'end'
p1894
S'2013-11-11'
p1895
saasS'title'
p1896
(lp1897
S'(acan-efe) -- [text] salvadoran reporter mauricio pineda local canal doce television station'
p1898
a(lp1899
S"according to canal doce sources pineda and newscast were traveling to la union department to cover today's elections"
p1900
aasS'location'
p1901
(lp1902
S'morazan department'
p1903
a(lp1904
S'less'
p1905
aasS'contacts'
p1906
(lp1907
(dp1908
S'name'
p1909
S'salvador'
p1910
sa(lp1911
(dp1912
S'name'
p1913
S'roberto'
p1914
saassS'TST3-MUC4-0012'
p1915
(dp1916
S'contacts'
p1917
(lp1918
(dp1919
S'name'
p1920
S'and said'
p1921
sasS'title'
p1922
(lp1923
S'defense minister private meeting'
p1924
a(lp1925
S'death squad'
p1926
aa(lp1927
S"meeting violated to favor minority groups' positions"
p1928
aa(lp1929
S"forces' goals particularly concerning human rights"
p1930
aa(lp1931
S'meeting political parties future meetings'
p1932
aasS'originalTitle'
p1933
(lp1934
S'constitution'
p1935
asS'location'
p1936
(lp1937
S'ponce'
p1938
a(lp1939
S"president's"
p1940
aa(lp1941
S"fmln's"
p1942
aasS'searchTerm'
p1943
(lp1944
S'political parties'
p1945
a(lp1946
S'advantages'
p1947
aa(lp1948
S'armed forces'
p1949
aasS'event'
p1950
(lp1951
S'legislative assembly met staff colonel rene emilio ponce'
p1952
assS'TST3-MUC4-0013'
p1953
(dp1954
S'timeRange'
p1955
(lp1956
(dp1957
S'start'
p1958
S'01:00:00PM'
p1959
sS'end'
p1960
S'01:00:00PM'
p1961
sasS'title'
p1962
(lp1963
S'(radio venceremos) -- [communique] [farabundo marti national liberation front (fmln) general command] fmln reports'
p1964
a(lp1965
S'san jose meeting government had'
p1966
aa(lp1967
S'meeting udn [nationalist democratic union] university fecmasan'
p1968
aa(lp1969
S'suspend our participation caracas meeting'
p1970
aa(lp1971
S'[signed] fmln general command commanders salvador sanchez ceren francisco jovel shafik jorge handal eduardo sancho'
p1972
aasS'dateRange'
p1973
(lp1974
(dp1975
g1958
S'2013-11-10'
p1976
sg1960
S'2013-11-10'
p1977
sa(lp1978
(dp1979
S'start'
p1980
S'2013-11-10'
p1981
sS'end'
p1982
S'2013-11-10'
p1983
saasS'destination'
p1984
(lp1985
S'nationalist republican alliance [arena'
p1986
a(lp1987
S'up arms and exercise their legitimate defense'
p1988
aasS'contacts'
p1989
(lp1990
(dp1991
S'name'
p1992
S'oscar'
p1993
sa(dp1994
g1992
S'relatives]'
p1995
sa(dp1996
g1992
S'fenastras'
p1997
sa(dp1998
g1992
S'mothers'
p1999
sa(lp2000
(dp2001
S'name'
p2002
S'them guarantees'
p2003
saa(lp2004
(dp2005
S'name'
p2006
S'salvador'
p2007
saasS'location'
p2008
(lp2009
S'cold blood'
p2010
a(lp2011
S"christian people's"
p2012
aasS'searchTerm'
p2013
(lp2014
S'massacre'
p2015
aS'salvadoran workers national union federation [fenastras]'
p2016
a(lp2017
S'site and the moment when the fenastras leaders were meeting had been selected'
p2018
aa(lp2019
S"armed people's"
p2020
aS'fmln'
p2021
aassS'TST3-MUC4-0010'
p2022
(dp2023
S'contacts'
p2024
(lp2025
(dp2026
S'name'
p2027
S'alfredo cristiani'
p2028
sasS'dateRange'
p2029
(lp2030
(dp2031
S'start'
p2032
S'2013-11-10'
p2033
sS'end'
p2034
S'2013-11-10'
p2035
sa(lp2036
(dp2037
S'start'
p2038
S'2014-10-30'
p2039
sS'end'
p2040
S'2014-10-31'
p2041
saasS'timeRange'
p2042
(lp2043
(dp2044
g2038
S'01:00:00PM'
p2045
sg2040
S'01:00:00PM'
p2046
sasS'location'
p2047
(lp2048
S'san salvador el salvador el salvador'
p2049
a(lp2050
S'el salvador'
p2051
aasS'searchTerm'
p2052
(lp2053
S'government'
p2054
asS'event'
p2055
(lp2056
S'national el mothers  political prisoners salvadoran workers national union federation'
p2057
a(lp2058
S'el it states events conflict  civilized means'
p2059
aassS'TST3-MUC4-0011'
p2060
(dp2061
S'searchTerm'
p2062
(lp2063
S'ecopetrol [colombian petroleum enterprise]'
p2064
aS'powerful [name indistinct]'
p2065
aS'manuel gustavo chacon sovereignty operation'
p2066
asS'dateRange'
p2067
(lp2068
(dp2069
S'start'
p2070
S'2013-11-10'
p2071
sS'end'
p2072
S'2013-11-10'
p2073
sasS'location'
p2074
(lp2075
S'spanish priest manuel perez'
p2076
a(lp2077
S'barrancabermeja february'
p2078
aasS'title'
p2079
(lp2080
S"document questioning colombia's oil policy honorary consuls newsmen and political leaders"
p2081
assS'TST2-MUC4-0084'
p2082
(dp2083
S'departing'
p2084
(lp2085
S'end of 1989 latin america'
p2086
a(lp2087
S'panama'
p2088
aasS'dateRange'
p2089
(lp2090
(dp2091
S'start'
p2092
S'2013-11-10'
p2093
sS'end'
p2094
S'2013-11-10'
p2095
sasS'destination'
p2096
(lp2097
S'united states conducted two major military operations world'
p2098
a(lp2099
S'u'
aa(lp2100
S'central america united states'
p2101
aasS'contacts'
p2102
(lp2103
(dp2104
S'name'
p2105
S'virginia'
p2106
sasS'location'
p2107
(lp2108
S'panama united states'
p2109
a(lp2110
S'gates latin american nations'
p2111
aa(lp2112
S'united latin america'
p2113
aasS'searchTerm'
p2114
(lp2115
S'noriega government'
p2116
a(lp2117
S'weak countries'
p2118
aS'tension'
p2119
aS'latin american'
p2120
aS'force'
p2121
aasS'title'
p2122
(lp2123
S'caribbean to combat drug smuggling'
p2124
a(lp2125
S'bush administration drug-fighting fleet to return to drill'
p2126
aasS'event'
p2127
(lp2128
S'u'
assS'TST2-MUC4-0085'
p2129
(dp2130
sS'TST2-MUC4-0086'
p2131
(dp2132
sS'TST2-MUC4-0087'
p2133
(dp2134
sS'TST2-MUC4-0080'
p2135
(dp2136
sS'TST2-MUC4-0081'
p2137
(dp2138
sS'TST2-MUC4-0082'
p2139
(dp2140
sS'TST2-MUC4-0083'
p2141
(dp2142
sS'TST2-MUC4-0088'
p2143
(dp2144
sS'TST2-MUC4-0089'
p2145
(dp2146
sS'TST4-MUC4-0002'
p2147
(dp2148
sS'TST4-MUC4-0003'
p2149
(dp2150
sS'TST4-MUC4-0006'
p2151
(dp2152
sS'TST4-MUC4-0007'
p2153
(dp2154
sS'TST4-MUC4-0004'
p2155
(dp2156
sS'TST4-MUC4-0005'
p2157
(dp2158
sS'TST4-MUC4-0039'
p2159
(dp2160
sS'TST4-MUC4-0038'
p2161
(dp2162
sS'TST2-MUC4-0019'
p2163
(dp2164
sS'TST2-MUC4-0018'
p2165
(dp2166
sS'TST2-MUC4-0013'
p2167
(dp2168
sS'TST2-MUC4-0012'
p2169
(dp2170
sS'TST2-MUC4-0011'
p2171
(dp2172
sS'TST2-MUC4-0010'
p2173
(dp2174
sS'TST2-MUC4-0017'
p2175
(dp2176
sS'TST2-MUC4-0016'
p2177
(dp2178
sS'TST2-MUC4-0015'
p2179
(dp2180
sS'TST2-MUC4-0014'
p2181
(dp2182
sS'TST4-MUC4-0035'
p2183
(dp2184
sS'TST4-MUC4-0034'
p2185
(dp2186
sS'TST4-MUC4-0100'
p2187
(dp2188
sS'TST2-MUC4-0068'
p2189
(dp2190
sS'TST2-MUC4-0069'
p2191
(dp2192
sS'TST2-MUC4-0066'
p2193
(dp2194
sS'TST2-MUC4-0067'
p2195
(dp2196
sS'TST2-MUC4-0064'
p2197
(dp2198
sS'TST2-MUC4-0065'
p2199
(dp2200
sS'TST2-MUC4-0062'
p2201
(dp2202
sS'TST2-MUC4-0063'
p2203
(dp2204
sS'TST2-MUC4-0060'
p2205
(dp2206
sS'TST2-MUC4-0061'
p2207
(dp2208
sS'TST4-MUC4-0077'
p2209
(dp2210
sS'TST4-MUC4-0076'
p2211
(dp2212
sS'TST4-MUC4-0075'
p2213
(dp2214
sS'TST4-MUC4-0074'
p2215
(dp2216
sS'TST4-MUC4-0073'
p2217
(dp2218
sS'TST4-MUC4-0072'
p2219
(dp2220
sS'TST4-MUC4-0071'
p2221
(dp2222
sS'TST4-MUC4-0070'
p2223
(dp2224
sS'TST3-MUC4-0058'
p2225
(dp2226
sS'TST3-MUC4-0059'
p2227
(dp2228
sS'TST4-MUC4-0079'
p2229
(dp2230
sS'TST4-MUC4-0078'
p2231
(dp2232
sS'TST4-MUC4-0047'
p2233
(dp2234
sS'TST1-MUC3-0059'
p2235
(dp2236
sS'TST1-MUC3-0058'
p2237
(dp2238
sS'TST1-MUC3-0055'
p2239
(dp2240
sS'TST1-MUC3-0054'
p2241
(dp2242
sS'TST1-MUC3-0057'
p2243
(dp2244
sS'TST1-MUC3-0056'
p2245
(dp2246
sS'TST1-MUC3-0051'
p2247
(dp2248
sS'TST1-MUC3-0050'
p2249
(dp2250
sS'TST1-MUC3-0053'
p2251
(dp2252
sS'TST1-MUC3-0052'
p2253
(dp2254
sS'TST2-MUC4-0022'
p2255
(dp2256
sS'TST2-MUC4-0023'
p2257
(dp2258
sS'TST2-MUC4-0020'
p2259
(dp2260
sS'TST2-MUC4-0021'
p2261
(dp2262
sS'TST2-MUC4-0026'
p2263
(dp2264
sS'TST2-MUC4-0027'
p2265
(dp2266
sS'TST2-MUC4-0024'
p2267
(dp2268
sS'TST2-MUC4-0025'
p2269
(dp2270
sS'TST2-MUC4-0028'
p2271
(dp2272
sS'TST2-MUC4-0029'
p2273
(dp2274
sS'TST1-MUC3-0088'
p2275
(dp2276
sS'TST1-MUC3-0089'
p2277
(dp2278
sS'TST1-MUC3-0082'
p2279
(dp2280
sS'TST1-MUC3-0083'
p2281
(dp2282
sS'TST1-MUC3-0080'
p2283
(dp2284
sS'TST1-MUC3-0081'
p2285
(dp2286
sS'TST1-MUC3-0086'
p2287
(dp2288
sS'TST1-MUC3-0087'
p2289
(dp2290
sS'TST1-MUC3-0084'
p2291
(dp2292
sS'TST1-MUC3-0085'
p2293
(dp2294
sS'TST3-MUC4-0096'
p2295
(dp2296
sS'TST3-MUC4-0097'
p2297
(dp2298
sS'TST3-MUC4-0094'
p2299
(dp2300
sS'TST3-MUC4-0095'
p2301
(dp2302
sS'TST3-MUC4-0092'
p2303
(dp2304
sS'TST3-MUC4-0093'
p2305
(dp2306
sS'TST3-MUC4-0090'
p2307
(dp2308
sS'TST3-MUC4-0091'
p2309
(dp2310
sS'TST4-MUC4-0033'
p2311
(dp2312
sS'TST4-MUC4-0032'
p2313
(dp2314
sS'TST4-MUC4-0031'
p2315
(dp2316
sS'TST4-MUC4-0030'
p2317
(dp2318
sS'TST4-MUC4-0037'
p2319
(dp2320
sS'TST4-MUC4-0036'
p2321
(dp2322
sS'TST3-MUC4-0098'
p2323
(dp2324
sS'TST3-MUC4-0099'
p2325
(dp2326
sS'TST1-MUC3-0011'
p2327
(dp2328
sS'TST1-MUC3-0010'
p2329
(dp2330
sS'TST1-MUC3-0013'
p2331
(dp2332
sS'TST1-MUC3-0012'
p2333
(dp2334
sS'TST1-MUC3-0015'
p2335
(dp2336
sS'TST1-MUC3-0014'
p2337
(dp2338
sS'TST1-MUC3-0017'
p2339
(dp2340
sS'TST1-MUC3-0016'
p2341
(dp2342
sS'TST1-MUC3-0019'
p2343
(dp2344
sS'TST1-MUC3-0018'
p2345
(dp2346
sS'TST3-MUC4-0009'
p2347
(dp2348
sS'TST3-MUC4-0008'
p2349
(dp2350
sS'TST4-MUC4-0048'
p2351
(dp2352
sS'TST4-MUC4-0049'
p2353
(dp2354
sS'TST4-MUC4-0046'
p2355
(dp2356
sS'TST3-MUC4-0004'
p2357
(dp2358
S'title'
p2359
(lp2360
S'dijin report inner structure'
p2361
asS'dateRange'
p2362
(lp2363
(dp2364
S'start'
p2365
S'2014-03-10'
p2366
sS'end'
p2367
S'2014-04-10'
p2368
sasS'timeRange'
p2369
(lp2370
(dp2371
S'start'
p2372
S'07:00:00PM'
p2373
sS'end'
p2374
S'07:00:00PM'
p2375
sasS'appName'
p2376
(lp2377
S'authorities'
p2378
asS'contacts'
p2379
(lp2380
(dp2381
S'name'
p2382
S'jan'
p2383
sa(dp2384
S'organization'
p2385
S'city'
p2386
sa(lp2387
(dp2388
S'name'
p2389
S'camilo'
p2390
saasS'AMBIENCE'
p2391
(lp2392
S'"huge"'
p2393
asS'location'
p2394
(lp2395
S'asuba bogota'
p2396
a(lp2397
S'ranch'
p2398
aa(lp2399
S'1988 3 toyotas one bogota 3 revolvers 3 pistols 1 carbine ammunition radio communications equipment 2 false diplomatic licence plates and cash'
p2400
aasS'searchTerm'
p2401
(lp2402
S'authorities la maria farm'
p2403
aS'luxurious ranch'
p2404
a(lp2405
S'caches'
p2406
aa(lp2407
S'continues in other areas of the house'
p2408
aa(lp2409
S"workers' disposal"
p2410
aS'kitchen'
p2411
aa(lp2412
S'jacuzzi'
p2413
aS'swimming pool'
p2414
aa(lp2415
S'game'
p2416
aS'tennis'
p2417
aS'squash courts'
p2418
aa(lp2419
S'deposit jorge luis ochoa'
p2420
aasS'message'
p2421
(lp2422
S'noticiero de las siete newscast managed to shoot video footage of the raid on the la maria farm on the outskirts of bogota'
p2423
a(lp2424
S'main gate is not electrically wired and the decision to forcibly enter the house is made'
p2425
aassS'TST3-MUC4-0007'
p2426
(dp2427
sS'TST3-MUC4-0006'
p2428
(dp2429
sS'TST4-MUC4-0042'
p2430
(dp2431
sS'TST4-MUC4-0043'
p2432
(dp2433
sS'TST3-MUC4-0003'
p2434
(dp2435
sS'TST3-MUC4-0002'
p2436
(dp2437
sS'TST2-MUC4-0093'
p2438
(dp2439
sS'TST3-MUC4-0005'
p2440
(dp2441
sS'TST2-MUC4-0091'
p2442
(dp2443
sS'TST2-MUC4-0090'
p2444
(dp2445
sS'TST2-MUC4-0097'
p2446
(dp2447
sS'TST2-MUC4-0096'
p2448
(dp2449
sS'TST2-MUC4-0095'
p2450
(dp2451
sS'TST2-MUC4-0094'
p2452
(dp2453
sS'TST2-MUC4-0099'
p2454
(dp2455
sS'TST2-MUC4-0098'
p2456
(dp2457
sS'TST4-MUC4-0044'
p2458
(dp2459
sS'TST4-MUC4-0045'
p2460
(dp2461
sS'TST4-MUC4-0040'
p2462
(dp2463
sS'TST4-MUC4-0041'
p2464
(dp2465
sS'TST3-MUC4-0052'
p2466
(dp2467
sS'TST3-MUC4-0053'
p2468
(dp2469
sS'TST3-MUC4-0050'
p2470
(dp2471
sS'TST3-MUC4-0051'
p2472
(dp2473
sS'TST3-MUC4-0056'
p2474
(dp2475
sS'TST3-MUC4-0057'
p2476
(dp2477
sS'TST3-MUC4-0054'
p2478
(dp2479
sS'TST3-MUC4-0055'
p2480
(dp2481
sS'TST2-MUC4-0092'
p2482
(dp2483
sS'TST3-MUC4-0063'
p2484
(dp2485
sS'TST2-MUC4-0079'
p2486
(dp2487
sS'TST2-MUC4-0078'
p2488
(dp2489
sS'TST4-MUC4-0025'
p2490
(dp2491
sS'TST2-MUC4-0075'
p2492
(dp2493
sS'TST2-MUC4-0074'
p2494
(dp2495
sS'TST2-MUC4-0077'
p2496
(dp2497
sS'TST2-MUC4-0076'
p2498
(dp2499
sS'TST2-MUC4-0071'
p2500
(dp2501
sS'TST3-MUC4-0061'
p2502
(dp2503
sS'TST2-MUC4-0073'
p2504
(dp2505
sS'TST2-MUC4-0072'
p2506
(dp2507
sS'TST4-MUC4-0027'
p2508
(dp2509
S'destination'
p2510
(lp2511
S'mid-august 1987 leon tarapoto polay campos'
p2512
asS'title'
p2513
(lp2514
S'according to investigations so-called comrade lucho convinced comrade jose to join the mrta'
p2515
a(lp2516
S'surveillance for several months mrta was army'
p2517
aasS'dateRange'
p2518
(lp2519
(dp2520
S'start'
p2521
S'1986-07-01'
p2522
sS'end'
p2523
S'1986-08-01'
p2524
sasS'contacts'
p2525
(lp2526
(dp2527
S'alias'
p2528
S'MANAGER'
p2529
sa(lp2530
(dp2531
S'name'
p2532
S'jorge'
p2533
saa(lp2534
(dp2535
S'name'
p2536
S'leon'
p2537
saa(lp2538
(dp2539
S'name'
p2540
S'leon'
p2541
sa(dp2542
S'organization'
p2543
S'court on terrorist charges'
p2544
saasS'location'
p2545
(lp2546
S'march 1987 leon'
p2547
asS'searchTerm'
p2548
(lp2549
S'streets'
p2550
aS'squares'
p2551
aS'public buildings'
p2552
aS'well'
p2553
asS'event'
p2554
(lp2555
S'terrorist victor polay campos aka comrade rolando'
p2556
assS'TST4-MUC4-0020'
p2557
(dp2558
S'dateRange'
p2559
(lp2560
(dp2561
S'start'
p2562
S'2013-11-10'
p2563
sS'end'
p2564
S'2013-11-10'
p2565
sassS'TST4-MUC4-0021'
p2566
(dp2567
S'timeRange'
p2568
(lp2569
(dp2570
S'start'
p2571
S'06:00:00AM'
p2572
sS'end'
p2573
S'12:00:00PM'
p2574
sasS'title'
p2575
(lp2576
S'(emisoras caracol network) party'
p2577
a(lp2578
S'party caqueta causing considerable property damage'
p2579
aasS'dateRange'
p2580
(lp2581
(dp2582
g2571
S'2013-11-10'
p2583
sg2573
S'2013-11-10'
p2584
sa(lp2585
(dp2586
S'start'
p2587
S'2013-11-10'
p2588
sS'end'
p2589
S'2013-11-11'
p2590
saasS'destination'
p2591
(lp2592
S'barranquilla international airport air base'
p2593
asS'location'
p2594
(lp2595
S'airport barranquilla florencia cerro azul military installations uraba'
p2596
asS'searchTerm'
p2597
(lp2598
S'guards at the site repelled the attack which was apparently staged by guerrillas'
p2599
assS'TST4-MUC4-0022'
p2600
(dp2601
S'searchTerm'
p2602
(lp2603
S'terrorists dynamited machinery albolones peruanos inc'
p2604
aS'pisco'
p2605
a(lp2606
S'after doing so the terrorists fled from the site'
p2607
aasS'dateRange'
p2608
(lp2609
(dp2610
S'start'
p2611
S'0088-08-30'
p2612
sS'end'
p2613
S'0088-09-29'
p2614
sasS'location'
p2615
(lp2616
S'pisco 23 san clemente district 9 km'
p2617
assS'TST4-MUC4-0023'
p2618
(dp2619
S'title'
p2620
(lp2621
S'plans panamanian families'
p2622
a(lp2623
S'diplomatic post for smuggling'
p2624
aasS'dateRange'
p2625
(lp2626
(dp2627
S'start'
p2628
S'2013-11-10'
p2629
sS'end'
p2630
S'2013-11-17'
p2631
sasS'destination'
p2632
(lp2633
S'violence'
p2634
asS'contacts'
p2635
(lp2636
(dp2637
S'name'
p2638
S'we'
p2639
sa(lp2640
(dp2641
S'name'
p2642
S'we'
p2643
saa(lp2644
(dp2645
S'name'
p2646
S'israel'
p2647
saasS'numPeople'
p2648
(lp2649
S'1'
asS'location'
p2650
(lp2651
S'fdp should not fall'
p2652
a(lp2653
S'mexico panama'
p2654
aasS'searchTerm'
p2655
(lp2656
S'panama city (panama) 26 sep 88 (televisora national) -- [report on news conference held by attorney general carlos villalaz assistant attorney general mario ballesteros panama defense forces (fdp) g-2 lieutenant colonel guillermo wong and national investigations department (deni) director lieutenant colonel nivaldo madrinan with local and international reporters] [text] [continued] [begin recording] [madrinan] the plan included several points'
p2657
a(lp2658
S'[u'
p2659
aa(lp2660
S'visas'
p2661
aassS'TST3-MUC4-0041'
p2662
(dp2663
sS'TST3-MUC4-0040'
p2664
(dp2665
sS'TST3-MUC4-0043'
p2666
(dp2667
sS'TST3-MUC4-0042'
p2668
(dp2669
sS'TST3-MUC4-0045'
p2670
(dp2671
sS'TST3-MUC4-0044'
p2672
(dp2673
sS'TST3-MUC4-0047'
p2674
(dp2675
sS'TST3-MUC4-0046'
p2676
(dp2677
sS'TST3-MUC4-0049'
p2678
(dp2679
sS'TST3-MUC4-0048'
p2680
(dp2681
sS'TST4-MUC4-0008'
p2682
(dp2683
sS'TST4-MUC4-0009'
p2684
(dp2685
sS'TST1-MUC3-0068'
p2686
(dp2687
sS'TST1-MUC3-0069'
p2688
(dp2689
sS'TST1-MUC3-0060'
p2690
(dp2691
sS'TST1-MUC3-0061'
p2692
(dp2693
sS'TST1-MUC3-0062'
p2694
(dp2695
sS'TST1-MUC3-0063'
p2696
(dp2697
sS'TST1-MUC3-0064'
p2698
(dp2699
sS'TST1-MUC3-0065'
p2700
(dp2701
sS'TST1-MUC3-0066'
p2702
(dp2703
sS'TST1-MUC3-0067'
p2704
(dp2705
sS'TST2-MUC4-0100'
p2706
(dp2707
sS'TST2-MUC4-0031'
p2708
(dp2709
sS'TST2-MUC4-0030'
p2710
(dp2711
sS'TST2-MUC4-0033'
p2712
(dp2713
sS'TST2-MUC4-0032'
p2714
(dp2715
sS'TST2-MUC4-0035'
p2716
(dp2717
sS'TST2-MUC4-0034'
p2718
(dp2719
sS'TST2-MUC4-0037'
p2720
(dp2721
sS'TST2-MUC4-0036'
p2722
(dp2723
sS'TST2-MUC4-0039'
p2724
(dp2725
sS'TST2-MUC4-0038'
p2726
(dp2727
sS'TST1-MUC3-0099'
p2728
(dp2729
sS'TST1-MUC3-0098'
p2730
(dp2731
sS'TST1-MUC3-0091'
p2732
(dp2733
sS'TST1-MUC3-0090'
p2734
(dp2735
sS'TST1-MUC3-0093'
p2736
(dp2737
sS'TST1-MUC3-0092'
p2738
(dp2739
sS'TST1-MUC3-0095'
p2740
(dp2741
sS'TST1-MUC3-0094'
p2742
(dp2743
sS'TST1-MUC3-0097'
p2744
(dp2745
sS'TST1-MUC3-0096'
p2746
(dp2747
sS'TST3-MUC4-0085'
p2748
(dp2749
sS'TST3-MUC4-0084'
p2750
(dp2751
sS'TST3-MUC4-0087'
p2752
(dp2753
sS'TST3-MUC4-0086'
p2754
(dp2755
sS'TST3-MUC4-0081'
p2756
(dp2757
sS'TST3-MUC4-0080'
p2758
(dp2759
sS'TST3-MUC4-0083'
p2760
(dp2761
sS'TST3-MUC4-0082'
p2762
(dp2763
sS'TST3-MUC4-0089'
p2764
(dp2765
sS'TST3-MUC4-0088'
p2766
(dp2767
sS'TST1-MUC3-0028'
p2768
(dp2769
sS'TST1-MUC3-0029'
p2770
(dp2771
sS'TST1-MUC3-0024'
p2772
(dp2773
sS'TST1-MUC3-0025'
p2774
(dp2775
sS'TST1-MUC3-0026'
p2776
(dp2777
sS'TST1-MUC3-0027'
p2778
(dp2779
sS'TST1-MUC3-0020'
p2780
(dp2781
sS'TST1-MUC3-0021'
p2782
(dp2783
sS'TST1-MUC3-0022'
p2784
(dp2785
sS'TST1-MUC3-0023'
p2786
(dp2787
sS'TST3-MUC4-0038'
p2788
(dp2789
sS'TST3-MUC4-0039'
p2790
(dp2791
sS'TST4-MUC4-0059'
p2792
(dp2793
sS'TST4-MUC4-0058'
p2794
(dp2795
sS'TST3-MUC4-0030'
p2796
(dp2797
sS'TST3-MUC4-0031'
p2798
(dp2799
sS'TST4-MUC4-0057'
p2800
(dp2801
sS'TST4-MUC4-0056'
p2802
(dp2803
S'contacts'
p2804
(lp2805
(dp2806
S'name'
p2807
S'will'
p2808
sasS'dateRange'
p2809
(lp2810
(dp2811
S'start'
p2812
S'2013-11-10'
p2813
sS'end'
p2814
S'2013-11-10'
p2815
sa(lp2816
(dp2817
S'start'
p2818
S'2013-11-16'
p2819
sS'end'
p2820
S'2013-11-18'
p2821
saa(lp2822
(dp2823
S'start'
p2824
S'2013-11-10'
p2825
sS'end'
p2826
S'2013-11-10'
p2827
saa(lp2828
(dp2829
S'start'
p2830
S'2014-10-22'
p2831
sS'end'
p2832
S'2014-10-23'
p2833
saasS'timeRange'
p2834
(lp2835
(dp2836
g2812
S'09:14:00AM'
p2837
sg2814
S'09:14:00AM'
p2838
sa(lp2839
(dp2840
g2830
S'02:00:00PM'
p2841
sg2832
S'02:00:00PM'
p2842
saasS'location'
p2843
(lp2844
S'venezuela autopsies el amparo'
p2845
a(lp2846
S'venezuela'
p2847
aa(lp2848
S'el amparo security organizations'
p2849
aa(lp2850
S'caracas'
p2851
aasS'searchTerm'
p2852
(lp2853
S'survivors'
p2854
aS'mexican government'
p2855
asS'title'
p2856
(lp2857
S'(inravision television cadena 1) -- [report] [maria clara gracia] [text]'
p2858
a(lp2859
S'autopsy reports'
p2860
aa(lp2861
S'judicial report'
p2862
aasS'message'
p2863
(lp2864
S'government will also await an official notification from venezuela on the results of the investigations on the el amparo slaughter'
p2865
assS'TST3-MUC4-0034'
p2866
(dp2867
sS'TST3-MUC4-0035'
p2868
(dp2869
sS'TST3-MUC4-0036'
p2870
(dp2871
sS'TST3-MUC4-0037'
p2872
(dp2873
sS'TST2-MUC4-0070'
p2874
(dp2875
sS'TST4-MUC4-0066'
p2876
(dp2877
sS'TST3-MUC4-0100'
p2878
(dp2879
sS'TST4-MUC4-0088'
p2880
(dp2881
sS'TST4-MUC4-0089'
p2882
(dp2883
sS'TST4-MUC4-0082'
p2884
(dp2885
sS'TST4-MUC4-0083'
p2886
(dp2887
sS'TST4-MUC4-0080'
p2888
(dp2889
sS'TST4-MUC4-0081'
p2890
(dp2891
sS'TST4-MUC4-0086'
p2892
(dp2893
sS'TST4-MUC4-0087'
p2894
(dp2895
sS'TST4-MUC4-0084'
p2896
(dp2897
sS'TST4-MUC4-0085'
p2898
(dp2899
sS'TST3-MUC4-0027'
p2900
(dp2901
sS'TST3-MUC4-0026'
p2902
(dp2903
sS'TST2-MUC4-0048'
p2904
(dp2905
sS'TST2-MUC4-0049'
p2906
(dp2907
sS'TST2-MUC4-0040'
p2908
(dp2909
sS'TST2-MUC4-0041'
p2910
(dp2911
sS'TST2-MUC4-0042'
p2912
(dp2913
sS'TST2-MUC4-0043'
p2914
(dp2915
sS'TST2-MUC4-0044'
p2916
(dp2917
sS'TST2-MUC4-0045'
p2918
(dp2919
sS'TST2-MUC4-0046'
p2920
(dp2921
sS'TST2-MUC4-0047'
p2922
(dp2923
sS'TST1-MUC3-0100'
p2924
(dp2925
sS'TST3-MUC4-0078'
p2926
(dp2927
sS'TST3-MUC4-0079'
p2928
(dp2929
sS'TST3-MUC4-0074'
p2930
(dp2931
sS'TST3-MUC4-0075'
p2932
(dp2933
sS'TST3-MUC4-0076'
p2934
(dp2935
sS'TST3-MUC4-0077'
p2936
(dp2937
sS'TST3-MUC4-0070'
p2938
(dp2939
sS'TST3-MUC4-0071'
p2940
(dp2941
sS'TST3-MUC4-0072'
p2942
(dp2943
sS'TST3-MUC4-0073'
p2944
(dp2945
sS'TST4-MUC4-0011'
p2946
(dp2947
sS'TST4-MUC4-0010'
p2948
(dp2949
sS'TST4-MUC4-0013'
p2950
(dp2951
sS'TST4-MUC4-0012'
p2952
(dp2953
sS'TST4-MUC4-0015'
p2954
(dp2955
sS'TST4-MUC4-0014'
p2956
(dp2957
sS'TST4-MUC4-0017'
p2958
(dp2959
sS'TST4-MUC4-0016'
p2960
(dp2961
sS'TST4-MUC4-0019'
p2962
(dp2963
sS'TST4-MUC4-0018'
p2964
(dp2965
sS'TST4-MUC4-0067'
p2966
(dp2967
sS'TST1-MUC3-0077'
p2968
(dp2969
sS'TST1-MUC3-0076'
p2970
(dp2971
sS'TST1-MUC3-0075'
p2972
(dp2973
sS'TST1-MUC3-0074'
p2974
(dp2975
sS'TST1-MUC3-0073'
p2976
(dp2977
sS'TST1-MUC3-0072'
p2978
(dp2979
sS'TST1-MUC3-0071'
p2980
(dp2981
sS'TST1-MUC3-0070'
p2982
(dp2983
sS'TST1-MUC3-0079'
p2984
(dp2985
sS'TST1-MUC3-0078'
p2986
(dp2987
sS'TST2-MUC4-0008'
p2988
(dp2989
sS'TST2-MUC4-0009'
p2990
(dp2991
sS'TST2-MUC4-0004'
p2992
(dp2993
sS'TST2-MUC4-0005'
p2994
(dp2995
sS'TST2-MUC4-0006'
p2996
(dp2997
sS'TST2-MUC4-0007'
p2998
(dp2999
sS'TST2-MUC4-0002'
p3000
(dp3001
sS'TST2-MUC4-0003'
p3002
(dp3003
sS'TST1-MUC3-0039'
p3004
(dp3005
sS'TST1-MUC3-0038'
p3006
(dp3007
sS'TST1-MUC3-0033'
p3008
(dp3009
sS'TST1-MUC3-0032'
p3010
(dp3011
sS'TST1-MUC3-0031'
p3012
(dp3013
sS'TST1-MUC3-0030'
p3014
(dp3015
sS'TST1-MUC3-0037'
p3016
(dp3017
sS'TST1-MUC3-0036'
p3018
(dp3019
sS'TST1-MUC3-0035'
p3020
(dp3021
sS'TST1-MUC3-0034'
p3022
(dp3023
sS'TST4-MUC4-0068'
p3024
(dp3025
sS'TST4-MUC4-0069'
p3026
(dp3027
sS'TST3-MUC4-0025'
p3028
(dp3029
sS'TST3-MUC4-0024'
p3030
(dp3031
sS'TST3-MUC4-0023'
p3032
(dp3033
sS'TST3-MUC4-0022'
p3034
(dp3035
sS'TST3-MUC4-0021'
p3036
(dp3037
sS'TST3-MUC4-0020'
p3038
(dp3039
sS'TST4-MUC4-0060'
p3040
(dp3041
sS'TST4-MUC4-0061'
p3042
(dp3043
sS'TST4-MUC4-0062'
p3044
(dp3045
sS'TST4-MUC4-0063'
p3046
(dp3047
sS'TST4-MUC4-0064'
p3048
(dp3049
sS'TST4-MUC4-0065'
p3050
(dp3051
sS'TST3-MUC4-0029'
p3052
(dp3053
sS'TST3-MUC4-0028'
p3054
(dp3055
sS'TST1-MUC3-0048'
p3056
(dp3057
sS'TST1-MUC3-0049'
p3058
(dp3059
sS'TST1-MUC3-0046'
p3060
(dp3061
sS'TST1-MUC3-0047'
p3062
(dp3063
sS'TST1-MUC3-0044'
p3064
(dp3065
sS'TST1-MUC3-0045'
p3066
(dp3067
sS'TST1-MUC3-0042'
p3068
(dp3069
sS'TST1-MUC3-0043'
p3070
(dp3071
sS'TST1-MUC3-0040'
p3072
(dp3073
sS'TST1-MUC3-0041'
p3074
(dp3075
s.